
I2C LCD.elf:     file format elf32-avr

Sections:
Idx Name          Size      VMA       LMA       File off  Algn
  0 .data         000000dc  00800100  00002846  000028fa  2**0
                  CONTENTS, ALLOC, LOAD, DATA
  1 .text         00002846  00000000  00000000  000000b4  2**1
                  CONTENTS, ALLOC, LOAD, READONLY, CODE
  2 .bss          0000014e  008001dc  008001dc  000029d6  2**0
                  ALLOC
  3 .eeprom       0000002f  00810000  00810000  000029d6  2**0
                  CONTENTS, ALLOC, LOAD, DATA
  4 .stab         00001008  00000000  00000000  00002a08  2**2
                  CONTENTS, READONLY, DEBUGGING
  5 .stabstr      000003aa  00000000  00000000  00003a10  2**0
                  CONTENTS, READONLY, DEBUGGING
  6 .debug_aranges 00000140  00000000  00000000  00003dba  2**0
                  CONTENTS, READONLY, DEBUGGING
  7 .debug_pubnames 000008cd  00000000  00000000  00003efa  2**0
                  CONTENTS, READONLY, DEBUGGING
  8 .debug_info   00002886  00000000  00000000  000047c7  2**0
                  CONTENTS, READONLY, DEBUGGING
  9 .debug_abbrev 00000ce9  00000000  00000000  0000704d  2**0
                  CONTENTS, READONLY, DEBUGGING
 10 .debug_line   00002d5c  00000000  00000000  00007d36  2**0
                  CONTENTS, READONLY, DEBUGGING
 11 .debug_frame  00000580  00000000  00000000  0000aa94  2**2
                  CONTENTS, READONLY, DEBUGGING
 12 .debug_str    00000bab  00000000  00000000  0000b014  2**0
                  CONTENTS, READONLY, DEBUGGING
 13 .debug_loc    00001d3e  00000000  00000000  0000bbbf  2**0
                  CONTENTS, READONLY, DEBUGGING
 14 .debug_pubtypes 0000026f  00000000  00000000  0000d8fd  2**0
                  CONTENTS, READONLY, DEBUGGING
 15 .debug_ranges 00000078  00000000  00000000  0000db6c  2**0
                  CONTENTS, READONLY, DEBUGGING

Disassembly of section .text:

00000000 <__vectors>:
       0:	0c 94 2c 01 	jmp	0x258	; 0x258 <__ctors_end>
       4:	0c 94 49 01 	jmp	0x292	; 0x292 <__bad_interrupt>
       8:	0c 94 49 01 	jmp	0x292	; 0x292 <__bad_interrupt>
       c:	0c 94 49 01 	jmp	0x292	; 0x292 <__bad_interrupt>
      10:	0c 94 49 01 	jmp	0x292	; 0x292 <__bad_interrupt>
      14:	0c 94 49 01 	jmp	0x292	; 0x292 <__bad_interrupt>
      18:	0c 94 49 01 	jmp	0x292	; 0x292 <__bad_interrupt>
      1c:	0c 94 49 01 	jmp	0x292	; 0x292 <__bad_interrupt>
      20:	0c 94 49 01 	jmp	0x292	; 0x292 <__bad_interrupt>
      24:	0c 94 49 01 	jmp	0x292	; 0x292 <__bad_interrupt>
      28:	0c 94 49 01 	jmp	0x292	; 0x292 <__bad_interrupt>
      2c:	0c 94 49 01 	jmp	0x292	; 0x292 <__bad_interrupt>
      30:	0c 94 49 01 	jmp	0x292	; 0x292 <__bad_interrupt>
      34:	0c 94 49 01 	jmp	0x292	; 0x292 <__bad_interrupt>
      38:	0c 94 49 01 	jmp	0x292	; 0x292 <__bad_interrupt>
      3c:	0c 94 49 01 	jmp	0x292	; 0x292 <__bad_interrupt>
      40:	0c 94 49 01 	jmp	0x292	; 0x292 <__bad_interrupt>
      44:	0c 94 49 01 	jmp	0x292	; 0x292 <__bad_interrupt>
      48:	0c 94 8e 0e 	jmp	0x1d1c	; 0x1d1c <__vector_18>
      4c:	0c 94 49 01 	jmp	0x292	; 0x292 <__bad_interrupt>
      50:	0c 94 21 0f 	jmp	0x1e42	; 0x1e42 <__vector_20>
      54:	0c 94 4c 0f 	jmp	0x1e98	; 0x1e98 <__vector_21>
      58:	0c 94 49 01 	jmp	0x292	; 0x292 <__bad_interrupt>
      5c:	0c 94 49 01 	jmp	0x292	; 0x292 <__bad_interrupt>
      60:	0c 94 49 01 	jmp	0x292	; 0x292 <__bad_interrupt>
      64:	0c 94 49 01 	jmp	0x292	; 0x292 <__bad_interrupt>
      68:	0c 94 49 01 	jmp	0x292	; 0x292 <__bad_interrupt>
      6c:	0c 94 49 01 	jmp	0x292	; 0x292 <__bad_interrupt>
      70:	0c 94 e1 0f 	jmp	0x1fc2	; 0x1fc2 <__vector_28>
      74:	0c 94 0c 10 	jmp	0x2018	; 0x2018 <__vector_29>
      78:	0c 94 49 01 	jmp	0x292	; 0x292 <__bad_interrupt>

0000007c <wochentagname>:
      7c:	20 20 00 4d 6f 00 44 69 00 4d 69 00 44 6f 00 46       .Mo.Di.Mi.Do.F
      8c:	72 00 53 61 00 53 6f 00 2f 30 00                    r.Sa.So./0.

00000097 <Func_1_str>:
      97:	4d 65 6e 75 65 31 00                                Menue1.

0000009e <Func_2_str>:
      9e:	4d 65 6e 75 65 32 00                                Menue2.

000000a5 <Func_3_str>:
      a5:	4d 65 6e 75 65 33 00                                Menue3.

000000ac <MainFunctionNames>:
      ac:	97 00 9e 00 a5 00                                   ......

000000b2 <MainFunctionPtrs>:
      b2:	90 09 e0 0a f5 07                                   ......

000000b8 <Message1>:
      b8:	2a 4d 41 49 4e 31 20 61 75 73 66 75 65 68 72 65     *MAIN1 ausfuehre
      c8:	6e 2a 00                                            n*.

000000cb <Message2>:
      cb:	2a 4d 41 49 4e 32 20 61 75 73 66 75 65 68 72 65     *MAIN2 ausfuehre
      db:	6e 2a 00                                            n*.

000000de <Message3>:
      de:	4d 41 49 4e 33 20 61 75 73 66 75 65 68 72 65 6e     MAIN3 ausfuehren
	...

000000ef <AboutText>:
      ef:	54 6f 70 4d 65 6e fc 00                             TopMen..

000000f7 <__c.1946>:
      f7:	5a 65 69 74 20 45 69 6e 73 74 65 6c 6c 75 6e 67     Zeit Einstellung
     107:	65 6e 20 20 4d 6f 6e 64 6c 69 63 68 74 20 61 75     en  Mondlicht au
     117:	73 73 63 68 61 6c 74 65 6e 3a 00                    sschalten:.

00000122 <__c.1944>:
     122:	5a 65 69 74 20 45 69 6e 73 74 65 6c 6c 75 6e 67     Zeit Einstellung
     132:	65 6e 20 20 4d 6f 6e 64 6c 69 63 68 74 20 65 69     en  Mondlicht ei
     142:	6e 73 74 65 6c 6c 65 6e 3a 00                       nstellen:.

0000014c <__c.1942>:
     14c:	5a 65 69 74 20 45 69 6e 73 74 65 6c 6c 75 6e 67     Zeit Einstellung
     15c:	65 6e 20 20 4c 61 6d 70 65 20 61 75 73 73 63 68     en  Lampe aussch
     16c:	61 6c 74 65 6e 3a 00                                alten:.

00000173 <__c.1940>:
     173:	5a 65 69 74 20 45 69 6e 73 74 65 6c 6c 75 6e 67     Zeit Einstellung
     183:	65 6e 20 20 4c 61 6d 70 65 20 65 69 6e 73 63 68     en  Lampe einsch
     193:	61 6c 74 65 6e 3a 00                                alten:.

0000019a <__c.1938>:
     19a:	41 6b 74 75 65 6c 6c 65 20 55 68 72 7a 65 69 74     Aktuelle Uhrzeit
     1aa:	20 20 20 20 65 69 6e 67 65 62 65 6e 00                  eingeben.

000001b7 <__c.1936>:
     1b7:	41 6b 74 75 65 6c 6c 65 73 20 44 61 74 75 6d 20     Aktuelles Datum 
     1c7:	20 20 20 20 65 69 6e 67 65 62 65 6e 00                  eingeben.

000001d4 <__c.1931>:
     1d4:	48 79 73 74 65 72 65 73 65 3a 00                    Hysterese:.

000001df <__c.1929>:
     1df:	54 65 6d 70 2e 20 4d 69 6e 3a 00                    Temp. Min:.

000001ea <__c.1927>:
     1ea:	54 65 6d 70 2e 20 4d 61 78 3a 00                    Temp. Max:.

000001f5 <__c.1925>:
     1f5:	54 65 6d 70 65 72 61 74 75 72 20 4d 69 6e 2f 4d     Temperatur Min/M
     205:	61 78 3a 00                                         ax:.

00000209 <__c.1923>:
     209:	48 79 73 74 65 72 65 73 65 3a 00                    Hysterese:.

00000214 <__c.1921>:
     214:	4c 75 65 66 74 65 72 20 61 75 73 3a 00              Luefter aus:.

00000221 <__c.1919>:
     221:	4c 75 65 66 74 65 72 20 65 69 6e 3a 00              Luefter ein:.

0000022e <__c.1917>:
     22e:	4c 75 65 66 74 65 72 20 65 69 6e 73 74 65 6c 6c     Luefter einstell
     23e:	75 6e 67 00                                         ung.

00000242 <__c.1915>:
     242:	48 65 69 7a 65 72 20 65 69 6e 73 74 65 6c 6c 75     Heizer einstellu
     252:	6e 67 65 6e 00 00                                   ngen..

00000258 <__ctors_end>:
     258:	11 24       	eor	r1, r1
     25a:	1f be       	out	0x3f, r1	; 63
     25c:	cf ef       	ldi	r28, 0xFF	; 255
     25e:	d0 e1       	ldi	r29, 0x10	; 16
     260:	de bf       	out	0x3e, r29	; 62
     262:	cd bf       	out	0x3d, r28	; 61

00000264 <__do_copy_data>:
     264:	11 e0       	ldi	r17, 0x01	; 1
     266:	a0 e0       	ldi	r26, 0x00	; 0
     268:	b1 e0       	ldi	r27, 0x01	; 1
     26a:	e6 e4       	ldi	r30, 0x46	; 70
     26c:	f8 e2       	ldi	r31, 0x28	; 40
     26e:	02 c0       	rjmp	.+4      	; 0x274 <__do_copy_data+0x10>
     270:	05 90       	lpm	r0, Z+
     272:	0d 92       	st	X+, r0
     274:	ac 3d       	cpi	r26, 0xDC	; 220
     276:	b1 07       	cpc	r27, r17
     278:	d9 f7       	brne	.-10     	; 0x270 <__do_copy_data+0xc>

0000027a <__do_clear_bss>:
     27a:	13 e0       	ldi	r17, 0x03	; 3
     27c:	ac ed       	ldi	r26, 0xDC	; 220
     27e:	b1 e0       	ldi	r27, 0x01	; 1
     280:	01 c0       	rjmp	.+2      	; 0x284 <.do_clear_bss_start>

00000282 <.do_clear_bss_loop>:
     282:	1d 92       	st	X+, r1

00000284 <.do_clear_bss_start>:
     284:	aa 32       	cpi	r26, 0x2A	; 42
     286:	b1 07       	cpc	r27, r17
     288:	e1 f7       	brne	.-8      	; 0x282 <.do_clear_bss_loop>
     28a:	0e 94 f0 0d 	call	0x1be0	; 0x1be0 <main>
     28e:	0c 94 21 14 	jmp	0x2842	; 0x2842 <_exit>

00000292 <__bad_interrupt>:
     292:	0c 94 00 00 	jmp	0	; 0x0 <__vectors>

00000296 <error_func>:
void error_func()  // Error handler
{
    ////lcd_goto(4, 1);
    ////lcd_writeText("ERROR");
    //PORTD ^= 0x01;
}
     296:	08 95       	ret

00000298 <ds_1307_init>:
 * ds_1307_init(..) - Initialisiert den DS1307 und aktiviert den Oszillator
 * PE:--
 * PA:--
 *///---------------------------------------------------------------
void ds_1307_init() // DS1307 Timer aktivieren
{
     298:	1f 93       	push	r17
    uint8_t ret, tmp;
    ret = i2c_start(DS1307_ADRESSE + I2C_WRITE); // write start auf DS1307 schreiben
     29a:	80 ed       	ldi	r24, 0xD0	; 208
     29c:	0e 94 47 04 	call	0x88e	; 0x88e <i2c_start>
    if (ret)
     2a0:	88 23       	and	r24, r24
     2a2:	a9 f4       	brne	.+42     	; 0x2ce <ds_1307_init+0x36>
        error_func(); // Error handler aufrufen

    }
    else
    {
        i2c_write(0x00); // Register Pointer auf Sekunden
     2a4:	80 e0       	ldi	r24, 0x00	; 0
     2a6:	0e 94 9e 04 	call	0x93c	; 0x93c <i2c_write>
        i2c_rep_start(DS1307_ADRESSE + I2C_READ); // Restart mit write senden
     2aa:	81 ed       	ldi	r24, 0xD1	; 209
     2ac:	0e 94 93 04 	call	0x926	; 0x926 <i2c_rep_start>
        tmp = i2c_readNak();						// Sekunden Register auslesen
     2b0:	0e 94 b9 04 	call	0x972	; 0x972 <i2c_readNak>
     2b4:	18 2f       	mov	r17, r24
        i2c_stop();
     2b6:	0e 94 96 04 	call	0x92c	; 0x92c <i2c_stop>
        tmp &= ~0x80;								// Bit 7 (CH-BIT) löschen -> aktiviert den RTC Oszillator
        ret = i2c_start(DS1307_ADRESSE + I2C_WRITE);// Restart senden
     2ba:	80 ed       	ldi	r24, 0xD0	; 208
     2bc:	0e 94 47 04 	call	0x88e	; 0x88e <i2c_start>
        i2c_write(0x00);							// Pointer Register auf Sekunden
     2c0:	80 e0       	ldi	r24, 0x00	; 0
     2c2:	0e 94 9e 04 	call	0x93c	; 0x93c <i2c_write>
        i2c_write(tmp);								// Sekunden mit gelöschem CH-Bit zurückschreiben
     2c6:	81 2f       	mov	r24, r17
     2c8:	8f 77       	andi	r24, 0x7F	; 127
     2ca:	0e 94 9e 04 	call	0x93c	; 0x93c <i2c_write>
        i2c_stop();									 // Bus stoppen
     2ce:	0e 94 96 04 	call	0x92c	; 0x92c <i2c_stop>
    }
}
     2d2:	1f 91       	pop	r17
     2d4:	08 95       	ret

000002d6 <get_ds1307_zeit_datum>:
 * get_ds1307_zeit_datum(..) - Akutelle Zeit und Datum vom DS1307 einlesen
 * PE:Pointer auf struct vom Typ uhr
 * PA:--
 *///---------------------------------------------------------------
void get_ds1307_zeit_datum(uhr *zeit_pointer)   // DS1307 Datum setzen  Pointer auf Zeit struct wird übergeben
{
     2d6:	cf 92       	push	r12
     2d8:	df 92       	push	r13
     2da:	ef 92       	push	r14
     2dc:	ff 92       	push	r15
     2de:	0f 93       	push	r16
     2e0:	1f 93       	push	r17
     2e2:	cf 93       	push	r28
     2e4:	df 93       	push	r29
     2e6:	ec 01       	movw	r28, r24
    uint8_t ret;
    uhr get_zeit; // Hilfsstruct um BCD Code vom DS1307 zu holen und dann die Zeit und Dezimale umzurechnen
    ret = i2c_start(DS1307_ADRESSE + I2C_WRITE); // write start auf DS1307 schreiben
     2e8:	80 ed       	ldi	r24, 0xD0	; 208
     2ea:	0e 94 47 04 	call	0x88e	; 0x88e <i2c_start>
    if (ret)
     2ee:	88 23       	and	r24, r24
     2f0:	19 f0       	breq	.+6      	; 0x2f8 <get_ds1307_zeit_datum+0x22>
    {
        i2c_stop(); // Bus stoppen
     2f2:	0e 94 96 04 	call	0x92c	; 0x92c <i2c_stop>
     2f6:	60 c0       	rjmp	.+192    	; 0x3b8 <get_ds1307_zeit_datum+0xe2>
        error_func(); // Error handler aufrunfen
    }
    else
    {
        i2c_write(0x00); // Register Pointer auf Sekunde
     2f8:	80 e0       	ldi	r24, 0x00	; 0
     2fa:	0e 94 9e 04 	call	0x93c	; 0x93c <i2c_write>
        i2c_rep_start(DS1307_ADRESSE + I2C_READ); // Restart mit write senden
     2fe:	81 ed       	ldi	r24, 0xD1	; 209
     300:	0e 94 93 04 	call	0x926	; 0x926 <i2c_rep_start>
        get_zeit.sekunde = i2c_readAck(); // Sekunden einlesen
     304:	0e 94 af 04 	call	0x95e	; 0x95e <i2c_readAck>
     308:	d8 2e       	mov	r13, r24
        get_zeit.minute = i2c_readAck(); // Minuten einlesen
     30a:	0e 94 af 04 	call	0x95e	; 0x95e <i2c_readAck>
     30e:	e8 2e       	mov	r14, r24
        get_zeit.stunde = i2c_readAck();// Stunden einlesen
     310:	0e 94 af 04 	call	0x95e	; 0x95e <i2c_readAck>
     314:	f8 2e       	mov	r15, r24
        get_zeit.wochentag = i2c_readAck(); // Wochentag einlesen
     316:	0e 94 af 04 	call	0x95e	; 0x95e <i2c_readAck>
     31a:	c8 2e       	mov	r12, r24
        get_zeit.tag = i2c_readAck();// Tag einlesen
     31c:	0e 94 af 04 	call	0x95e	; 0x95e <i2c_readAck>
     320:	08 2f       	mov	r16, r24
        get_zeit.monat = i2c_readAck();// Monat einlesen
     322:	0e 94 af 04 	call	0x95e	; 0x95e <i2c_readAck>
     326:	18 2f       	mov	r17, r24
        get_zeit.jahr = i2c_readNak(); // Jahr einlesen
     328:	0e 94 b9 04 	call	0x972	; 0x972 <i2c_readNak>

        zeit_pointer->sekunde = (get_zeit.sekunde & 0x0F) + ((get_zeit.sekunde >> 4) * 10); // BCD-Code ins Dezimale umrechnen
     32c:	2d 2d       	mov	r18, r13
     32e:	22 95       	swap	r18
     330:	2f 70       	andi	r18, 0x0F	; 15
     332:	22 0f       	add	r18, r18
     334:	92 2f       	mov	r25, r18
     336:	99 0f       	add	r25, r25
     338:	99 0f       	add	r25, r25
     33a:	92 0f       	add	r25, r18
     33c:	2d 2d       	mov	r18, r13
     33e:	2f 70       	andi	r18, 0x0F	; 15
     340:	92 0f       	add	r25, r18
     342:	99 83       	std	Y+1, r25	; 0x01
        zeit_pointer->minute = (get_zeit.minute & 0x0F) + ((get_zeit.minute >> 4) * 10);
     344:	2e 2d       	mov	r18, r14
     346:	22 95       	swap	r18
     348:	2f 70       	andi	r18, 0x0F	; 15
     34a:	22 0f       	add	r18, r18
     34c:	92 2f       	mov	r25, r18
     34e:	99 0f       	add	r25, r25
     350:	99 0f       	add	r25, r25
     352:	92 0f       	add	r25, r18
     354:	2e 2d       	mov	r18, r14
     356:	2f 70       	andi	r18, 0x0F	; 15
     358:	92 0f       	add	r25, r18
     35a:	98 83       	st	Y, r25
        zeit_pointer->stunde = (get_zeit.stunde & 0x0F) + ((get_zeit.stunde >> 4)* 10);
     35c:	2f 2d       	mov	r18, r15
     35e:	22 95       	swap	r18
     360:	2f 70       	andi	r18, 0x0F	; 15
     362:	22 0f       	add	r18, r18
     364:	92 2f       	mov	r25, r18
     366:	99 0f       	add	r25, r25
     368:	99 0f       	add	r25, r25
     36a:	92 0f       	add	r25, r18
     36c:	2f 2d       	mov	r18, r15
     36e:	2f 70       	andi	r18, 0x0F	; 15
     370:	92 0f       	add	r25, r18
     372:	9a 83       	std	Y+2, r25	; 0x02
        zeit_pointer->tag = (get_zeit.tag & 0x0F) + ((get_zeit.tag >> 4) * 10);
     374:	20 2f       	mov	r18, r16
     376:	22 95       	swap	r18
     378:	2f 70       	andi	r18, 0x0F	; 15
     37a:	22 0f       	add	r18, r18
     37c:	92 2f       	mov	r25, r18
     37e:	99 0f       	add	r25, r25
     380:	99 0f       	add	r25, r25
     382:	92 0f       	add	r25, r18
     384:	0f 70       	andi	r16, 0x0F	; 15
     386:	90 0f       	add	r25, r16
     388:	9b 83       	std	Y+3, r25	; 0x03
        zeit_pointer->wochentag = get_zeit.wochentag;
     38a:	cc 82       	std	Y+4, r12	; 0x04
        zeit_pointer->monat = (get_zeit.monat & 0x0F) + ((get_zeit.monat >> 4) * 10);
     38c:	21 2f       	mov	r18, r17
     38e:	22 95       	swap	r18
     390:	2f 70       	andi	r18, 0x0F	; 15
     392:	22 0f       	add	r18, r18
     394:	92 2f       	mov	r25, r18
     396:	99 0f       	add	r25, r25
     398:	99 0f       	add	r25, r25
     39a:	92 0f       	add	r25, r18
     39c:	1f 70       	andi	r17, 0x0F	; 15
     39e:	91 0f       	add	r25, r17
     3a0:	9d 83       	std	Y+5, r25	; 0x05
        zeit_pointer->jahr = (get_zeit.jahr & 0x0F) + ((get_zeit.jahr >> 4) * 10);
     3a2:	28 2f       	mov	r18, r24
     3a4:	22 95       	swap	r18
     3a6:	2f 70       	andi	r18, 0x0F	; 15
     3a8:	22 0f       	add	r18, r18
     3aa:	92 2f       	mov	r25, r18
     3ac:	99 0f       	add	r25, r25
     3ae:	99 0f       	add	r25, r25
     3b0:	92 0f       	add	r25, r18
     3b2:	8f 70       	andi	r24, 0x0F	; 15
     3b4:	98 0f       	add	r25, r24
     3b6:	9e 83       	std	Y+6, r25	; 0x06
    }
}
     3b8:	df 91       	pop	r29
     3ba:	cf 91       	pop	r28
     3bc:	1f 91       	pop	r17
     3be:	0f 91       	pop	r16
     3c0:	ff 90       	pop	r15
     3c2:	ef 90       	pop	r14
     3c4:	df 90       	pop	r13
     3c6:	cf 90       	pop	r12
     3c8:	08 95       	ret

000003ca <set_ds1307_zeit>:
 * set_ds1307_zeit(..) - Uhrzeit auf DS1307 schreiben
  * PE:Pointer auf struct uhr
 * PA:--
 *///---------------------------------------------------------------
void set_ds1307_zeit(uhr *zeit_pointer)   // Zeit auf DS1307 schreiben
{
     3ca:	1f 93       	push	r17
     3cc:	cf 93       	push	r28
     3ce:	df 93       	push	r29
     3d0:	ec 01       	movw	r28, r24
    uint8_t  ret;
    ret = i2c_start(DS1307_ADRESSE + I2C_WRITE); // write start auf DS1307 schreiben
     3d2:	80 ed       	ldi	r24, 0xD0	; 208
     3d4:	0e 94 47 04 	call	0x88e	; 0x88e <i2c_start>
    if (ret)
     3d8:	88 23       	and	r24, r24
     3da:	f9 f4       	brne	.+62     	; 0x41a <set_ds1307_zeit+0x50>
        error_func(); // Error handler aufrufen
    }
    else
    {

        i2c_write(0x00);											// Register Pointer auf Sekunden
     3dc:	80 e0       	ldi	r24, 0x00	; 0
     3de:	0e 94 9e 04 	call	0x93c	; 0x93c <i2c_write>
        i2c_write(0x00 |(zeit_pointer->sekunde % 10) | ((zeit_pointer->sekunde / 10) << 4)); 	// Timer einschalten Bit7 ->0 Sekunden in BCD umrechen und auf DS1307 senden
     3e2:	89 81       	ldd	r24, Y+1	; 0x01
     3e4:	1a e0       	ldi	r17, 0x0A	; 10
     3e6:	61 2f       	mov	r22, r17
     3e8:	0e 94 c0 10 	call	0x2180	; 0x2180 <__udivmodqi4>
     3ec:	82 95       	swap	r24
     3ee:	80 7f       	andi	r24, 0xF0	; 240
     3f0:	89 2b       	or	r24, r25
     3f2:	0e 94 9e 04 	call	0x93c	; 0x93c <i2c_write>
        i2c_write((zeit_pointer->minute % 10) | ((zeit_pointer->minute / 10) << 4));			// Minuten in BCD umrechen und an DS 1307 senden
     3f6:	88 81       	ld	r24, Y
     3f8:	61 2f       	mov	r22, r17
     3fa:	0e 94 c0 10 	call	0x2180	; 0x2180 <__udivmodqi4>
     3fe:	82 95       	swap	r24
     400:	80 7f       	andi	r24, 0xF0	; 240
     402:	89 2b       	or	r24, r25
     404:	0e 94 9e 04 	call	0x93c	; 0x93c <i2c_write>
        i2c_write((zeit_pointer->stunde % 10) | ((zeit_pointer->stunde / 10) << 4));			// Stunden in BCD umrechen und an DS 1307 senden
     408:	8a 81       	ldd	r24, Y+2	; 0x02
     40a:	61 2f       	mov	r22, r17
     40c:	0e 94 c0 10 	call	0x2180	; 0x2180 <__udivmodqi4>
     410:	82 95       	swap	r24
     412:	80 7f       	andi	r24, 0xF0	; 240
     414:	89 2b       	or	r24, r25
     416:	0e 94 9e 04 	call	0x93c	; 0x93c <i2c_write>
        i2c_stop();													// Bus stoppen
     41a:	0e 94 96 04 	call	0x92c	; 0x92c <i2c_stop>
    }
}
     41e:	df 91       	pop	r29
     420:	cf 91       	pop	r28
     422:	1f 91       	pop	r17
     424:	08 95       	ret

00000426 <set_ds1307_datum>:
 * set_ds1307_datum(..) - Datum auf den DS1307 schreiben
 * PE:Pointer auf struct uhr
 * PA:--
 *///---------------------------------------------------------------
void set_ds1307_datum(uhr *datum_pointer) // Datum auf DS1307 schreiben
{
     426:	1f 93       	push	r17
     428:	cf 93       	push	r28
     42a:	df 93       	push	r29
     42c:	ec 01       	movw	r28, r24
    uint8_t ret;
    ret = i2c_start(DS1307_ADRESSE + I2C_WRITE); // write start auf DS1307 schreiben
     42e:	80 ed       	ldi	r24, 0xD0	; 208
     430:	0e 94 47 04 	call	0x88e	; 0x88e <i2c_start>
    if (ret)
     434:	88 23       	and	r24, r24
     436:	11 f5       	brne	.+68     	; 0x47c <set_ds1307_datum+0x56>
        i2c_stop(); // Bus stoppen
        error_func(); // Error handler aufrunfen
    }
    else
    {
        i2c_write(0x03); //Pointer auf Wochentag Register
     438:	83 e0       	ldi	r24, 0x03	; 3
     43a:	0e 94 9e 04 	call	0x93c	; 0x93c <i2c_write>
        i2c_write(datum_pointer->wochentag);
     43e:	8c 81       	ldd	r24, Y+4	; 0x04
     440:	0e 94 9e 04 	call	0x93c	; 0x93c <i2c_write>
        i2c_write((datum_pointer->tag % 10) | (datum_pointer->tag / 10) << 4); // BCD-Code in BCD für DS1307 umrechnen und senden
     444:	8b 81       	ldd	r24, Y+3	; 0x03
     446:	1a e0       	ldi	r17, 0x0A	; 10
     448:	61 2f       	mov	r22, r17
     44a:	0e 94 c0 10 	call	0x2180	; 0x2180 <__udivmodqi4>
     44e:	82 95       	swap	r24
     450:	80 7f       	andi	r24, 0xF0	; 240
     452:	89 2b       	or	r24, r25
     454:	0e 94 9e 04 	call	0x93c	; 0x93c <i2c_write>
        i2c_write((datum_pointer->monat % 10) | ((datum_pointer->monat / 10) << 4));
     458:	8d 81       	ldd	r24, Y+5	; 0x05
     45a:	61 2f       	mov	r22, r17
     45c:	0e 94 c0 10 	call	0x2180	; 0x2180 <__udivmodqi4>
     460:	82 95       	swap	r24
     462:	80 7f       	andi	r24, 0xF0	; 240
     464:	89 2b       	or	r24, r25
     466:	0e 94 9e 04 	call	0x93c	; 0x93c <i2c_write>
        i2c_write((datum_pointer->jahr % 10) | ((datum_pointer->jahr / 10) << 4));
     46a:	8e 81       	ldd	r24, Y+6	; 0x06
     46c:	61 2f       	mov	r22, r17
     46e:	0e 94 c0 10 	call	0x2180	; 0x2180 <__udivmodqi4>
     472:	82 95       	swap	r24
     474:	80 7f       	andi	r24, 0xF0	; 240
     476:	89 2b       	or	r24, r25
     478:	0e 94 9e 04 	call	0x93c	; 0x93c <i2c_write>
        i2c_stop(); // Buss stoppen
     47c:	0e 94 96 04 	call	0x92c	; 0x92c <i2c_stop>

    }

}
     480:	df 91       	pop	r29
     482:	cf 91       	pop	r28
     484:	1f 91       	pop	r17
     486:	08 95       	ret

00000488 <gettwi>:
uint16_t gettwi( uint8_t adres) // 16Bit vom I2C Slave einlesen
{
    uint8_t daten1 = 0x0;
    uint8_t daten2 = 0x0;
    uint16_t data;
    TWCR= (1<< TWINT) | (1<<TWSTA) | (1<<TWEN);
     488:	94 ea       	ldi	r25, 0xA4	; 164
     48a:	90 93 bc 00 	sts	0x00BC, r25
    loop_until_bit_is_set(TWCR,TWINT);
     48e:	90 91 bc 00 	lds	r25, 0x00BC
     492:	97 ff       	sbrs	r25, 7
     494:	fc cf       	rjmp	.-8      	; 0x48e <gettwi+0x6>
    TWDR = adres;
     496:	80 93 bb 00 	sts	0x00BB, r24
    TWCR=(1<<TWINT) | (1<<TWEN);
     49a:	84 e8       	ldi	r24, 0x84	; 132
     49c:	80 93 bc 00 	sts	0x00BC, r24
    loop_until_bit_is_set(TWCR,TWINT);
     4a0:	80 91 bc 00 	lds	r24, 0x00BC
     4a4:	87 ff       	sbrs	r24, 7
     4a6:	fc cf       	rjmp	.-8      	; 0x4a0 <gettwi+0x18>
    TWCR=(1<<TWINT) | (1<<TWEN);
     4a8:	84 e8       	ldi	r24, 0x84	; 132
     4aa:	80 93 bc 00 	sts	0x00BC, r24
    loop_until_bit_is_set(TWCR,TWINT);
     4ae:	80 91 bc 00 	lds	r24, 0x00BC
     4b2:	87 ff       	sbrs	r24, 7
     4b4:	fc cf       	rjmp	.-8      	; 0x4ae <gettwi+0x26>
    daten1  = TWDR;
     4b6:	30 91 bb 00 	lds	r19, 0x00BB
    TWCR =(1<<TWINT)|(1<<TWEN);
     4ba:	84 e8       	ldi	r24, 0x84	; 132
     4bc:	80 93 bc 00 	sts	0x00BC, r24
    loop_until_bit_is_set(TWCR,TWINT);
     4c0:	80 91 bc 00 	lds	r24, 0x00BC
     4c4:	87 ff       	sbrs	r24, 7
     4c6:	fc cf       	rjmp	.-8      	; 0x4c0 <gettwi+0x38>
    daten2=TWDR;
     4c8:	20 91 bb 00 	lds	r18, 0x00BB
    TWCR=(1<<TWINT) | (1<<TWEA) | (1<<TWEN);
     4cc:	84 ec       	ldi	r24, 0xC4	; 196
     4ce:	80 93 bc 00 	sts	0x00BC, r24
    loop_until_bit_is_set(TWCR,TWINT);
     4d2:	80 91 bc 00 	lds	r24, 0x00BC
     4d6:	87 ff       	sbrs	r24, 7
     4d8:	fc cf       	rjmp	.-8      	; 0x4d2 <gettwi+0x4a>
    TWCR=(1<<TWINT) | (1<<TWSTO) | (1<<TWEN);
     4da:	84 e9       	ldi	r24, 0x94	; 148
     4dc:	80 93 bc 00 	sts	0x00BC, r24
    data = daten1;
    data = data << 8;
     4e0:	93 2f       	mov	r25, r19
     4e2:	80 e0       	ldi	r24, 0x00	; 0
    data = data | daten2;
     4e4:	30 e0       	ldi	r19, 0x00	; 0
     4e6:	28 2b       	or	r18, r24
     4e8:	39 2b       	or	r19, r25
    return data;
}
     4ea:	c9 01       	movw	r24, r18
     4ec:	08 95       	ret

000004ee <lcd_write_i2c>:
    lcd_command(LCD_DISPLAYON);							//-	Display on
}

//-	Write data to i2c
void lcd_write_i2c(unsigned char value)
{
     4ee:	1f 93       	push	r17
     4f0:	18 2f       	mov	r17, r24
    i2c_start_wait(LCD_I2C_DEVICE+I2C_WRITE);
     4f2:	80 e7       	ldi	r24, 0x70	; 112
     4f4:	0e 94 6c 04 	call	0x8d8	; 0x8d8 <i2c_start_wait>

    if (backlight)
     4f8:	20 91 00 01 	lds	r18, 0x0100
     4fc:	30 91 01 01 	lds	r19, 0x0101
     500:	21 15       	cp	r18, r1
     502:	31 05       	cpc	r19, r1
     504:	19 f0       	breq	.+6      	; 0x50c <lcd_write_i2c+0x1e>
    {
        value |= (1 << LCD_BL_PIN);
     506:	81 2f       	mov	r24, r17
     508:	80 64       	ori	r24, 0x40	; 64
     50a:	02 c0       	rjmp	.+4      	; 0x510 <lcd_write_i2c+0x22>
    }
    else
    {
        value &= ~(1 << LCD_BL_PIN);
     50c:	81 2f       	mov	r24, r17
     50e:	8f 7b       	andi	r24, 0xBF	; 191
    }

    i2c_write(value);
     510:	0e 94 9e 04 	call	0x93c	; 0x93c <i2c_write>
    i2c_stop();
     514:	0e 94 96 04 	call	0x92c	; 0x92c <i2c_stop>
}
     518:	1f 91       	pop	r17
     51a:	08 95       	ret

0000051c <lcd_write>:

//-	Write byte to display with toggle of enable-bit
void lcd_write(unsigned char value)
{
     51c:	1f 93       	push	r17
    lcd_write_i2c(value | LCD_E);		//-	Set enable to high
     51e:	18 2f       	mov	r17, r24
     520:	10 68       	ori	r17, 0x80	; 128
     522:	81 2f       	mov	r24, r17
     524:	0e 94 77 02 	call	0x4ee	; 0x4ee <lcd_write_i2c>
    lcd_write_i2c(value | LCD_E);		//-	Send data, keep enable high
     528:	81 2f       	mov	r24, r17
     52a:	0e 94 77 02 	call	0x4ee	; 0x4ee <lcd_write_i2c>
    lcd_write_i2c(value & (!LCD_E));	//-	Set enable to low
     52e:	80 e0       	ldi	r24, 0x00	; 0
     530:	0e 94 77 02 	call	0x4ee	; 0x4ee <lcd_write_i2c>
}
     534:	1f 91       	pop	r17
     536:	08 95       	ret

00000538 <lcd_putchar>:
    }
}

//-	Put char to cursor position
void lcd_putchar(unsigned char value)
{
     538:	1f 93       	push	r17
     53a:	18 2f       	mov	r17, r24
    unsigned char lcddata;
    if (value == 0xF5) lcddata = 0xF5;
    else lcddata = value;
    lcddata >>= 4;
     53c:	82 95       	swap	r24
     53e:	8f 70       	andi	r24, 0x0F	; 15
    lcddata |= LCD_RS;
    lcd_write(lcddata);
     540:	80 61       	ori	r24, 0x10	; 16
     542:	0e 94 8e 02 	call	0x51c	; 0x51c <lcd_write>
    lcddata = value;
    lcddata &= 0x0F;
     546:	81 2f       	mov	r24, r17
     548:	8f 70       	andi	r24, 0x0F	; 15
    lcddata |= LCD_RS;
    lcd_write(lcddata);
     54a:	80 61       	ori	r24, 0x10	; 16
     54c:	0e 94 8e 02 	call	0x51c	; 0x51c <lcd_write>
}
     550:	1f 91       	pop	r17
     552:	08 95       	ret

00000554 <lcd_print>:
        i++;
    }
}
//-	Print string to cursor position
void lcd_print(unsigned char *string)
{
     554:	1f 93       	push	r17
     556:	cf 93       	push	r28
     558:	df 93       	push	r29
     55a:	ec 01       	movw	r28, r24
    unsigned char i = 0;
     55c:	10 e0       	ldi	r17, 0x00	; 0
    while(string[i] != 0x00)
     55e:	03 c0       	rjmp	.+6      	; 0x566 <lcd_print+0x12>
    {
        lcd_putchar(string[i]);
     560:	0e 94 9c 02 	call	0x538	; 0x538 <lcd_putchar>
        i++;
     564:	1f 5f       	subi	r17, 0xFF	; 255
}
//-	Print string to cursor position
void lcd_print(unsigned char *string)
{
    unsigned char i = 0;
    while(string[i] != 0x00)
     566:	fe 01       	movw	r30, r28
     568:	e1 0f       	add	r30, r17
     56a:	f1 1d       	adc	r31, r1
     56c:	80 81       	ld	r24, Z
     56e:	88 23       	and	r24, r24
     570:	b9 f7       	brne	.-18     	; 0x560 <lcd_print+0xc>
    {
        lcd_putchar(string[i]);
        i++;
    }
}
     572:	df 91       	pop	r29
     574:	cf 91       	pop	r28
     576:	1f 91       	pop	r17
     578:	08 95       	ret

0000057a <lcd_printmenue>:
    lcd_write_i2c(value & (!LCD_E));	//-	Set enable to low
}

//-	Print string to cursor position
void lcd_printmenue(unsigned char *string)
{
     57a:	1f 93       	push	r17
     57c:	bc 01       	movw	r22, r24
    strcpy_P((char*)&TextBuffer[0], string);
     57e:	8c ed       	ldi	r24, 0xDC	; 220
     580:	91 e0       	ldi	r25, 0x01	; 1
     582:	0e 94 09 11 	call	0x2212	; 0x2212 <strcpy_P>
    //lcd_putchar(TextBuffer[0]);
    unsigned char i = 0;
     586:	10 e0       	ldi	r17, 0x00	; 0
    while(TextBuffer[i] != 0x00)
     588:	04 c0       	rjmp	.+8      	; 0x592 <lcd_printmenue+0x18>
    {
        lcd_putchar(TextBuffer[i]);
     58a:	80 81       	ld	r24, Z
     58c:	0e 94 9c 02 	call	0x538	; 0x538 <lcd_putchar>
        i++;
     590:	1f 5f       	subi	r17, 0xFF	; 255
void lcd_printmenue(unsigned char *string)
{
    strcpy_P((char*)&TextBuffer[0], string);
    //lcd_putchar(TextBuffer[0]);
    unsigned char i = 0;
    while(TextBuffer[i] != 0x00)
     592:	e1 2f       	mov	r30, r17
     594:	f0 e0       	ldi	r31, 0x00	; 0
     596:	e4 52       	subi	r30, 0x24	; 36
     598:	fe 4f       	sbci	r31, 0xFE	; 254
     59a:	80 81       	ld	r24, Z
     59c:	88 23       	and	r24, r24
     59e:	a9 f7       	brne	.-22     	; 0x58a <lcd_printmenue+0x10>
    {
        lcd_putchar(TextBuffer[i]);
        i++;
    }
}
     5a0:	1f 91       	pop	r17
     5a2:	08 95       	ret

000005a4 <lcd_gotolr>:
    return true;
}

//-	Go to position (line, row)
bool lcd_gotolr(unsigned char line, unsigned char row )
{
     5a4:	1f 93       	push	r17
     5a6:	16 2f       	mov	r17, r22
    unsigned char lcddata;

    if(line > LCD_LINES) return false;
     5a8:	85 30       	cpi	r24, 0x05	; 5
     5aa:	00 f5       	brcc	.+64     	; 0x5ec <lcd_gotolr+0x48>
    if(row > LCD_ROWS) return false;
     5ac:	65 31       	cpi	r22, 0x15	; 21
     5ae:	f0 f4       	brcc	.+60     	; 0x5ec <lcd_gotolr+0x48>
    if((line == 0) || (row == 0) ) return false;
     5b0:	88 23       	and	r24, r24
     5b2:	e1 f0       	breq	.+56     	; 0x5ec <lcd_gotolr+0x48>
     5b4:	66 23       	and	r22, r22
     5b6:	d1 f0       	breq	.+52     	; 0x5ec <lcd_gotolr+0x48>

    switch(line)
     5b8:	83 30       	cpi	r24, 0x03	; 3
     5ba:	41 f0       	breq	.+16     	; 0x5cc <lcd_gotolr+0x28>
     5bc:	84 30       	cpi	r24, 0x04	; 4
     5be:	41 f0       	breq	.+16     	; 0x5d0 <lcd_gotolr+0x2c>
     5c0:	82 30       	cpi	r24, 0x02	; 2
     5c2:	11 f0       	breq	.+4      	; 0x5c8 <lcd_gotolr+0x24>
    {
    case 1:
    {
        lcddata = (LCD_D7 << 4) |  (LCD_LINE1); //Adresse für erste Zeile berechnen
        lcddata = lcddata +(row-1);				//Offset für Spalte addieren, Spalte 0 basierend darum -1
     5c4:	11 58       	subi	r17, 0x81	; 129
        break;
     5c6:	05 c0       	rjmp	.+10     	; 0x5d2 <lcd_gotolr+0x2e>
    }
    case 2:
    {
        lcddata = (LCD_D7 << 4) |  (LCD_LINE2); //Adresse für zweit Zeile berechnen
        lcddata = lcddata +(row-1);				//Offset für Spalte addieren, Spalte 0 basierend darum -1
     5c8:	11 54       	subi	r17, 0x41	; 65
        break;
     5ca:	03 c0       	rjmp	.+6      	; 0x5d2 <lcd_gotolr+0x2e>
    }

    case 3:
    {
        lcddata = (LCD_D7 << 4) |  (LCD_LINE3); //Adresse für dritte Zeile berechnen
        lcddata = lcddata +(row-1);				//Offset für Spalte addieren, Spalte 0 basierend darum -1
     5cc:	1d 56       	subi	r17, 0x6D	; 109
        break;
     5ce:	01 c0       	rjmp	.+2      	; 0x5d2 <lcd_gotolr+0x2e>
    }
    case 4:
    {
        lcddata = (LCD_D7 << 4) |  (LCD_LINE4); //Adresse für vierte Zeile berechnen
        lcddata = lcddata +(row-1);				//Offset für Spalte addieren, Spalte 0 basierend darum -1
     5d0:	1d 52       	subi	r17, 0x2D	; 45
    }
    default:
        return 0;
    }

    lcd_write(LCD_E | (lcddata >> 4));				//oberes Nibble senden
     5d2:	81 2f       	mov	r24, r17
     5d4:	82 95       	swap	r24
     5d6:	8f 70       	andi	r24, 0x0F	; 15
     5d8:	80 68       	ori	r24, 0x80	; 128
     5da:	0e 94 8e 02 	call	0x51c	; 0x51c <lcd_write>
    lcd_write(LCD_E | (lcddata & 0x0F));				//unteres Nibble senden
     5de:	81 2f       	mov	r24, r17
     5e0:	8f 70       	andi	r24, 0x0F	; 15
     5e2:	80 68       	ori	r24, 0x80	; 128
     5e4:	0e 94 8e 02 	call	0x51c	; 0x51c <lcd_write>
    return true;
     5e8:	81 e0       	ldi	r24, 0x01	; 1
     5ea:	01 c0       	rjmp	.+2      	; 0x5ee <lcd_gotolr+0x4a>
{
    unsigned char lcddata;

    if(line > LCD_LINES) return false;
    if(row > LCD_ROWS) return false;
    if((line == 0) || (row == 0) ) return false;
     5ec:	80 e0       	ldi	r24, 0x00	; 0
    }

    lcd_write(LCD_E | (lcddata >> 4));				//oberes Nibble senden
    lcd_write(LCD_E | (lcddata & 0x0F));				//unteres Nibble senden
    return true;
}
     5ee:	1f 91       	pop	r17
     5f0:	08 95       	ret

000005f2 <lcd_printlr>:
    return true;
}

//-	Print string to position (line, row, string)
bool lcd_printlr(unsigned char line, unsigned char row, unsigned char *string)
{
     5f2:	cf 93       	push	r28
     5f4:	df 93       	push	r29
     5f6:	ea 01       	movw	r28, r20
    if(!lcd_gotolr(line, row)) return false;
     5f8:	0e 94 d2 02 	call	0x5a4	; 0x5a4 <lcd_gotolr>
     5fc:	88 23       	and	r24, r24
     5fe:	29 f0       	breq	.+10     	; 0x60a <lcd_printlr+0x18>
    lcd_print(string);
     600:	ce 01       	movw	r24, r28
     602:	0e 94 aa 02 	call	0x554	; 0x554 <lcd_print>

    return true;
     606:	81 e0       	ldi	r24, 0x01	; 1
     608:	01 c0       	rjmp	.+2      	; 0x60c <lcd_printlr+0x1a>
}

//-	Print string to position (line, row, string)
bool lcd_printlr(unsigned char line, unsigned char row, unsigned char *string)
{
    if(!lcd_gotolr(line, row)) return false;
     60a:	80 e0       	ldi	r24, 0x00	; 0
    lcd_print(string);

    return true;
}
     60c:	df 91       	pop	r29
     60e:	cf 91       	pop	r28
     610:	08 95       	ret

00000612 <lcd_putcharlr>:
    lcd_write(lcddata);
}

//-	Put char to position
bool lcd_putcharlr(unsigned char line, unsigned char row, unsigned char value)
{
     612:	df 93       	push	r29
     614:	cf 93       	push	r28
     616:	0f 92       	push	r0
     618:	cd b7       	in	r28, 0x3d	; 61
     61a:	de b7       	in	r29, 0x3e	; 62
    if(!lcd_gotolr(line, row)) return false;
     61c:	49 83       	std	Y+1, r20	; 0x01
     61e:	0e 94 d2 02 	call	0x5a4	; 0x5a4 <lcd_gotolr>
     622:	49 81       	ldd	r20, Y+1	; 0x01
     624:	88 23       	and	r24, r24
     626:	29 f0       	breq	.+10     	; 0x632 <lcd_putcharlr+0x20>
    lcd_putchar(value);
     628:	84 2f       	mov	r24, r20
     62a:	0e 94 9c 02 	call	0x538	; 0x538 <lcd_putchar>

    return true;
     62e:	81 e0       	ldi	r24, 0x01	; 1
     630:	01 c0       	rjmp	.+2      	; 0x634 <lcd_putcharlr+0x22>
}

//-	Put char to position
bool lcd_putcharlr(unsigned char line, unsigned char row, unsigned char value)
{
    if(!lcd_gotolr(line, row)) return false;
     632:	80 e0       	ldi	r24, 0x00	; 0
    lcd_putchar(value);

    return true;
}
     634:	0f 90       	pop	r0
     636:	cf 91       	pop	r28
     638:	df 91       	pop	r29
     63a:	08 95       	ret

0000063c <lcd_printlrc>:
    return true;
}

//-	Print string to position (If string is longer than LCD_ROWS continue in next line)(line, row, string)
bool lcd_printlrc(unsigned char line, unsigned char row, unsigned char *string)
{
     63c:	ff 92       	push	r15
     63e:	0f 93       	push	r16
     640:	1f 93       	push	r17
     642:	cf 93       	push	r28
     644:	df 93       	push	r29
     646:	08 2f       	mov	r16, r24
     648:	16 2f       	mov	r17, r22
     64a:	ea 01       	movw	r28, r20
    unsigned char i;

    for(i = 0; string[i] != 0x00; i++)
     64c:	ff 24       	eor	r15, r15
     64e:	0f c0       	rjmp	.+30     	; 0x66e <lcd_printlrc+0x32>
    {
        if(!lcd_putcharlr(line, row, string[i])) return false;
     650:	80 2f       	mov	r24, r16
     652:	61 2f       	mov	r22, r17
     654:	0e 94 09 03 	call	0x612	; 0x612 <lcd_putcharlr>
     658:	88 23       	and	r24, r24
     65a:	89 f0       	breq	.+34     	; 0x67e <lcd_printlrc+0x42>
        row++;
     65c:	1f 5f       	subi	r17, 0xFF	; 255
        if(row > LCD_ROWS)
     65e:	15 31       	cpi	r17, 0x15	; 21
     660:	10 f0       	brcs	.+4      	; 0x666 <lcd_printlrc+0x2a>
        {
            line++;
     662:	0f 5f       	subi	r16, 0xFF	; 255
            row = 1;
     664:	11 e0       	ldi	r17, 0x01	; 1
        }
        if(line > LCD_LINES)
     666:	05 30       	cpi	r16, 0x05	; 5
     668:	08 f0       	brcs	.+2      	; 0x66c <lcd_printlrc+0x30>
        {
            line = 1;
     66a:	01 e0       	ldi	r16, 0x01	; 1
//-	Print string to position (If string is longer than LCD_ROWS continue in next line)(line, row, string)
bool lcd_printlrc(unsigned char line, unsigned char row, unsigned char *string)
{
    unsigned char i;

    for(i = 0; string[i] != 0x00; i++)
     66c:	f3 94       	inc	r15
     66e:	fe 01       	movw	r30, r28
     670:	ef 0d       	add	r30, r15
     672:	f1 1d       	adc	r31, r1
     674:	40 81       	ld	r20, Z
     676:	44 23       	and	r20, r20
     678:	59 f7       	brne	.-42     	; 0x650 <lcd_printlrc+0x14>
        if(line > LCD_LINES)
        {
            line = 1;
        }
    }
    return true;
     67a:	81 e0       	ldi	r24, 0x01	; 1
     67c:	01 c0       	rjmp	.+2      	; 0x680 <lcd_printlrc+0x44>
{
    unsigned char i;

    for(i = 0; string[i] != 0x00; i++)
    {
        if(!lcd_putcharlr(line, row, string[i])) return false;
     67e:	80 e0       	ldi	r24, 0x00	; 0
        {
            line = 1;
        }
    }
    return true;
}
     680:	df 91       	pop	r29
     682:	cf 91       	pop	r28
     684:	1f 91       	pop	r17
     686:	0f 91       	pop	r16
     688:	ff 90       	pop	r15
     68a:	08 95       	ret

0000068c <lcd_printlc>:
    lcd_wait_ms(1);			// bei einigen Komandos scheint eine kleine Pause notwendig zu sein...
}

//-	Print string to position (If string is longer than LCD_ROWS overwrite first chars)(line, row, string)
bool lcd_printlc(unsigned char line, unsigned char row, unsigned char *string)
{
     68c:	ff 92       	push	r15
     68e:	0f 93       	push	r16
     690:	1f 93       	push	r17
     692:	cf 93       	push	r28
     694:	df 93       	push	r29
     696:	08 2f       	mov	r16, r24
     698:	16 2f       	mov	r17, r22
     69a:	ea 01       	movw	r28, r20
    unsigned char i;

    for(i = 0; string[i] != 0x00; i++)
     69c:	ff 24       	eor	r15, r15
     69e:	0b c0       	rjmp	.+22     	; 0x6b6 <lcd_printlc+0x2a>
    {
        if (!lcd_putcharlr(line, row, string[i])) return false;
     6a0:	80 2f       	mov	r24, r16
     6a2:	61 2f       	mov	r22, r17
     6a4:	0e 94 09 03 	call	0x612	; 0x612 <lcd_putcharlr>
     6a8:	88 23       	and	r24, r24
     6aa:	69 f0       	breq	.+26     	; 0x6c6 <lcd_printlc+0x3a>
        row++;
     6ac:	1f 5f       	subi	r17, 0xFF	; 255
        if(row > LCD_ROWS)
     6ae:	15 31       	cpi	r17, 0x15	; 21
     6b0:	08 f0       	brcs	.+2      	; 0x6b4 <lcd_printlc+0x28>
        {
            row = 1;
     6b2:	11 e0       	ldi	r17, 0x01	; 1
//-	Print string to position (If string is longer than LCD_ROWS overwrite first chars)(line, row, string)
bool lcd_printlc(unsigned char line, unsigned char row, unsigned char *string)
{
    unsigned char i;

    for(i = 0; string[i] != 0x00; i++)
     6b4:	f3 94       	inc	r15
     6b6:	fe 01       	movw	r30, r28
     6b8:	ef 0d       	add	r30, r15
     6ba:	f1 1d       	adc	r31, r1
     6bc:	40 81       	ld	r20, Z
     6be:	44 23       	and	r20, r20
     6c0:	79 f7       	brne	.-34     	; 0x6a0 <lcd_printlc+0x14>
        if(row > LCD_ROWS)
        {
            row = 1;
        }
    }
    return true;
     6c2:	81 e0       	ldi	r24, 0x01	; 1
     6c4:	01 c0       	rjmp	.+2      	; 0x6c8 <lcd_printlc+0x3c>
{
    unsigned char i;

    for(i = 0; string[i] != 0x00; i++)
    {
        if (!lcd_putcharlr(line, row, string[i])) return false;
     6c6:	80 e0       	ldi	r24, 0x00	; 0
        {
            row = 1;
        }
    }
    return true;
}
     6c8:	df 91       	pop	r29
     6ca:	cf 91       	pop	r28
     6cc:	1f 91       	pop	r17
     6ce:	0f 91       	pop	r16
     6d0:	ff 90       	pop	r15
     6d2:	08 95       	ret

000006d4 <lcd_read_i2c>:
    else return true;
}

//-	Read data from i2c
unsigned char lcd_read_i2c(void)
{
     6d4:	df 93       	push	r29
     6d6:	cf 93       	push	r28
     6d8:	0f 92       	push	r0
     6da:	cd b7       	in	r28, 0x3d	; 61
     6dc:	de b7       	in	r29, 0x3e	; 62
    unsigned char lcddata = 0x00;
    i2c_start_wait(LCD_I2C_DEVICE+I2C_READ);
     6de:	81 e7       	ldi	r24, 0x71	; 113
     6e0:	0e 94 6c 04 	call	0x8d8	; 0x8d8 <i2c_start_wait>
    lcddata = i2c_readNak();
     6e4:	0e 94 b9 04 	call	0x972	; 0x972 <i2c_readNak>
    i2c_stop();
     6e8:	89 83       	std	Y+1, r24	; 0x01
     6ea:	0e 94 96 04 	call	0x92c	; 0x92c <i2c_stop>
    return lcddata;
}
     6ee:	89 81       	ldd	r24, Y+1	; 0x01
     6f0:	0f 90       	pop	r0
     6f2:	cf 91       	pop	r28
     6f4:	df 91       	pop	r29
     6f6:	08 95       	ret

000006f8 <lcd_read>:

//-	Read data from display over i2c (second nibble corresponds to highbyte or lowbyte)
unsigned char lcd_read(bool mode)
{
     6f8:	1f 93       	push	r17
    unsigned char lcddata;
    if(mode == LCD_DATA)
     6fa:	88 23       	and	r24, r24
     6fc:	11 f0       	breq	.+4      	; 0x702 <lcd_read+0xa>
        lcd_write_i2c(LCD_E | LCD_RS | LCD_RW | LCD_D4 | LCD_D5 | LCD_D6 | LCD_D7);
     6fe:	8f eb       	ldi	r24, 0xBF	; 191
     700:	01 c0       	rjmp	.+2      	; 0x704 <lcd_read+0xc>
    else
        lcd_write_i2c(LCD_E | LCD_RW | LCD_D4 | LCD_D5 | LCD_D6 | LCD_D7);
     702:	8f ea       	ldi	r24, 0xAF	; 175
     704:	0e 94 77 02 	call	0x4ee	; 0x4ee <lcd_write_i2c>

    lcddata = lcd_read_i2c();
     708:	0e 94 6a 03 	call	0x6d4	; 0x6d4 <lcd_read_i2c>
     70c:	18 2f       	mov	r17, r24
    lcd_write_i2c(0x00);
     70e:	80 e0       	ldi	r24, 0x00	; 0
     710:	0e 94 77 02 	call	0x4ee	; 0x4ee <lcd_write_i2c>
    return lcddata;
}
     714:	81 2f       	mov	r24, r17
     716:	1f 91       	pop	r17
     718:	08 95       	ret

0000071a <lcd_getbyte>:

//-	Read one complete byte over i2c from display
unsigned char lcd_getbyte(bool mode)
{
     71a:	0f 93       	push	r16
     71c:	1f 93       	push	r17
     71e:	18 2f       	mov	r17, r24
    unsigned char hib, lob;
    hib = lcd_read(mode);
     720:	0e 94 7c 03 	call	0x6f8	; 0x6f8 <lcd_read>
     724:	08 2f       	mov	r16, r24
    lob = lcd_read(mode);
     726:	81 2f       	mov	r24, r17
     728:	0e 94 7c 03 	call	0x6f8	; 0x6f8 <lcd_read>
    return (hib << 4) + (lob & 0x0F);
     72c:	8f 70       	andi	r24, 0x0F	; 15
     72e:	02 95       	swap	r16
     730:	00 7f       	andi	r16, 0xF0	; 240
}
     732:	80 0f       	add	r24, r16
     734:	1f 91       	pop	r17
     736:	0f 91       	pop	r16
     738:	08 95       	ret

0000073a <lcd_getlr>:

//-	Get line and row (target byte for line, target byte for row)
bool lcd_getlr(unsigned char *line, unsigned char *row)
{
     73a:	0f 93       	push	r16
     73c:	1f 93       	push	r17
     73e:	cf 93       	push	r28
     740:	df 93       	push	r29
     742:	ec 01       	movw	r28, r24
     744:	8b 01       	movw	r16, r22
    unsigned char lcddata, tmp;
    lcddata =	lcd_getbyte(LCD_ADDRESS);
     746:	80 e0       	ldi	r24, 0x00	; 0
     748:	0e 94 8d 03 	call	0x71a	; 0x71a <lcd_getbyte>
    if (lcddata & (1 << 7)) return false;
     74c:	87 fd       	sbrc	r24, 7
     74e:	1c c0       	rjmp	.+56     	; 0x788 <lcd_getlr+0x4e>
    tmp = lcddata;
    tmp &= 0xF0;
     750:	98 2f       	mov	r25, r24
     752:	90 7f       	andi	r25, 0xF0	; 240
    switch(tmp)
     754:	94 31       	cpi	r25, 0x14	; 20
     756:	71 f0       	breq	.+28     	; 0x774 <lcd_getlr+0x3a>
     758:	95 31       	cpi	r25, 0x15	; 21
     75a:	18 f4       	brcc	.+6      	; 0x762 <lcd_getlr+0x28>
     75c:	99 23       	and	r25, r25
     75e:	31 f0       	breq	.+12     	; 0x76c <lcd_getlr+0x32>
     760:	13 c0       	rjmp	.+38     	; 0x788 <lcd_getlr+0x4e>
     762:	90 34       	cpi	r25, 0x40	; 64
     764:	29 f0       	breq	.+10     	; 0x770 <lcd_getlr+0x36>
     766:	94 35       	cpi	r25, 0x54	; 84
     768:	79 f4       	brne	.+30     	; 0x788 <lcd_getlr+0x4e>
     76a:	06 c0       	rjmp	.+12     	; 0x778 <lcd_getlr+0x3e>
    {
    case LCD_LINE1:
        *line = 1;
     76c:	91 e0       	ldi	r25, 0x01	; 1
     76e:	05 c0       	rjmp	.+10     	; 0x77a <lcd_getlr+0x40>
        break;
#if LCD_LINES>=2
    case LCD_LINE2:
        *line = 2;
     770:	92 e0       	ldi	r25, 0x02	; 2
     772:	03 c0       	rjmp	.+6      	; 0x77a <lcd_getlr+0x40>
        break;
#endif
#if LCD_LINES>=3
    case LCD_LINE3:
        *line = 3;
     774:	93 e0       	ldi	r25, 0x03	; 3
     776:	01 c0       	rjmp	.+2      	; 0x77a <lcd_getlr+0x40>
        break;
#endif
#if LCD_LINES>=4
    case LCD_LINE4:
        *line = 4;
     778:	94 e0       	ldi	r25, 0x04	; 4
     77a:	98 83       	st	Y, r25
        break;
#endif
    default:
        return false;
    }
    lcddata &= 0x0F;
     77c:	8f 70       	andi	r24, 0x0F	; 15
    *row = lcddata + 1;
     77e:	8f 5f       	subi	r24, 0xFF	; 255
     780:	f8 01       	movw	r30, r16
     782:	80 83       	st	Z, r24
    return true;
     784:	81 e0       	ldi	r24, 0x01	; 1
     786:	01 c0       	rjmp	.+2      	; 0x78a <lcd_getlr+0x50>
    case LCD_LINE4:
        *line = 4;
        break;
#endif
    default:
        return false;
     788:	80 e0       	ldi	r24, 0x00	; 0
    }
    lcddata &= 0x0F;
    *row = lcddata + 1;
    return true;
}
     78a:	df 91       	pop	r29
     78c:	cf 91       	pop	r28
     78e:	1f 91       	pop	r17
     790:	0f 91       	pop	r16
     792:	08 95       	ret

00000794 <lcd_nextline>:
    return true;
}

//-	Go to nextline (if next line > LCD_LINES return false)
bool lcd_nextline(void)
{
     794:	df 93       	push	r29
     796:	cf 93       	push	r28
     798:	00 d0       	rcall	.+0      	; 0x79a <lcd_nextline+0x6>
     79a:	cd b7       	in	r28, 0x3d	; 61
     79c:	de b7       	in	r29, 0x3e	; 62
    unsigned char line = 0x00, row = 0x00;
     79e:	19 82       	std	Y+1, r1	; 0x01
     7a0:	1a 82       	std	Y+2, r1	; 0x02
    lcd_getlr(&line, &row);
     7a2:	ce 01       	movw	r24, r28
     7a4:	01 96       	adiw	r24, 0x01	; 1
     7a6:	be 01       	movw	r22, r28
     7a8:	6e 5f       	subi	r22, 0xFE	; 254
     7aa:	7f 4f       	sbci	r23, 0xFF	; 255
     7ac:	0e 94 9d 03 	call	0x73a	; 0x73a <lcd_getlr>
    if (!lcd_gotolr(line + 1, 1)) return false;
     7b0:	89 81       	ldd	r24, Y+1	; 0x01
     7b2:	8f 5f       	subi	r24, 0xFF	; 255
     7b4:	61 e0       	ldi	r22, 0x01	; 1
     7b6:	0e 94 d2 02 	call	0x5a4	; 0x5a4 <lcd_gotolr>
    else return true;
}
     7ba:	0f 90       	pop	r0
     7bc:	0f 90       	pop	r0
     7be:	cf 91       	pop	r28
     7c0:	df 91       	pop	r29
     7c2:	08 95       	ret

000007c4 <lcd_busy>:
}

//-	Check if busy
bool lcd_busy(void)
{
    unsigned char state = lcd_getbyte(LCD_ADDRESS);
     7c4:	80 e0       	ldi	r24, 0x00	; 0
     7c6:	0e 94 8d 03 	call	0x71a	; 0x71a <lcd_getbyte>
    if (state & (1 << 7)) return true;
    else return false;
}
     7ca:	88 1f       	adc	r24, r24
     7cc:	88 27       	eor	r24, r24
     7ce:	88 1f       	adc	r24, r24
     7d0:	08 95       	ret

000007d2 <lcd_wait_us>:

//-	Wait some microseconds
void lcd_wait_us(unsigned short us)
{
    unsigned short i;
    for(i = 0; i < us; i++)
     7d2:	20 e0       	ldi	r18, 0x00	; 0
     7d4:	30 e0       	ldi	r19, 0x00	; 0
    can be achieved.
*/
void
_delay_loop_1(uint8_t __count)
{
	__asm__ volatile (
     7d6:	55 e0       	ldi	r21, 0x05	; 5
     7d8:	05 c0       	rjmp	.+10     	; 0x7e4 <lcd_wait_us+0x12>
     7da:	45 2f       	mov	r20, r21
     7dc:	4a 95       	dec	r20
     7de:	f1 f7       	brne	.-4      	; 0x7dc <lcd_wait_us+0xa>
     7e0:	2f 5f       	subi	r18, 0xFF	; 255
     7e2:	3f 4f       	sbci	r19, 0xFF	; 255
     7e4:	28 17       	cp	r18, r24
     7e6:	39 07       	cpc	r19, r25
     7e8:	c0 f3       	brcs	.-16     	; 0x7da <lcd_wait_us+0x8>
    {
        wait1us;
    }
}
     7ea:	08 95       	ret

000007ec <lcd_wait_ms>:

//-	Wait some milliseconds
void lcd_wait_ms(unsigned short ms)
{
    unsigned short i;
    for(i = 0; i < ms; i++)
     7ec:	20 e0       	ldi	r18, 0x00	; 0
     7ee:	30 e0       	ldi	r19, 0x00	; 0
    milliseconds can be achieved.
 */
void
_delay_loop_2(uint16_t __count)
{
	__asm__ volatile (
     7f0:	40 ea       	ldi	r20, 0xA0	; 160
     7f2:	5f e0       	ldi	r21, 0x0F	; 15
     7f4:	05 c0       	rjmp	.+10     	; 0x800 <lcd_wait_ms+0x14>
     7f6:	fa 01       	movw	r30, r20
     7f8:	31 97       	sbiw	r30, 0x01	; 1
     7fa:	f1 f7       	brne	.-4      	; 0x7f8 <lcd_wait_ms+0xc>
     7fc:	2f 5f       	subi	r18, 0xFF	; 255
     7fe:	3f 4f       	sbci	r19, 0xFF	; 255
     800:	28 17       	cp	r18, r24
     802:	39 07       	cpc	r19, r25
     804:	c0 f3       	brcs	.-16     	; 0x7f6 <lcd_wait_ms+0xa>
    {
        wait1ms;
    }
}
     806:	08 95       	ret

00000808 <lcd_command>:
    return true;
}

//-	Issue a command to the display (use the defined commands above)
void lcd_command(unsigned char command)
{
     808:	1f 93       	push	r17
     80a:	18 2f       	mov	r17, r24
    unsigned char lcddata;
    lcddata = command;
    lcddata >>=  4;
    lcd_write(lcddata);
     80c:	82 95       	swap	r24
     80e:	8f 70       	andi	r24, 0x0F	; 15
     810:	0e 94 8e 02 	call	0x51c	; 0x51c <lcd_write>
    lcddata = command;
    lcddata &= 0x0F;
    lcd_write(lcddata);
     814:	81 2f       	mov	r24, r17
     816:	8f 70       	andi	r24, 0x0F	; 15
     818:	0e 94 8e 02 	call	0x51c	; 0x51c <lcd_write>
    lcd_wait_ms(1);			// bei einigen Komandos scheint eine kleine Pause notwendig zu sein...
     81c:	81 e0       	ldi	r24, 0x01	; 1
     81e:	90 e0       	ldi	r25, 0x00	; 0
     820:	0e 94 f6 03 	call	0x7ec	; 0x7ec <lcd_wait_ms>
}
     824:	1f 91       	pop	r17
     826:	08 95       	ret

00000828 <lcd_init>:
static volatile char     TextBuffer[20] = {};

//-	Display initialization sequence
void lcd_init(void)
{
    lcd_wait_ms(16);			//-	Wait for more than 15ms after VDD rises to 4.5V
     828:	80 e1       	ldi	r24, 0x10	; 16
     82a:	90 e0       	ldi	r25, 0x00	; 0
     82c:	0e 94 f6 03 	call	0x7ec	; 0x7ec <lcd_wait_ms>
    lcd_write(LCD_D5 | LCD_D4);	//-	Set interface to 8-bit
     830:	83 e0       	ldi	r24, 0x03	; 3
     832:	0e 94 8e 02 	call	0x51c	; 0x51c <lcd_write>
    lcd_wait_ms(5);				//-	Wait for more than 4.1ms
     836:	85 e0       	ldi	r24, 0x05	; 5
     838:	90 e0       	ldi	r25, 0x00	; 0
     83a:	0e 94 f6 03 	call	0x7ec	; 0x7ec <lcd_wait_ms>
    lcd_write(LCD_D5 | LCD_D4);	//-	Set interface to 8-bit
     83e:	83 e0       	ldi	r24, 0x03	; 3
     840:	0e 94 8e 02 	call	0x51c	; 0x51c <lcd_write>
    lcd_wait_us(101);			//-	Wait for more than 100us
     844:	85 e6       	ldi	r24, 0x65	; 101
     846:	90 e0       	ldi	r25, 0x00	; 0
     848:	0e 94 e9 03 	call	0x7d2	; 0x7d2 <lcd_wait_us>
    lcd_write(LCD_D5 | LCD_D4);	//-	Set interface to 8-bit
     84c:	83 e0       	ldi	r24, 0x03	; 3
     84e:	0e 94 8e 02 	call	0x51c	; 0x51c <lcd_write>
    lcd_write(LCD_D5);			//-	Set interface to 4-bit
     852:	82 e0       	ldi	r24, 0x02	; 2
     854:	0e 94 8e 02 	call	0x51c	; 0x51c <lcd_write>

    //- From now on in 4-bit-Mode
    lcd_command(LCD_4BIT | LCD_2LINE | LCD_5X7);		//-	2-Lines, 5x7-Matrix
     858:	88 e2       	ldi	r24, 0x28	; 40
     85a:	0e 94 04 04 	call	0x808	; 0x808 <lcd_command>
    lcd_command(LCD_DISPLAYOFF);						//-	Display off
     85e:	88 e0       	ldi	r24, 0x08	; 8
     860:	0e 94 04 04 	call	0x808	; 0x808 <lcd_command>
    lcd_command(LCD_CLEAR);								//-	Clear Screen
     864:	81 e0       	ldi	r24, 0x01	; 1
     866:	0e 94 04 04 	call	0x808	; 0x808 <lcd_command>
    lcd_command(LCD_INCREASE | LCD_DISPLAYSHIFTOFF);	//-	Entrymode (Display Shift: off, Increment Address Counter)
     86a:	86 e0       	ldi	r24, 0x06	; 6
     86c:	0e 94 04 04 	call	0x808	; 0x808 <lcd_command>
    lcd_command(LCD_DISPLAYON);							//-	Display on
     870:	8c e0       	ldi	r24, 0x0C	; 12
     872:	0e 94 04 04 	call	0x808	; 0x808 <lcd_command>
}
     876:	08 95       	ret

00000878 <lcd_backlight>:
}


void lcd_backlight(int bl)
{
    backlight = bl;
     878:	90 93 01 01 	sts	0x0101, r25
     87c:	80 93 00 01 	sts	0x0100, r24
}
     880:	08 95       	ret

00000882 <i2c_init>:
*************************************************************************/
void i2c_init(void)
{
    /* initialize TWI clock: 100 kHz clock, TWPS = 0 => prescaler = 1 */

    TWSR = 0;                         /* no prescaler */
     882:	10 92 b9 00 	sts	0x00B9, r1
    TWBR = ((F_CPU/SCL_CLOCK)-16)/2;  /* must be > 10 for stable operation */
     886:	88 e4       	ldi	r24, 0x48	; 72
     888:	80 93 b8 00 	sts	0x00B8, r24

}/* i2c_init */
     88c:	08 95       	ret

0000088e <i2c_start>:
unsigned char i2c_start(unsigned char address)
{
    uint8_t   twst;

    // send START condition
    TWCR = (1<<TWINT) | (1<<TWSTA) | (1<<TWEN);
     88e:	94 ea       	ldi	r25, 0xA4	; 164
     890:	90 93 bc 00 	sts	0x00BC, r25

    // wait until transmission completed
    while(!(TWCR & (1<<TWINT)));
     894:	90 91 bc 00 	lds	r25, 0x00BC
     898:	97 ff       	sbrs	r25, 7
     89a:	fc cf       	rjmp	.-8      	; 0x894 <i2c_start+0x6>

    // check value of TWI Status Register. Mask prescaler bits.
    twst = TW_STATUS & 0xF8;
     89c:	90 91 b9 00 	lds	r25, 0x00B9
     8a0:	98 7f       	andi	r25, 0xF8	; 248
    if ( (twst != TW_START) && (twst != TW_REP_START)) return 1;
     8a2:	98 30       	cpi	r25, 0x08	; 8
     8a4:	11 f0       	breq	.+4      	; 0x8aa <i2c_start+0x1c>
     8a6:	90 31       	cpi	r25, 0x10	; 16
     8a8:	99 f4       	brne	.+38     	; 0x8d0 <i2c_start+0x42>

    // send device address
    TWDR = address;
     8aa:	80 93 bb 00 	sts	0x00BB, r24
    TWCR = (1<<TWINT) | (1<<TWEN);
     8ae:	84 e8       	ldi	r24, 0x84	; 132
     8b0:	80 93 bc 00 	sts	0x00BC, r24

    // wail until transmission completed and ACK/NACK has been received
    while(!(TWCR & (1<<TWINT)));
     8b4:	80 91 bc 00 	lds	r24, 0x00BC
     8b8:	87 ff       	sbrs	r24, 7
     8ba:	fc cf       	rjmp	.-8      	; 0x8b4 <i2c_start+0x26>

    // check value of TWI Status Register. Mask prescaler bits.
    twst = TW_STATUS & 0xF8;
     8bc:	90 91 b9 00 	lds	r25, 0x00B9
     8c0:	98 7f       	andi	r25, 0xF8	; 248
    if ( (twst != TW_MT_SLA_ACK) && (twst != TW_MR_SLA_ACK) ) return 1;
     8c2:	98 31       	cpi	r25, 0x18	; 24
     8c4:	39 f0       	breq	.+14     	; 0x8d4 <i2c_start+0x46>

/*************************************************************************
  Issues a start condition and sends address and transfer direction.
  return 0 = device accessible, 1= failed to access device
*************************************************************************/
unsigned char i2c_start(unsigned char address)
     8c6:	81 e0       	ldi	r24, 0x01	; 1
     8c8:	90 34       	cpi	r25, 0x40	; 64
     8ca:	29 f4       	brne	.+10     	; 0x8d6 <i2c_start+0x48>
     8cc:	80 e0       	ldi	r24, 0x00	; 0
     8ce:	08 95       	ret
    // wait until transmission completed
    while(!(TWCR & (1<<TWINT)));

    // check value of TWI Status Register. Mask prescaler bits.
    twst = TW_STATUS & 0xF8;
    if ( (twst != TW_START) && (twst != TW_REP_START)) return 1;
     8d0:	81 e0       	ldi	r24, 0x01	; 1
     8d2:	08 95       	ret

    // check value of TWI Status Register. Mask prescaler bits.
    twst = TW_STATUS & 0xF8;
    if ( (twst != TW_MT_SLA_ACK) && (twst != TW_MR_SLA_ACK) ) return 1;

    return 0;
     8d4:	80 e0       	ldi	r24, 0x00	; 0

}/* i2c_start */
     8d6:	08 95       	ret

000008d8 <i2c_start_wait>:


    while ( 1 )
    {
        // send START condition
        TWCR = (1<<TWINT) | (1<<TWSTA) | (1<<TWEN);
     8d8:	44 ea       	ldi	r20, 0xA4	; 164
        twst = TW_STATUS & 0xF8;
        if ( (twst != TW_START) && (twst != TW_REP_START)) continue;

        // send device address
        TWDR = address;
        TWCR = (1<<TWINT) | (1<<TWEN);
     8da:	34 e8       	ldi	r19, 0x84	; 132
        // check value of TWI Status Register. Mask prescaler bits.
        twst = TW_STATUS & 0xF8;
        if ( (twst == TW_MT_SLA_NACK )||(twst ==TW_MR_DATA_NACK) )
        {
            /* device busy, send stop condition to terminate write operation */
            TWCR = (1<<TWINT) | (1<<TWEN) | (1<<TWSTO);
     8dc:	24 e9       	ldi	r18, 0x94	; 148


    while ( 1 )
    {
        // send START condition
        TWCR = (1<<TWINT) | (1<<TWSTA) | (1<<TWEN);
     8de:	40 93 bc 00 	sts	0x00BC, r20

        // wait until transmission completed
        while(!(TWCR & (1<<TWINT)));
     8e2:	90 91 bc 00 	lds	r25, 0x00BC
     8e6:	97 ff       	sbrs	r25, 7
     8e8:	fc cf       	rjmp	.-8      	; 0x8e2 <i2c_start_wait+0xa>

        // check value of TWI Status Register. Mask prescaler bits.
        twst = TW_STATUS & 0xF8;
     8ea:	90 91 b9 00 	lds	r25, 0x00B9
     8ee:	98 7f       	andi	r25, 0xF8	; 248
        if ( (twst != TW_START) && (twst != TW_REP_START)) continue;
     8f0:	98 30       	cpi	r25, 0x08	; 8
     8f2:	11 f0       	breq	.+4      	; 0x8f8 <i2c_start_wait+0x20>
     8f4:	90 31       	cpi	r25, 0x10	; 16
     8f6:	99 f7       	brne	.-26     	; 0x8de <i2c_start_wait+0x6>

        // send device address
        TWDR = address;
     8f8:	80 93 bb 00 	sts	0x00BB, r24
        TWCR = (1<<TWINT) | (1<<TWEN);
     8fc:	30 93 bc 00 	sts	0x00BC, r19

        // wail until transmission completed
        while(!(TWCR & (1<<TWINT)));
     900:	90 91 bc 00 	lds	r25, 0x00BC
     904:	97 ff       	sbrs	r25, 7
     906:	fc cf       	rjmp	.-8      	; 0x900 <i2c_start_wait+0x28>

        // check value of TWI Status Register. Mask prescaler bits.
        twst = TW_STATUS & 0xF8;
     908:	90 91 b9 00 	lds	r25, 0x00B9
     90c:	98 7f       	andi	r25, 0xF8	; 248
        if ( (twst == TW_MT_SLA_NACK )||(twst ==TW_MR_DATA_NACK) )
     90e:	90 32       	cpi	r25, 0x20	; 32
     910:	11 f0       	breq	.+4      	; 0x916 <i2c_start_wait+0x3e>
     912:	98 35       	cpi	r25, 0x58	; 88
     914:	39 f4       	brne	.+14     	; 0x924 <i2c_start_wait+0x4c>
        {
            /* device busy, send stop condition to terminate write operation */
            TWCR = (1<<TWINT) | (1<<TWEN) | (1<<TWSTO);
     916:	20 93 bc 00 	sts	0x00BC, r18

            // wait until stop condition is executed and bus released
            while(TWCR & (1<<TWSTO));
     91a:	90 91 bc 00 	lds	r25, 0x00BC
     91e:	94 fd       	sbrc	r25, 4
     920:	fc cf       	rjmp	.-8      	; 0x91a <i2c_start_wait+0x42>
     922:	dd cf       	rjmp	.-70     	; 0x8de <i2c_start_wait+0x6>
     924:	08 95       	ret

00000926 <i2c_rep_start>:
 Return:  0 device accessible
          1 failed to access device
*************************************************************************/
unsigned char i2c_rep_start(unsigned char address)
{
    return i2c_start( address );
     926:	0e 94 47 04 	call	0x88e	; 0x88e <i2c_start>

}/* i2c_rep_start */
     92a:	08 95       	ret

0000092c <i2c_stop>:
 Terminates the data transfer and releases the I2C bus
*************************************************************************/
void i2c_stop(void)
{
    /* send stop condition */
    TWCR = (1<<TWINT) | (1<<TWEN) | (1<<TWSTO);
     92c:	84 e9       	ldi	r24, 0x94	; 148
     92e:	80 93 bc 00 	sts	0x00BC, r24

    // wait until stop condition is executed and bus released
    while(TWCR & (1<<TWSTO));
     932:	80 91 bc 00 	lds	r24, 0x00BC
     936:	84 fd       	sbrc	r24, 4
     938:	fc cf       	rjmp	.-8      	; 0x932 <i2c_stop+0x6>

}/* i2c_stop */
     93a:	08 95       	ret

0000093c <i2c_write>:
unsigned char i2c_write( unsigned char data )
{
    uint8_t   twst;

    // send data to the previously addressed device
    TWDR = data;
     93c:	80 93 bb 00 	sts	0x00BB, r24
    TWCR = (1<<TWINT) | (1<<TWEN);
     940:	84 e8       	ldi	r24, 0x84	; 132
     942:	80 93 bc 00 	sts	0x00BC, r24

    // wait until transmission completed
    while(!(TWCR & (1<<TWINT)));
     946:	80 91 bc 00 	lds	r24, 0x00BC
     94a:	87 ff       	sbrs	r24, 7
     94c:	fc cf       	rjmp	.-8      	; 0x946 <i2c_write+0xa>

    // check value of TWI Status Register. Mask prescaler bits
    twst = TW_STATUS & 0xF8;
     94e:	90 91 b9 00 	lds	r25, 0x00B9
     952:	98 7f       	andi	r25, 0xF8	; 248
    if( twst != TW_MT_DATA_ACK) return 1;
     954:	81 e0       	ldi	r24, 0x01	; 1
     956:	98 32       	cpi	r25, 0x28	; 40
     958:	09 f4       	brne	.+2      	; 0x95c <i2c_write+0x20>
     95a:	80 e0       	ldi	r24, 0x00	; 0
    return 0;

}/* i2c_write */
     95c:	08 95       	ret

0000095e <i2c_readAck>:

 Return:  byte read from I2C device
*************************************************************************/
unsigned char i2c_readAck(void)
{
    TWCR = (1<<TWINT) | (1<<TWEN) | (1<<TWEA);
     95e:	84 ec       	ldi	r24, 0xC4	; 196
     960:	80 93 bc 00 	sts	0x00BC, r24
    while(!(TWCR & (1<<TWINT)));
     964:	80 91 bc 00 	lds	r24, 0x00BC
     968:	87 ff       	sbrs	r24, 7
     96a:	fc cf       	rjmp	.-8      	; 0x964 <i2c_readAck+0x6>

    return TWDR;
     96c:	80 91 bb 00 	lds	r24, 0x00BB

}/* i2c_readAck */
     970:	08 95       	ret

00000972 <i2c_readNak>:

 Return:  byte read from I2C device
*************************************************************************/
unsigned char i2c_readNak(void)
{
    TWCR = (1<<TWINT) | (1<<TWEN);
     972:	84 e8       	ldi	r24, 0x84	; 132
     974:	80 93 bc 00 	sts	0x00BC, r24
    while(!(TWCR & (1<<TWINT)));
     978:	80 91 bc 00 	lds	r24, 0x00BC
     97c:	87 ff       	sbrs	r24, 7
     97e:	fc cf       	rjmp	.-8      	; 0x978 <i2c_readNak+0x6>

    return TWDR;
     980:	80 91 bb 00 	lds	r24, 0x00BB

}/* i2c_readNak */
     984:	08 95       	ret

00000986 <get_lm76_temperatur>:

/*------------------------------------------------------------------
 * Funktionen
 *///---------------------------------------------------------------
uint16_t get_lm76_temperatur(uint8_t adresse) // 16Bit vom I2C Slave einlesen
{
     986:	1f 93       	push	r17
     988:	df 93       	push	r29
     98a:	cf 93       	push	r28
     98c:	0f 92       	push	r0
     98e:	cd b7       	in	r28, 0x3d	; 61
     990:	de b7       	in	r29, 0x3e	; 62
     992:	18 2f       	mov	r17, r24
    uint8_t oberes_nibble;
    uint8_t unteres_nibble;
    uint16_t data =0;
    uint8_t ret;

    ret = i2c_start(adresse + I2C_WRITE); // write start auf LM76 schreiben
     994:	0e 94 47 04 	call	0x88e	; 0x88e <i2c_start>
    if (ret)
     998:	88 23       	and	r24, r24
     99a:	39 f0       	breq	.+14     	; 0x9aa <get_lm76_temperatur+0x24>
    {
        i2c_stop(); // Bus stoppen
     99c:	0e 94 96 04 	call	0x92c	; 0x92c <i2c_stop>
        error_func(); // Error handler aufrunfen
     9a0:	0e 94 4b 01 	call	0x296	; 0x296 <error_func>

        data = (unteres_nibble & 0xff) + (oberes_nibble <<8); // Temperatur zusammensetzen
        data >>=3; //untere 3 Status Bits abschneiden
        return data; // Temperatur zurückgeben
    }
    return data;
     9a4:	20 e0       	ldi	r18, 0x00	; 0
     9a6:	30 e0       	ldi	r19, 0x00	; 0
     9a8:	19 c0       	rjmp	.+50     	; 0x9dc <get_lm76_temperatur+0x56>
        i2c_stop(); // Bus stoppen
        error_func(); // Error handler aufrunfen
    }
    else
    {
        i2c_write(0x00); // Register Pointer auf Temperatur
     9aa:	80 e0       	ldi	r24, 0x00	; 0
     9ac:	0e 94 9e 04 	call	0x93c	; 0x93c <i2c_write>
        i2c_rep_start(adresse + I2C_READ);
     9b0:	81 2f       	mov	r24, r17
     9b2:	8f 5f       	subi	r24, 0xFF	; 255
     9b4:	0e 94 93 04 	call	0x926	; 0x926 <i2c_rep_start>
        oberes_nibble= i2c_readAck(); // Oberes Temperatur Nibble einlesen
     9b8:	0e 94 af 04 	call	0x95e	; 0x95e <i2c_readAck>
     9bc:	18 2f       	mov	r17, r24
        unteres_nibble = i2c_readNak(); // Unteres Temperatur Nibble einlesen
     9be:	0e 94 b9 04 	call	0x972	; 0x972 <i2c_readNak>
        i2c_stop();
     9c2:	89 83       	std	Y+1, r24	; 0x01
     9c4:	0e 94 96 04 	call	0x92c	; 0x92c <i2c_stop>

        data = (unteres_nibble & 0xff) + (oberes_nibble <<8); // Temperatur zusammensetzen
     9c8:	31 2f       	mov	r19, r17
     9ca:	20 e0       	ldi	r18, 0x00	; 0
     9cc:	89 81       	ldd	r24, Y+1	; 0x01
     9ce:	28 0f       	add	r18, r24
     9d0:	31 1d       	adc	r19, r1
        data >>=3; //untere 3 Status Bits abschneiden
     9d2:	83 e0       	ldi	r24, 0x03	; 3
     9d4:	36 95       	lsr	r19
     9d6:	27 95       	ror	r18
     9d8:	8a 95       	dec	r24
     9da:	e1 f7       	brne	.-8      	; 0x9d4 <get_lm76_temperatur+0x4e>
        return data; // Temperatur zurückgeben
    }
    return data;
     9dc:	c9 01       	movw	r24, r18
     9de:	0f 90       	pop	r0
     9e0:	cf 91       	pop	r28
     9e2:	df 91       	pop	r29
     9e4:	1f 91       	pop	r17
     9e6:	08 95       	ret

000009e8 <MAIN_TopMenu>:
    }

}
void MAIN_TopMenu(void)
{
    lcd_print((unsigned char*)AboutText);
     9e8:	8f ee       	ldi	r24, 0xEF	; 239
     9ea:	90 e0       	ldi	r25, 0x00	; 0
     9ec:	0e 94 aa 02 	call	0x554	; 0x554 <lcd_print>
	#else
		//round up by default
		__ticks_dc = (uint32_t)(ceil(fabs(__tmp)));
	#endif

	__builtin_avr_delay_cycles(__ticks_dc);
     9f0:	8f ef       	ldi	r24, 0xFF	; 255
     9f2:	97 ea       	ldi	r25, 0xA7	; 167
     9f4:	a1 e6       	ldi	r26, 0x61	; 97
     9f6:	81 50       	subi	r24, 0x01	; 1
     9f8:	90 40       	sbci	r25, 0x00	; 0
     9fa:	a0 40       	sbci	r26, 0x00	; 0
     9fc:	e1 f7       	brne	.-8      	; 0x9f6 <MAIN_TopMenu+0xe>
     9fe:	00 c0       	rjmp	.+0      	; 0xa00 <MAIN_TopMenu+0x18>
     a00:	00 00       	nop
    _delay_ms(2000);   //show for 3 seconds
}
     a02:	08 95       	ret

00000a04 <init_ports>:
 * PA:void
 *///---------------------------------------------------------------
void init_ports()
{

    DDRA = 0x0F;		//PA0-PA3 -> NETZ1-NETZ4 aus Ausgang
     a04:	8f e0       	ldi	r24, 0x0F	; 15
     a06:	81 b9       	out	0x01, r24	; 1
    DDRD = 0x30;		//PD4, PD5 -> MLPWM und Buzzer auf Ausgang
     a08:	80 e3       	ldi	r24, 0x30	; 48
     a0a:	8a b9       	out	0x0a, r24	; 10
    DDRC |= (1<<PC6) | (1<<PC7); //PC6, PC7 -> LED RUN und Alarm auf Ausgang
     a0c:	87 b1       	in	r24, 0x07	; 7
     a0e:	80 6c       	ori	r24, 0xC0	; 192
     a10:	87 b9       	out	0x07, r24	; 7

}
     a12:	08 95       	ret

00000a14 <menue_datum_einstellen>:
 * menue_datum_einstellen(..) - Datum einstellen und speichern
 * PE:struct uhr * datum_pointer
 * PA:void
 *///---------------------------------------------------------------
void menue_datum_einstellen( struct uhr *datum_pointer)
{
     a14:	6f 92       	push	r6
     a16:	7f 92       	push	r7
     a18:	8f 92       	push	r8
     a1a:	9f 92       	push	r9
     a1c:	af 92       	push	r10
     a1e:	bf 92       	push	r11
     a20:	cf 92       	push	r12
     a22:	df 92       	push	r13
     a24:	ef 92       	push	r14
     a26:	ff 92       	push	r15
     a28:	0f 93       	push	r16
     a2a:	1f 93       	push	r17
     a2c:	df 93       	push	r29
     a2e:	cf 93       	push	r28
     a30:	0f 92       	push	r0
     a32:	cd b7       	in	r28, 0x3d	; 61
     a34:	de b7       	in	r29, 0x3e	; 62
     a36:	3c 01       	movw	r6, r24
    uint8_t display_update =1, cursor_position =0;

    lcd_command(LCD_CURSORON | LCD_BLINKINGON);
     a38:	8f e0       	ldi	r24, 0x0F	; 15
     a3a:	0e 94 04 04 	call	0x808	; 0x808 <lcd_command>
 * PE:struct uhr * datum_pointer
 * PA:void
 *///---------------------------------------------------------------
void menue_datum_einstellen( struct uhr *datum_pointer)
{
    uint8_t display_update =1, cursor_position =0;
     a3e:	dd 24       	eor	r13, r13
     a40:	91 e0       	ldi	r25, 0x01	; 1
        {
            display_update =0;  //Diesplay bei nächsten durchlauf nicht mehr aktualisieren
            lcd_print(strcpy_P (anzeigetext,wochentagname[datum_pointer->wochentag])); // Wochentag aus dem Flach in String umwandeln
            lcd_printlr(3,1,(unsigned char*)anzeigetext); // Wochentag anzeigen
            lcd_print(" "); // Leerstelle
            sprintf(buffer, "%02d.%02d.%02d ", datum_pointer->tag, datum_pointer->monat, datum_pointer->jahr);	// Datum in String umwandeln
     a42:	0e ee       	ldi	r16, 0xEE	; 238
     a44:	12 e0       	ldi	r17, 0x02	; 2
     a46:	64 e1       	ldi	r22, 0x14	; 20
     a48:	e6 2e       	mov	r14, r22
     a4a:	61 e0       	ldi	r22, 0x01	; 1
     a4c:	f6 2e       	mov	r15, r22
                (datum_pointer->monat == 12) ? (datum_pointer->monat =1) : (datum_pointer->monat++); // Abfrage ob Überlauf und dann Wert setzen
                display_update =1;																		// Datum hat sich geändert
            }
            if ( get_key_press( 1<<KEY_DOWN ) | get_key_rpt(1<< KEY_DOWN))								// Taste DOWN gedrückt
            {
                (datum_pointer->monat == 1) ? (datum_pointer->monat =12) : (datum_pointer->monat--); // Abfrage ob Überlauf und dann Wert setzen
     a4e:	5c e0       	ldi	r21, 0x0C	; 12
     a50:	c5 2e       	mov	r12, r21
                (datum_pointer->jahr == 99) ? (datum_pointer->jahr =0) : (datum_pointer->jahr++); // Abfrage ob Überlauf und dann Wert setzen
                display_update =1;																		// Datum hat sich geändert
            }
            if ( get_key_press( 1<<KEY_DOWN ) | get_key_rpt(1<< KEY_DOWN))								// Taste DOWN gedrückt
            {
                (datum_pointer->jahr == 0) ? (datum_pointer->jahr =99) : (datum_pointer->jahr--); // Abfrage ob Überlauf und dann Wert setzen
     a52:	43 e6       	ldi	r20, 0x63	; 99
     a54:	b4 2e       	mov	r11, r20
                (datum_pointer->tag == 31) ? (datum_pointer->tag =1) : (datum_pointer->tag++);	// Abfrage ob Überlauf und dann Wert setzen
                display_update =1;																		// Datum hat sich geändert
            }
            else if ( get_key_press( 1<<KEY_DOWN ) | get_key_rpt(1<< KEY_DOWN))							// Taste DOWN gedrückt
            {
                (datum_pointer->tag== 1) ? (datum_pointer->tag =31) : (datum_pointer->tag--);		// Abfrage ob Überlauf und dann Wert setzen
     a56:	3f e1       	ldi	r19, 0x1F	; 31
     a58:	a3 2e       	mov	r10, r19
                (datum_pointer->wochentag == 7) ? (datum_pointer->wochentag =1) : (datum_pointer->wochentag++);	//Abfrage ob Überlauf und dann Wert setzen
                display_update = 1;																		// Datum hat sich geändert
            }
            else if ( get_key_press( 1<<KEY_DOWN ) | get_key_rpt(1<< KEY_DOWN))							// Taste DOWN gedrückt
            {
                (datum_pointer->wochentag == 1) ? (datum_pointer->wochentag =7) : (datum_pointer->wochentag--);	//Abfrage ob Überlauf und dann Wert setzen
     a5a:	27 e0       	ldi	r18, 0x07	; 7
     a5c:	92 2e       	mov	r9, r18
     a5e:	02 c0       	rjmp	.+4      	; 0xa64 <menue_datum_einstellen+0x50>
            if (get_key_press( 1<<KEY_UP) | get_key_rpt(1<< KEY_UP))									// Taste UP gedrückt
            {
                (datum_pointer->wochentag == 7) ? (datum_pointer->wochentag =1) : (datum_pointer->wochentag++);	//Abfrage ob Überlauf und dann Wert setzen
                display_update = 1;																		// Datum hat sich geändert
            }
            else if ( get_key_press( 1<<KEY_DOWN ) | get_key_rpt(1<< KEY_DOWN))							// Taste DOWN gedrückt
     a60:	dd 24       	eor	r13, r13
            if (get_key_press( 1<<KEY_UP) | get_key_rpt(1<< KEY_UP))									// Taste UP gedrückt
            {
                (datum_pointer->tag == 31) ? (datum_pointer->tag =1) : (datum_pointer->tag++);	// Abfrage ob Überlauf und dann Wert setzen
                display_update =1;																		// Datum hat sich geändert
            }
            else if ( get_key_press( 1<<KEY_DOWN ) | get_key_rpt(1<< KEY_DOWN))							// Taste DOWN gedrückt
     a62:	90 e0       	ldi	r25, 0x00	; 0

    lcd_command(LCD_CURSORON | LCD_BLINKINGON);

    while(1)																					//State Machine für die Navigation in der Einstellung
    {
        lcd_gotolr(3,(2+(cursor_position*3)));																		// Cursor Position auf gewählte Einstellung
     a64:	6d 2d       	mov	r22, r13
     a66:	66 0f       	add	r22, r22
     a68:	6d 0d       	add	r22, r13
     a6a:	6e 5f       	subi	r22, 0xFE	; 254
     a6c:	83 e0       	ldi	r24, 0x03	; 3
     a6e:	99 83       	std	Y+1, r25	; 0x01
     a70:	0e 94 d2 02 	call	0x5a4	; 0x5a4 <lcd_gotolr>
        if (get_key_short(1<<KEY_RIGHT)) (cursor_position==3) ? (cursor_position = 0) : (cursor_position++);		// nächste Einstellug
     a74:	88 e0       	ldi	r24, 0x08	; 8
     a76:	0e 94 05 0f 	call	0x1e0a	; 0x1e0a <get_key_short>
     a7a:	99 81       	ldd	r25, Y+1	; 0x01
     a7c:	88 23       	and	r24, r24
     a7e:	29 f0       	breq	.+10     	; 0xa8a <menue_datum_einstellen+0x76>
     a80:	8d 2d       	mov	r24, r13
     a82:	83 30       	cpi	r24, 0x03	; 3
     a84:	b1 f1       	breq	.+108    	; 0xaf2 <menue_datum_einstellen+0xde>
     a86:	d3 94       	inc	r13
     a88:	38 c0       	rjmp	.+112    	; 0xafa <menue_datum_einstellen+0xe6>
        else if (get_key_short(1<<KEY_LEFT)) (cursor_position==0) ? (cursor_position = 3) : (cursor_position--);	// vorherige Einstellug
     a8a:	82 e0       	ldi	r24, 0x02	; 2
     a8c:	99 83       	std	Y+1, r25	; 0x01
     a8e:	0e 94 05 0f 	call	0x1e0a	; 0x1e0a <get_key_short>
     a92:	99 81       	ldd	r25, Y+1	; 0x01
     a94:	88 23       	and	r24, r24
     a96:	21 f0       	breq	.+8      	; 0xaa0 <menue_datum_einstellen+0x8c>
     a98:	dd 20       	and	r13, r13
     a9a:	69 f1       	breq	.+90     	; 0xaf6 <menue_datum_einstellen+0xe2>
     a9c:	da 94       	dec	r13
     a9e:	2d c0       	rjmp	.+90     	; 0xafa <menue_datum_einstellen+0xe6>
        else if(get_key_press(1<<KEY_ESC)) break;	// Funktion verlassen ohne zu speichern
     aa0:	80 e2       	ldi	r24, 0x20	; 32
     aa2:	99 83       	std	Y+1, r25	; 0x01
     aa4:	0e 94 ef 0e 	call	0x1dde	; 0x1dde <get_key_press>
     aa8:	88 23       	and	r24, r24
     aaa:	09 f0       	breq	.+2      	; 0xaae <menue_datum_einstellen+0x9a>
     aac:	40 c1       	rjmp	.+640    	; 0xd2e <menue_datum_einstellen+0x31a>
        else if(get_key_press(1<<KEY_OK)) // Bestätigen und Werte abspeichern
     aae:	84 e0       	ldi	r24, 0x04	; 4
     ab0:	0e 94 ef 0e 	call	0x1dde	; 0x1dde <get_key_press>
     ab4:	99 81       	ldd	r25, Y+1	; 0x01
     ab6:	88 23       	and	r24, r24
     ab8:	01 f1       	breq	.+64     	; 0xafa <menue_datum_einstellen+0xe6>
        {
            lcd_command(LCD_CURSOROFF | LCD_BLINKINGOFF);
     aba:	8c e0       	ldi	r24, 0x0C	; 12
     abc:	0e 94 04 04 	call	0x808	; 0x808 <lcd_command>
            lcd_command(LCD_CLEAR);
     ac0:	81 e0       	ldi	r24, 0x01	; 1
     ac2:	0e 94 04 04 	call	0x808	; 0x808 <lcd_command>
            set_ds1307_datum(datum_pointer);  // Datum auf DS1307 schreiben
     ac6:	c3 01       	movw	r24, r6
     ac8:	0e 94 13 02 	call	0x426	; 0x426 <set_ds1307_datum>
            lcd_printlc(1,1,(unsigned char*) "Speichere Daten");
     acc:	81 e0       	ldi	r24, 0x01	; 1
     ace:	61 e0       	ldi	r22, 0x01	; 1
     ad0:	42 e0       	ldi	r20, 0x02	; 2
     ad2:	51 e0       	ldi	r21, 0x01	; 1
     ad4:	0e 94 46 03 	call	0x68c	; 0x68c <lcd_printlc>
     ad8:	8f ef       	ldi	r24, 0xFF	; 255
     ada:	99 e6       	ldi	r25, 0x69	; 105
     adc:	a8 e1       	ldi	r26, 0x18	; 24
     ade:	81 50       	subi	r24, 0x01	; 1
     ae0:	90 40       	sbci	r25, 0x00	; 0
     ae2:	a0 40       	sbci	r26, 0x00	; 0
     ae4:	e1 f7       	brne	.-8      	; 0xade <menue_datum_einstellen+0xca>
     ae6:	00 c0       	rjmp	.+0      	; 0xae8 <menue_datum_einstellen+0xd4>
     ae8:	00 00       	nop
            _delay_ms(500);
            lcd_command(LCD_CLEAR); // LCD Anzeige löschen
     aea:	81 e0       	ldi	r24, 0x01	; 1
     aec:	0e 94 04 04 	call	0x808	; 0x808 <lcd_command>
            break;
     af0:	1e c1       	rjmp	.+572    	; 0xd2e <menue_datum_einstellen+0x31a>
    lcd_command(LCD_CURSORON | LCD_BLINKINGON);

    while(1)																					//State Machine für die Navigation in der Einstellung
    {
        lcd_gotolr(3,(2+(cursor_position*3)));																		// Cursor Position auf gewählte Einstellung
        if (get_key_short(1<<KEY_RIGHT)) (cursor_position==3) ? (cursor_position = 0) : (cursor_position++);		// nächste Einstellug
     af2:	dd 24       	eor	r13, r13
     af4:	02 c0       	rjmp	.+4      	; 0xafa <menue_datum_einstellen+0xe6>
        else if (get_key_short(1<<KEY_LEFT)) (cursor_position==0) ? (cursor_position = 3) : (cursor_position--);	// vorherige Einstellug
     af6:	83 e0       	ldi	r24, 0x03	; 3
     af8:	d8 2e       	mov	r13, r24
            _delay_ms(500);
            lcd_command(LCD_CLEAR); // LCD Anzeige löschen
            break;
        }

        if(display_update)  // Wenn sich eine Einstellung geändert hat, Display aktualisieren
     afa:	99 23       	and	r25, r25
     afc:	09 f4       	brne	.+2      	; 0xb00 <menue_datum_einstellen+0xec>
     afe:	48 c0       	rjmp	.+144    	; 0xb90 <menue_datum_einstellen+0x17c>
        {
            display_update =0;  //Diesplay bei nächsten durchlauf nicht mehr aktualisieren
            lcd_print(strcpy_P (anzeigetext,wochentagname[datum_pointer->wochentag])); // Wochentag aus dem Flach in String umwandeln
     b00:	d3 01       	movw	r26, r6
     b02:	14 96       	adiw	r26, 0x04	; 4
     b04:	6c 91       	ld	r22, X
     b06:	83 e0       	ldi	r24, 0x03	; 3
     b08:	68 9f       	mul	r22, r24
     b0a:	b0 01       	movw	r22, r0
     b0c:	11 24       	eor	r1, r1
     b0e:	64 58       	subi	r22, 0x84	; 132
     b10:	7f 4f       	sbci	r23, 0xFF	; 255
     b12:	88 e8       	ldi	r24, 0x88	; 136
     b14:	92 e0       	ldi	r25, 0x02	; 2
     b16:	0e 94 09 11 	call	0x2212	; 0x2212 <strcpy_P>
     b1a:	0e 94 aa 02 	call	0x554	; 0x554 <lcd_print>
            lcd_printlr(3,1,(unsigned char*)anzeigetext); // Wochentag anzeigen
     b1e:	83 e0       	ldi	r24, 0x03	; 3
     b20:	61 e0       	ldi	r22, 0x01	; 1
     b22:	48 e8       	ldi	r20, 0x88	; 136
     b24:	52 e0       	ldi	r21, 0x02	; 2
     b26:	0e 94 f9 02 	call	0x5f2	; 0x5f2 <lcd_printlr>
            lcd_print(" "); // Leerstelle
     b2a:	82 e1       	ldi	r24, 0x12	; 18
     b2c:	91 e0       	ldi	r25, 0x01	; 1
     b2e:	0e 94 aa 02 	call	0x554	; 0x554 <lcd_print>
            sprintf(buffer, "%02d.%02d.%02d ", datum_pointer->tag, datum_pointer->monat, datum_pointer->jahr);	// Datum in String umwandeln
     b32:	ed b7       	in	r30, 0x3d	; 61
     b34:	fe b7       	in	r31, 0x3e	; 62
     b36:	3a 97       	sbiw	r30, 0x0a	; 10
     b38:	0f b6       	in	r0, 0x3f	; 63
     b3a:	f8 94       	cli
     b3c:	fe bf       	out	0x3e, r31	; 62
     b3e:	0f be       	out	0x3f, r0	; 63
     b40:	ed bf       	out	0x3d, r30	; 61
     b42:	31 96       	adiw	r30, 0x01	; 1
     b44:	ad b7       	in	r26, 0x3d	; 61
     b46:	be b7       	in	r27, 0x3e	; 62
     b48:	12 96       	adiw	r26, 0x02	; 2
     b4a:	1c 93       	st	X, r17
     b4c:	0e 93       	st	-X, r16
     b4e:	11 97       	sbiw	r26, 0x01	; 1
     b50:	f3 82       	std	Z+3, r15	; 0x03
     b52:	e2 82       	std	Z+2, r14	; 0x02
     b54:	d3 01       	movw	r26, r6
     b56:	13 96       	adiw	r26, 0x03	; 3
     b58:	8c 91       	ld	r24, X
     b5a:	13 97       	sbiw	r26, 0x03	; 3
     b5c:	84 83       	std	Z+4, r24	; 0x04
     b5e:	15 82       	std	Z+5, r1	; 0x05
     b60:	15 96       	adiw	r26, 0x05	; 5
     b62:	8c 91       	ld	r24, X
     b64:	15 97       	sbiw	r26, 0x05	; 5
     b66:	86 83       	std	Z+6, r24	; 0x06
     b68:	17 82       	std	Z+7, r1	; 0x07
     b6a:	16 96       	adiw	r26, 0x06	; 6
     b6c:	8c 91       	ld	r24, X
     b6e:	80 87       	std	Z+8, r24	; 0x08
     b70:	11 86       	std	Z+9, r1	; 0x09
     b72:	0e 94 10 11 	call	0x2220	; 0x2220 <sprintf>
            lcd_printlr(3,4,(unsigned char*)buffer);																// Datum ausgeben
     b76:	ed b7       	in	r30, 0x3d	; 61
     b78:	fe b7       	in	r31, 0x3e	; 62
     b7a:	3a 96       	adiw	r30, 0x0a	; 10
     b7c:	0f b6       	in	r0, 0x3f	; 63
     b7e:	f8 94       	cli
     b80:	fe bf       	out	0x3e, r31	; 62
     b82:	0f be       	out	0x3f, r0	; 63
     b84:	ed bf       	out	0x3d, r30	; 61
     b86:	83 e0       	ldi	r24, 0x03	; 3
     b88:	64 e0       	ldi	r22, 0x04	; 4
     b8a:	a8 01       	movw	r20, r16
     b8c:	0e 94 f9 02 	call	0x5f2	; 0x5f2 <lcd_printlr>
        }

        switch (cursor_position) // Anwahl der welche Datumseinstellung geändert werden soll -> Wochentag, Tag, Monat, Jahr
     b90:	fd 2d       	mov	r31, r13
     b92:	f2 30       	cpi	r31, 0x02	; 2
     b94:	09 f4       	brne	.+2      	; 0xb98 <menue_datum_einstellen+0x184>
     b96:	61 c0       	rjmp	.+194    	; 0xc5a <menue_datum_einstellen+0x246>
     b98:	f3 30       	cpi	r31, 0x03	; 3
     b9a:	09 f4       	brne	.+2      	; 0xb9e <menue_datum_einstellen+0x18a>
     b9c:	93 c0       	rjmp	.+294    	; 0xcc4 <menue_datum_einstellen+0x2b0>
     b9e:	f1 30       	cpi	r31, 0x01	; 1
     ba0:	79 f1       	breq	.+94     	; 0xc00 <menue_datum_einstellen+0x1ec>
        {
        case 0:		// Wochentag wird geändert
        {
            if (get_key_press( 1<<KEY_UP) | get_key_rpt(1<< KEY_UP))									// Taste UP gedrückt
     ba2:	81 e0       	ldi	r24, 0x01	; 1
     ba4:	0e 94 ef 0e 	call	0x1dde	; 0x1dde <get_key_press>
     ba8:	d8 2e       	mov	r13, r24
     baa:	81 e0       	ldi	r24, 0x01	; 1
     bac:	0e 94 fa 0e 	call	0x1df4	; 0x1df4 <get_key_rpt>
     bb0:	8d 29       	or	r24, r13
     bb2:	69 f0       	breq	.+26     	; 0xbce <menue_datum_einstellen+0x1ba>
            {
                (datum_pointer->wochentag == 7) ? (datum_pointer->wochentag =1) : (datum_pointer->wochentag++);	//Abfrage ob Überlauf und dann Wert setzen
     bb4:	d3 01       	movw	r26, r6
     bb6:	14 96       	adiw	r26, 0x04	; 4
     bb8:	8c 91       	ld	r24, X
     bba:	14 97       	sbiw	r26, 0x04	; 4
     bbc:	87 30       	cpi	r24, 0x07	; 7
     bbe:	29 f4       	brne	.+10     	; 0xbca <menue_datum_einstellen+0x1b6>
     bc0:	81 e0       	ldi	r24, 0x01	; 1
     bc2:	14 96       	adiw	r26, 0x04	; 4
     bc4:	8c 93       	st	X, r24
     bc6:	14 97       	sbiw	r26, 0x04	; 4
     bc8:	19 c0       	rjmp	.+50     	; 0xbfc <menue_datum_einstellen+0x1e8>
     bca:	8f 5f       	subi	r24, 0xFF	; 255
     bcc:	15 c0       	rjmp	.+42     	; 0xbf8 <menue_datum_einstellen+0x1e4>
                display_update = 1;																		// Datum hat sich geändert
            }
            else if ( get_key_press( 1<<KEY_DOWN ) | get_key_rpt(1<< KEY_DOWN))							// Taste DOWN gedrückt
     bce:	80 e1       	ldi	r24, 0x10	; 16
     bd0:	0e 94 ef 0e 	call	0x1dde	; 0x1dde <get_key_press>
     bd4:	d8 2e       	mov	r13, r24
     bd6:	80 e1       	ldi	r24, 0x10	; 16
     bd8:	0e 94 fa 0e 	call	0x1df4	; 0x1df4 <get_key_rpt>
     bdc:	8d 29       	or	r24, r13
     bde:	09 f4       	brne	.+2      	; 0xbe2 <menue_datum_einstellen+0x1ce>
     be0:	3f cf       	rjmp	.-386    	; 0xa60 <menue_datum_einstellen+0x4c>
            {
                (datum_pointer->wochentag == 1) ? (datum_pointer->wochentag =7) : (datum_pointer->wochentag--);	//Abfrage ob Überlauf und dann Wert setzen
     be2:	d3 01       	movw	r26, r6
     be4:	14 96       	adiw	r26, 0x04	; 4
     be6:	8c 91       	ld	r24, X
     be8:	14 97       	sbiw	r26, 0x04	; 4
     bea:	81 30       	cpi	r24, 0x01	; 1
     bec:	21 f4       	brne	.+8      	; 0xbf6 <menue_datum_einstellen+0x1e2>
     bee:	14 96       	adiw	r26, 0x04	; 4
     bf0:	9c 92       	st	X, r9
     bf2:	14 97       	sbiw	r26, 0x04	; 4
     bf4:	03 c0       	rjmp	.+6      	; 0xbfc <menue_datum_einstellen+0x1e8>
     bf6:	81 50       	subi	r24, 0x01	; 1
     bf8:	f3 01       	movw	r30, r6
     bfa:	84 83       	std	Z+4, r24	; 0x04
     bfc:	dd 24       	eor	r13, r13
     bfe:	95 c0       	rjmp	.+298    	; 0xd2a <menue_datum_einstellen+0x316>
            break;
        }

        case 1:  // Tag wird geändert
        {
            if (get_key_press( 1<<KEY_UP) | get_key_rpt(1<< KEY_UP))									// Taste UP gedrückt
     c00:	81 e0       	ldi	r24, 0x01	; 1
     c02:	0e 94 ef 0e 	call	0x1dde	; 0x1dde <get_key_press>
     c06:	88 2e       	mov	r8, r24
     c08:	81 e0       	ldi	r24, 0x01	; 1
     c0a:	0e 94 fa 0e 	call	0x1df4	; 0x1df4 <get_key_rpt>
     c0e:	88 29       	or	r24, r8
     c10:	61 f0       	breq	.+24     	; 0xc2a <menue_datum_einstellen+0x216>
            {
                (datum_pointer->tag == 31) ? (datum_pointer->tag =1) : (datum_pointer->tag++);	// Abfrage ob Überlauf und dann Wert setzen
     c12:	d3 01       	movw	r26, r6
     c14:	13 96       	adiw	r26, 0x03	; 3
     c16:	8c 91       	ld	r24, X
     c18:	13 97       	sbiw	r26, 0x03	; 3
     c1a:	8f 31       	cpi	r24, 0x1F	; 31
     c1c:	21 f4       	brne	.+8      	; 0xc26 <menue_datum_einstellen+0x212>
     c1e:	13 96       	adiw	r26, 0x03	; 3
     c20:	dc 92       	st	X, r13
     c22:	13 97       	sbiw	r26, 0x03	; 3
     c24:	82 c0       	rjmp	.+260    	; 0xd2a <menue_datum_einstellen+0x316>
     c26:	8f 5f       	subi	r24, 0xFF	; 255
     c28:	15 c0       	rjmp	.+42     	; 0xc54 <menue_datum_einstellen+0x240>
                display_update =1;																		// Datum hat sich geändert
            }
            else if ( get_key_press( 1<<KEY_DOWN ) | get_key_rpt(1<< KEY_DOWN))							// Taste DOWN gedrückt
     c2a:	80 e1       	ldi	r24, 0x10	; 16
     c2c:	0e 94 ef 0e 	call	0x1dde	; 0x1dde <get_key_press>
     c30:	88 2e       	mov	r8, r24
     c32:	80 e1       	ldi	r24, 0x10	; 16
     c34:	0e 94 fa 0e 	call	0x1df4	; 0x1df4 <get_key_rpt>
     c38:	88 29       	or	r24, r8
     c3a:	09 f4       	brne	.+2      	; 0xc3e <menue_datum_einstellen+0x22a>
     c3c:	12 cf       	rjmp	.-476    	; 0xa62 <menue_datum_einstellen+0x4e>
            {
                (datum_pointer->tag== 1) ? (datum_pointer->tag =31) : (datum_pointer->tag--);		// Abfrage ob Überlauf und dann Wert setzen
     c3e:	d3 01       	movw	r26, r6
     c40:	13 96       	adiw	r26, 0x03	; 3
     c42:	8c 91       	ld	r24, X
     c44:	13 97       	sbiw	r26, 0x03	; 3
     c46:	81 30       	cpi	r24, 0x01	; 1
     c48:	21 f4       	brne	.+8      	; 0xc52 <menue_datum_einstellen+0x23e>
     c4a:	13 96       	adiw	r26, 0x03	; 3
     c4c:	ac 92       	st	X, r10
     c4e:	13 97       	sbiw	r26, 0x03	; 3
     c50:	6c c0       	rjmp	.+216    	; 0xd2a <menue_datum_einstellen+0x316>
     c52:	81 50       	subi	r24, 0x01	; 1
     c54:	f3 01       	movw	r30, r6
     c56:	83 83       	std	Z+3, r24	; 0x03
     c58:	68 c0       	rjmp	.+208    	; 0xd2a <menue_datum_einstellen+0x316>
            }
            break;
        }
        case 2: // Sekunden werden geändert
        {
            if ( get_key_press( 1<<KEY_UP) | get_key_rpt(1<< KEY_UP))									// Taste UP gedrückt
     c5a:	81 e0       	ldi	r24, 0x01	; 1
     c5c:	0e 94 ef 0e 	call	0x1dde	; 0x1dde <get_key_press>
     c60:	88 2e       	mov	r8, r24
     c62:	81 e0       	ldi	r24, 0x01	; 1
     c64:	0e 94 fa 0e 	call	0x1df4	; 0x1df4 <get_key_rpt>
     c68:	88 29       	or	r24, r8
     c6a:	81 f0       	breq	.+32     	; 0xc8c <menue_datum_einstellen+0x278>
            {
                (datum_pointer->monat == 12) ? (datum_pointer->monat =1) : (datum_pointer->monat++); // Abfrage ob Überlauf und dann Wert setzen
     c6c:	d3 01       	movw	r26, r6
     c6e:	15 96       	adiw	r26, 0x05	; 5
     c70:	8c 91       	ld	r24, X
     c72:	15 97       	sbiw	r26, 0x05	; 5
     c74:	8c 30       	cpi	r24, 0x0C	; 12
     c76:	29 f4       	brne	.+10     	; 0xc82 <menue_datum_einstellen+0x26e>
     c78:	81 e0       	ldi	r24, 0x01	; 1
     c7a:	15 96       	adiw	r26, 0x05	; 5
     c7c:	8c 93       	st	X, r24
     c7e:	15 97       	sbiw	r26, 0x05	; 5
     c80:	03 c0       	rjmp	.+6      	; 0xc88 <menue_datum_einstellen+0x274>
     c82:	8f 5f       	subi	r24, 0xFF	; 255
     c84:	f3 01       	movw	r30, r6
     c86:	85 83       	std	Z+5, r24	; 0x05
                display_update =1;																		// Datum hat sich geändert
     c88:	91 e0       	ldi	r25, 0x01	; 1
     c8a:	01 c0       	rjmp	.+2      	; 0xc8e <menue_datum_einstellen+0x27a>
            }
            break;
        }
        case 2: // Sekunden werden geändert
        {
            if ( get_key_press( 1<<KEY_UP) | get_key_rpt(1<< KEY_UP))									// Taste UP gedrückt
     c8c:	90 e0       	ldi	r25, 0x00	; 0
            {
                (datum_pointer->monat == 12) ? (datum_pointer->monat =1) : (datum_pointer->monat++); // Abfrage ob Überlauf und dann Wert setzen
                display_update =1;																		// Datum hat sich geändert
            }
            if ( get_key_press( 1<<KEY_DOWN ) | get_key_rpt(1<< KEY_DOWN))								// Taste DOWN gedrückt
     c8e:	80 e1       	ldi	r24, 0x10	; 16
     c90:	99 83       	std	Y+1, r25	; 0x01
     c92:	0e 94 ef 0e 	call	0x1dde	; 0x1dde <get_key_press>
     c96:	88 2e       	mov	r8, r24
     c98:	80 e1       	ldi	r24, 0x10	; 16
     c9a:	0e 94 fa 0e 	call	0x1df4	; 0x1df4 <get_key_rpt>
     c9e:	88 29       	or	r24, r8
     ca0:	99 81       	ldd	r25, Y+1	; 0x01
     ca2:	88 23       	and	r24, r24
     ca4:	09 f4       	brne	.+2      	; 0xca8 <menue_datum_einstellen+0x294>
     ca6:	de ce       	rjmp	.-580    	; 0xa64 <menue_datum_einstellen+0x50>
            {
                (datum_pointer->monat == 1) ? (datum_pointer->monat =12) : (datum_pointer->monat--); // Abfrage ob Überlauf und dann Wert setzen
     ca8:	d3 01       	movw	r26, r6
     caa:	15 96       	adiw	r26, 0x05	; 5
     cac:	8c 91       	ld	r24, X
     cae:	15 97       	sbiw	r26, 0x05	; 5
     cb0:	81 30       	cpi	r24, 0x01	; 1
     cb2:	21 f4       	brne	.+8      	; 0xcbc <menue_datum_einstellen+0x2a8>
     cb4:	15 96       	adiw	r26, 0x05	; 5
     cb6:	cc 92       	st	X, r12
     cb8:	15 97       	sbiw	r26, 0x05	; 5
     cba:	37 c0       	rjmp	.+110    	; 0xd2a <menue_datum_einstellen+0x316>
     cbc:	81 50       	subi	r24, 0x01	; 1
     cbe:	f3 01       	movw	r30, r6
     cc0:	85 83       	std	Z+5, r24	; 0x05
     cc2:	33 c0       	rjmp	.+102    	; 0xd2a <menue_datum_einstellen+0x316>
            }
            break;
        }
        case 3: // Jahr wird geändert
        {
            if ( get_key_press( 1<<KEY_UP) | get_key_rpt(1<< KEY_UP))									// Taste UP gedrückt
     cc4:	81 e0       	ldi	r24, 0x01	; 1
     cc6:	0e 94 ef 0e 	call	0x1dde	; 0x1dde <get_key_press>
     cca:	88 2e       	mov	r8, r24
     ccc:	81 e0       	ldi	r24, 0x01	; 1
     cce:	0e 94 fa 0e 	call	0x1df4	; 0x1df4 <get_key_rpt>
     cd2:	88 29       	or	r24, r8
     cd4:	79 f0       	breq	.+30     	; 0xcf4 <menue_datum_einstellen+0x2e0>
            {
                (datum_pointer->jahr == 99) ? (datum_pointer->jahr =0) : (datum_pointer->jahr++); // Abfrage ob Überlauf und dann Wert setzen
     cd6:	d3 01       	movw	r26, r6
     cd8:	16 96       	adiw	r26, 0x06	; 6
     cda:	8c 91       	ld	r24, X
     cdc:	16 97       	sbiw	r26, 0x06	; 6
     cde:	83 36       	cpi	r24, 0x63	; 99
     ce0:	21 f4       	brne	.+8      	; 0xcea <menue_datum_einstellen+0x2d6>
     ce2:	16 96       	adiw	r26, 0x06	; 6
     ce4:	1c 92       	st	X, r1
     ce6:	16 97       	sbiw	r26, 0x06	; 6
     ce8:	03 c0       	rjmp	.+6      	; 0xcf0 <menue_datum_einstellen+0x2dc>
     cea:	8f 5f       	subi	r24, 0xFF	; 255
     cec:	f3 01       	movw	r30, r6
     cee:	86 83       	std	Z+6, r24	; 0x06
                display_update =1;																		// Datum hat sich geändert
     cf0:	91 e0       	ldi	r25, 0x01	; 1
     cf2:	01 c0       	rjmp	.+2      	; 0xcf6 <menue_datum_einstellen+0x2e2>
            }
            break;
        }
        case 3: // Jahr wird geändert
        {
            if ( get_key_press( 1<<KEY_UP) | get_key_rpt(1<< KEY_UP))									// Taste UP gedrückt
     cf4:	90 e0       	ldi	r25, 0x00	; 0
            {
                (datum_pointer->jahr == 99) ? (datum_pointer->jahr =0) : (datum_pointer->jahr++); // Abfrage ob Überlauf und dann Wert setzen
                display_update =1;																		// Datum hat sich geändert
            }
            if ( get_key_press( 1<<KEY_DOWN ) | get_key_rpt(1<< KEY_DOWN))								// Taste DOWN gedrückt
     cf6:	80 e1       	ldi	r24, 0x10	; 16
     cf8:	99 83       	std	Y+1, r25	; 0x01
     cfa:	0e 94 ef 0e 	call	0x1dde	; 0x1dde <get_key_press>
     cfe:	88 2e       	mov	r8, r24
     d00:	80 e1       	ldi	r24, 0x10	; 16
     d02:	0e 94 fa 0e 	call	0x1df4	; 0x1df4 <get_key_rpt>
     d06:	88 29       	or	r24, r8
     d08:	99 81       	ldd	r25, Y+1	; 0x01
     d0a:	88 23       	and	r24, r24
     d0c:	09 f4       	brne	.+2      	; 0xd10 <menue_datum_einstellen+0x2fc>
     d0e:	aa ce       	rjmp	.-684    	; 0xa64 <menue_datum_einstellen+0x50>
            {
                (datum_pointer->jahr == 0) ? (datum_pointer->jahr =99) : (datum_pointer->jahr--); // Abfrage ob Überlauf und dann Wert setzen
     d10:	d3 01       	movw	r26, r6
     d12:	16 96       	adiw	r26, 0x06	; 6
     d14:	8c 91       	ld	r24, X
     d16:	16 97       	sbiw	r26, 0x06	; 6
     d18:	88 23       	and	r24, r24
     d1a:	21 f4       	brne	.+8      	; 0xd24 <menue_datum_einstellen+0x310>
     d1c:	16 96       	adiw	r26, 0x06	; 6
     d1e:	bc 92       	st	X, r11
     d20:	16 97       	sbiw	r26, 0x06	; 6
     d22:	03 c0       	rjmp	.+6      	; 0xd2a <menue_datum_einstellen+0x316>
     d24:	81 50       	subi	r24, 0x01	; 1
     d26:	f3 01       	movw	r30, r6
     d28:	86 83       	std	Z+6, r24	; 0x06
                display_update = 1;																		// Datum hat sich geändert
     d2a:	91 e0       	ldi	r25, 0x01	; 1
     d2c:	9b ce       	rjmp	.-714    	; 0xa64 <menue_datum_einstellen+0x50>
        }
        default :
            break;
        }
    }
    lcd_command(LCD_CLEAR);	// LCD Anzeige löschen
     d2e:	81 e0       	ldi	r24, 0x01	; 1
     d30:	0e 94 04 04 	call	0x808	; 0x808 <lcd_command>
}
     d34:	0f 90       	pop	r0
     d36:	cf 91       	pop	r28
     d38:	df 91       	pop	r29
     d3a:	1f 91       	pop	r17
     d3c:	0f 91       	pop	r16
     d3e:	ff 90       	pop	r15
     d40:	ef 90       	pop	r14
     d42:	df 90       	pop	r13
     d44:	cf 90       	pop	r12
     d46:	bf 90       	pop	r11
     d48:	af 90       	pop	r10
     d4a:	9f 90       	pop	r9
     d4c:	8f 90       	pop	r8
     d4e:	7f 90       	pop	r7
     d50:	6f 90       	pop	r6
     d52:	08 95       	ret

00000d54 <menue_zeiten_einstellen>:
 * menue_zeiten_einstellen(..) - Uhr und Schaltzeigen einstellen und speichern
 * PE:struct uhr * zeit_pointer
 * PA:void
 *///---------------------------------------------------------------
void menue_zeiten_einstellen(struct uhr *zeit_pointer, struct uhr *eeprom_write)
{
     d54:	6f 92       	push	r6
     d56:	7f 92       	push	r7
     d58:	8f 92       	push	r8
     d5a:	9f 92       	push	r9
     d5c:	af 92       	push	r10
     d5e:	bf 92       	push	r11
     d60:	cf 92       	push	r12
     d62:	df 92       	push	r13
     d64:	ef 92       	push	r14
     d66:	ff 92       	push	r15
     d68:	0f 93       	push	r16
     d6a:	1f 93       	push	r17
     d6c:	df 93       	push	r29
     d6e:	cf 93       	push	r28
     d70:	0f 92       	push	r0
     d72:	cd b7       	in	r28, 0x3d	; 61
     d74:	de b7       	in	r29, 0x3e	; 62
     d76:	3c 01       	movw	r6, r24
     d78:	7b 01       	movw	r14, r22

    uint8_t display_update =1, cursor_position =0;																// Hilfvariablen für Menue Navigation
     d7a:	bb 24       	eor	r11, r11
     d7c:	91 e0       	ldi	r25, 0x01	; 1


        if(display_update)  // Wenn sich die Zeit geändert hat
        {
            display_update =0;  //
            sprintf(buffer, "%02d:%02d:%02d", zeit_pointer->stunde, zeit_pointer->minute, zeit_pointer->sekunde);	// Zeit in ASCCII umwandeln
     d7e:	0e ee       	ldi	r16, 0xEE	; 238
     d80:	12 e0       	ldi	r17, 0x02	; 2
     d82:	a4 e2       	ldi	r26, 0x24	; 36
     d84:	ca 2e       	mov	r12, r26
     d86:	a1 e0       	ldi	r26, 0x01	; 1
     d88:	da 2e       	mov	r13, r26
                (zeit_pointer->minute == 59) ? (zeit_pointer->minute =0) : (zeit_pointer->minute++);	// Abfrage ob Minutenüberlauf und dann Wert setzen
                display_update =1;																		// Zeit hat sich geändert
            }
            else if ( get_key_press( 1<<KEY_DOWN ) | get_key_rpt(1<< KEY_DOWN))							// Taste DOWN gedrückt
            {
                (zeit_pointer->minute== 0) ? (zeit_pointer->minute =59) : (zeit_pointer->minute--);		// Abfrage ob Minutenüberlauf und dann Wert setzen
     d8a:	fb e3       	ldi	r31, 0x3B	; 59
     d8c:	af 2e       	mov	r10, r31
                (zeit_pointer->stunde == 23) ? (zeit_pointer->stunde =0) : (zeit_pointer->stunde++);	//Abfrage ob Stundenüberlauf und dann Wert setzen
                display_update = 1;																		// Zeit hat sich geändert
            }
            else if ( get_key_press( 1<<KEY_DOWN ) | get_key_rpt(1<< KEY_DOWN))							// Taste DOWN gedrückt
            {
                (zeit_pointer->stunde == 0) ? (zeit_pointer->stunde =23) : (zeit_pointer->stunde--);	//Abfrage ob Stundenüberlauf und dann Wert setzen
     d8e:	e7 e1       	ldi	r30, 0x17	; 23
     d90:	9e 2e       	mov	r9, r30
     d92:	02 c0       	rjmp	.+4      	; 0xd98 <menue_zeiten_einstellen+0x44>
            if (get_key_press( 1<<KEY_UP) | get_key_rpt(1<< KEY_UP))									// Taste UP gedrückt
            {
                (zeit_pointer->stunde == 23) ? (zeit_pointer->stunde =0) : (zeit_pointer->stunde++);	//Abfrage ob Stundenüberlauf und dann Wert setzen
                display_update = 1;																		// Zeit hat sich geändert
            }
            else if ( get_key_press( 1<<KEY_DOWN ) | get_key_rpt(1<< KEY_DOWN))							// Taste DOWN gedrückt
     d94:	bb 24       	eor	r11, r11
            if (get_key_press( 1<<KEY_UP) | get_key_rpt(1<< KEY_UP))									// Taste UP gedrückt
            {
                (zeit_pointer->minute == 59) ? (zeit_pointer->minute =0) : (zeit_pointer->minute++);	// Abfrage ob Minutenüberlauf und dann Wert setzen
                display_update =1;																		// Zeit hat sich geändert
            }
            else if ( get_key_press( 1<<KEY_DOWN ) | get_key_rpt(1<< KEY_DOWN))							// Taste DOWN gedrückt
     d96:	90 e0       	ldi	r25, 0x00	; 0
    uint8_t display_update =1, cursor_position =0;																// Hilfvariablen für Menue Navigation
    uhr temp_zeit;																						// Hilfsstruct Zeit
    temp_zeit = *zeit_pointer;																					// Akuelle Zeit temporär speichern
    while(1)																									//State Machine für die Navigation in der Einstellung
    {
        lcd_command(LCD_CURSORON | LCD_BLINKINGON);																	// Blinkender Cursor
     d98:	8f e0       	ldi	r24, 0x0F	; 15
     d9a:	99 83       	std	Y+1, r25	; 0x01
     d9c:	0e 94 04 04 	call	0x808	; 0x808 <lcd_command>
        lcd_gotolr(3,(2+(cursor_position*3)));																		// Cursor Position auf gewählte Zeit
     da0:	6b 2d       	mov	r22, r11
     da2:	66 0f       	add	r22, r22
     da4:	6b 0d       	add	r22, r11
     da6:	6e 5f       	subi	r22, 0xFE	; 254
     da8:	83 e0       	ldi	r24, 0x03	; 3
     daa:	0e 94 d2 02 	call	0x5a4	; 0x5a4 <lcd_gotolr>
        if (get_key_short(1<<KEY_RIGHT)) (cursor_position==2) ? (cursor_position = 0) : (cursor_position++);		// nächste Einstellug
     dae:	88 e0       	ldi	r24, 0x08	; 8
     db0:	0e 94 05 0f 	call	0x1e0a	; 0x1e0a <get_key_short>
     db4:	99 81       	ldd	r25, Y+1	; 0x01
     db6:	88 23       	and	r24, r24
     db8:	31 f0       	breq	.+12     	; 0xdc6 <menue_zeiten_einstellen+0x72>
     dba:	8b 2d       	mov	r24, r11
     dbc:	82 30       	cpi	r24, 0x02	; 2
     dbe:	09 f4       	brne	.+2      	; 0xdc2 <menue_zeiten_einstellen+0x6e>
     dc0:	40 c0       	rjmp	.+128    	; 0xe42 <menue_zeiten_einstellen+0xee>
     dc2:	b3 94       	inc	r11
     dc4:	42 c0       	rjmp	.+132    	; 0xe4a <menue_zeiten_einstellen+0xf6>
        else if (get_key_short(1<<KEY_LEFT)) (cursor_position==0) ? (cursor_position = 2) : (cursor_position--);	// vorherige Einstellug
     dc6:	82 e0       	ldi	r24, 0x02	; 2
     dc8:	99 83       	std	Y+1, r25	; 0x01
     dca:	0e 94 05 0f 	call	0x1e0a	; 0x1e0a <get_key_short>
     dce:	99 81       	ldd	r25, Y+1	; 0x01
     dd0:	88 23       	and	r24, r24
     dd2:	21 f0       	breq	.+8      	; 0xddc <menue_zeiten_einstellen+0x88>
     dd4:	bb 20       	and	r11, r11
     dd6:	b9 f1       	breq	.+110    	; 0xe46 <menue_zeiten_einstellen+0xf2>
     dd8:	ba 94       	dec	r11
     dda:	37 c0       	rjmp	.+110    	; 0xe4a <menue_zeiten_einstellen+0xf6>
        else if(get_key_press(1<<KEY_ESC)) break;	// Funktion verlassen ohne zu speichern
     ddc:	80 e2       	ldi	r24, 0x20	; 32
     dde:	99 83       	std	Y+1, r25	; 0x01
     de0:	0e 94 ef 0e 	call	0x1dde	; 0x1dde <get_key_press>
     de4:	88 23       	and	r24, r24
     de6:	09 f0       	breq	.+2      	; 0xdea <menue_zeiten_einstellen+0x96>
     de8:	ed c0       	rjmp	.+474    	; 0xfc4 <menue_zeiten_einstellen+0x270>
        else if(get_key_press(1<<KEY_OK)) // Bestätigen und Werte abspeichern
     dea:	84 e0       	ldi	r24, 0x04	; 4
     dec:	0e 94 ef 0e 	call	0x1dde	; 0x1dde <get_key_press>
     df0:	99 81       	ldd	r25, Y+1	; 0x01
     df2:	88 23       	and	r24, r24
     df4:	51 f1       	breq	.+84     	; 0xe4a <menue_zeiten_einstellen+0xf6>
        {
            lcd_command(LCD_CURSOROFF | LCD_BLINKINGOFF);
     df6:	8c e0       	ldi	r24, 0x0C	; 12
     df8:	0e 94 04 04 	call	0x808	; 0x808 <lcd_command>
            lcd_command(LCD_CLEAR);
     dfc:	81 e0       	ldi	r24, 0x01	; 1
     dfe:	0e 94 04 04 	call	0x808	; 0x808 <lcd_command>
            if(eeprom_write )
     e02:	e1 14       	cp	r14, r1
     e04:	f1 04       	cpc	r15, r1
     e06:	39 f0       	breq	.+14     	; 0xe16 <menue_zeiten_einstellen+0xc2>
            {
                eeprom_write_block (zeit_pointer, eeprom_write, sizeof(struct uhr)); // Schalttemperaturen im EEPROM speichern
     e08:	c3 01       	movw	r24, r6
     e0a:	b7 01       	movw	r22, r14
     e0c:	47 e0       	ldi	r20, 0x07	; 7
     e0e:	50 e0       	ldi	r21, 0x00	; 0
     e10:	0e 94 32 13 	call	0x2664	; 0x2664 <__eewr_block_m644p>
     e14:	03 c0       	rjmp	.+6      	; 0xe1c <menue_zeiten_einstellen+0xc8>
            }
            else set_ds1307_zeit(zeit_pointer);  // Zeit aus DS1307 schreiben
     e16:	c3 01       	movw	r24, r6
     e18:	0e 94 e5 01 	call	0x3ca	; 0x3ca <set_ds1307_zeit>
            lcd_printlc(1,1,(unsigned char*) "Speichere Daten");
     e1c:	81 e0       	ldi	r24, 0x01	; 1
     e1e:	61 e0       	ldi	r22, 0x01	; 1
     e20:	42 e0       	ldi	r20, 0x02	; 2
     e22:	51 e0       	ldi	r21, 0x01	; 1
     e24:	0e 94 46 03 	call	0x68c	; 0x68c <lcd_printlc>
     e28:	8f ef       	ldi	r24, 0xFF	; 255
     e2a:	99 e6       	ldi	r25, 0x69	; 105
     e2c:	a8 e1       	ldi	r26, 0x18	; 24
     e2e:	81 50       	subi	r24, 0x01	; 1
     e30:	90 40       	sbci	r25, 0x00	; 0
     e32:	a0 40       	sbci	r26, 0x00	; 0
     e34:	e1 f7       	brne	.-8      	; 0xe2e <menue_zeiten_einstellen+0xda>
     e36:	00 c0       	rjmp	.+0      	; 0xe38 <menue_zeiten_einstellen+0xe4>
     e38:	00 00       	nop
            _delay_ms(500);
            lcd_command(LCD_CLEAR); // LCD Anzeige löschen
     e3a:	81 e0       	ldi	r24, 0x01	; 1
     e3c:	0e 94 04 04 	call	0x808	; 0x808 <lcd_command>
            break;
     e40:	c1 c0       	rjmp	.+386    	; 0xfc4 <menue_zeiten_einstellen+0x270>
    temp_zeit = *zeit_pointer;																					// Akuelle Zeit temporär speichern
    while(1)																									//State Machine für die Navigation in der Einstellung
    {
        lcd_command(LCD_CURSORON | LCD_BLINKINGON);																	// Blinkender Cursor
        lcd_gotolr(3,(2+(cursor_position*3)));																		// Cursor Position auf gewählte Zeit
        if (get_key_short(1<<KEY_RIGHT)) (cursor_position==2) ? (cursor_position = 0) : (cursor_position++);		// nächste Einstellug
     e42:	bb 24       	eor	r11, r11
     e44:	02 c0       	rjmp	.+4      	; 0xe4a <menue_zeiten_einstellen+0xf6>
        else if (get_key_short(1<<KEY_LEFT)) (cursor_position==0) ? (cursor_position = 2) : (cursor_position--);	// vorherige Einstellug
     e46:	72 e0       	ldi	r23, 0x02	; 2
     e48:	b7 2e       	mov	r11, r23


        }


        if(display_update)  // Wenn sich die Zeit geändert hat
     e4a:	99 23       	and	r25, r25
     e4c:	69 f1       	breq	.+90     	; 0xea8 <menue_zeiten_einstellen+0x154>
        {
            display_update =0;  //
            sprintf(buffer, "%02d:%02d:%02d", zeit_pointer->stunde, zeit_pointer->minute, zeit_pointer->sekunde);	// Zeit in ASCCII umwandeln
     e4e:	ad b7       	in	r26, 0x3d	; 61
     e50:	be b7       	in	r27, 0x3e	; 62
     e52:	1a 97       	sbiw	r26, 0x0a	; 10
     e54:	0f b6       	in	r0, 0x3f	; 63
     e56:	f8 94       	cli
     e58:	be bf       	out	0x3e, r27	; 62
     e5a:	0f be       	out	0x3f, r0	; 63
     e5c:	ad bf       	out	0x3d, r26	; 61
     e5e:	ed b7       	in	r30, 0x3d	; 61
     e60:	fe b7       	in	r31, 0x3e	; 62
     e62:	31 96       	adiw	r30, 0x01	; 1
     e64:	12 96       	adiw	r26, 0x02	; 2
     e66:	1c 93       	st	X, r17
     e68:	0e 93       	st	-X, r16
     e6a:	11 97       	sbiw	r26, 0x01	; 1
     e6c:	d3 82       	std	Z+3, r13	; 0x03
     e6e:	c2 82       	std	Z+2, r12	; 0x02
     e70:	d3 01       	movw	r26, r6
     e72:	12 96       	adiw	r26, 0x02	; 2
     e74:	8c 91       	ld	r24, X
     e76:	12 97       	sbiw	r26, 0x02	; 2
     e78:	84 83       	std	Z+4, r24	; 0x04
     e7a:	15 82       	std	Z+5, r1	; 0x05
     e7c:	8c 91       	ld	r24, X
     e7e:	86 83       	std	Z+6, r24	; 0x06
     e80:	17 82       	std	Z+7, r1	; 0x07
     e82:	11 96       	adiw	r26, 0x01	; 1
     e84:	8c 91       	ld	r24, X
     e86:	80 87       	std	Z+8, r24	; 0x08
     e88:	11 86       	std	Z+9, r1	; 0x09
     e8a:	0e 94 10 11 	call	0x2220	; 0x2220 <sprintf>
            lcd_printlr(3,1,(unsigned char*)buffer);																// Zeit ausgeben
     e8e:	ed b7       	in	r30, 0x3d	; 61
     e90:	fe b7       	in	r31, 0x3e	; 62
     e92:	3a 96       	adiw	r30, 0x0a	; 10
     e94:	0f b6       	in	r0, 0x3f	; 63
     e96:	f8 94       	cli
     e98:	fe bf       	out	0x3e, r31	; 62
     e9a:	0f be       	out	0x3f, r0	; 63
     e9c:	ed bf       	out	0x3d, r30	; 61
     e9e:	83 e0       	ldi	r24, 0x03	; 3
     ea0:	61 e0       	ldi	r22, 0x01	; 1
     ea2:	a8 01       	movw	r20, r16
     ea4:	0e 94 f9 02 	call	0x5f2	; 0x5f2 <lcd_printlr>
        }
        switch (cursor_position) // Anwahl der welche Zeiteinstellung geändert werden soll -> Stunden, Minuten oder Senkunden
     ea8:	fb 2d       	mov	r31, r11
     eaa:	f1 30       	cpi	r31, 0x01	; 1
     eac:	89 f1       	breq	.+98     	; 0xf10 <menue_zeiten_einstellen+0x1bc>
     eae:	f2 30       	cpi	r31, 0x02	; 2
     eb0:	09 f4       	brne	.+2      	; 0xeb4 <menue_zeiten_einstellen+0x160>
     eb2:	53 c0       	rjmp	.+166    	; 0xf5a <menue_zeiten_einstellen+0x206>
        {
        case 0:		// Stunde wird geändert
        {
            if (get_key_press( 1<<KEY_UP) | get_key_rpt(1<< KEY_UP))									// Taste UP gedrückt
     eb4:	81 e0       	ldi	r24, 0x01	; 1
     eb6:	0e 94 ef 0e 	call	0x1dde	; 0x1dde <get_key_press>
     eba:	b8 2e       	mov	r11, r24
     ebc:	81 e0       	ldi	r24, 0x01	; 1
     ebe:	0e 94 fa 0e 	call	0x1df4	; 0x1df4 <get_key_rpt>
     ec2:	8b 29       	or	r24, r11
     ec4:	61 f0       	breq	.+24     	; 0xede <menue_zeiten_einstellen+0x18a>
            {
                (zeit_pointer->stunde == 23) ? (zeit_pointer->stunde =0) : (zeit_pointer->stunde++);	//Abfrage ob Stundenüberlauf und dann Wert setzen
     ec6:	d3 01       	movw	r26, r6
     ec8:	12 96       	adiw	r26, 0x02	; 2
     eca:	8c 91       	ld	r24, X
     ecc:	12 97       	sbiw	r26, 0x02	; 2
     ece:	87 31       	cpi	r24, 0x17	; 23
     ed0:	21 f4       	brne	.+8      	; 0xeda <menue_zeiten_einstellen+0x186>
     ed2:	12 96       	adiw	r26, 0x02	; 2
     ed4:	1c 92       	st	X, r1
     ed6:	12 97       	sbiw	r26, 0x02	; 2
     ed8:	19 c0       	rjmp	.+50     	; 0xf0c <menue_zeiten_einstellen+0x1b8>
     eda:	8f 5f       	subi	r24, 0xFF	; 255
     edc:	15 c0       	rjmp	.+42     	; 0xf08 <menue_zeiten_einstellen+0x1b4>
                display_update = 1;																		// Zeit hat sich geändert
            }
            else if ( get_key_press( 1<<KEY_DOWN ) | get_key_rpt(1<< KEY_DOWN))							// Taste DOWN gedrückt
     ede:	80 e1       	ldi	r24, 0x10	; 16
     ee0:	0e 94 ef 0e 	call	0x1dde	; 0x1dde <get_key_press>
     ee4:	b8 2e       	mov	r11, r24
     ee6:	80 e1       	ldi	r24, 0x10	; 16
     ee8:	0e 94 fa 0e 	call	0x1df4	; 0x1df4 <get_key_rpt>
     eec:	8b 29       	or	r24, r11
     eee:	09 f4       	brne	.+2      	; 0xef2 <menue_zeiten_einstellen+0x19e>
     ef0:	51 cf       	rjmp	.-350    	; 0xd94 <menue_zeiten_einstellen+0x40>
            {
                (zeit_pointer->stunde == 0) ? (zeit_pointer->stunde =23) : (zeit_pointer->stunde--);	//Abfrage ob Stundenüberlauf und dann Wert setzen
     ef2:	d3 01       	movw	r26, r6
     ef4:	12 96       	adiw	r26, 0x02	; 2
     ef6:	8c 91       	ld	r24, X
     ef8:	12 97       	sbiw	r26, 0x02	; 2
     efa:	88 23       	and	r24, r24
     efc:	21 f4       	brne	.+8      	; 0xf06 <menue_zeiten_einstellen+0x1b2>
     efe:	12 96       	adiw	r26, 0x02	; 2
     f00:	9c 92       	st	X, r9
     f02:	12 97       	sbiw	r26, 0x02	; 2
     f04:	03 c0       	rjmp	.+6      	; 0xf0c <menue_zeiten_einstellen+0x1b8>
     f06:	81 50       	subi	r24, 0x01	; 1
     f08:	f3 01       	movw	r30, r6
     f0a:	82 83       	std	Z+2, r24	; 0x02
     f0c:	bb 24       	eor	r11, r11
     f0e:	58 c0       	rjmp	.+176    	; 0xfc0 <menue_zeiten_einstellen+0x26c>
            }
            break;
        }
        case 1:  // Miunten werden geändert
        {
            if (get_key_press( 1<<KEY_UP) | get_key_rpt(1<< KEY_UP))									// Taste UP gedrückt
     f10:	81 e0       	ldi	r24, 0x01	; 1
     f12:	0e 94 ef 0e 	call	0x1dde	; 0x1dde <get_key_press>
     f16:	88 2e       	mov	r8, r24
     f18:	81 e0       	ldi	r24, 0x01	; 1
     f1a:	0e 94 fa 0e 	call	0x1df4	; 0x1df4 <get_key_rpt>
     f1e:	88 29       	or	r24, r8
     f20:	41 f0       	breq	.+16     	; 0xf32 <menue_zeiten_einstellen+0x1de>
            {
                (zeit_pointer->minute == 59) ? (zeit_pointer->minute =0) : (zeit_pointer->minute++);	// Abfrage ob Minutenüberlauf und dann Wert setzen
     f22:	d3 01       	movw	r26, r6
     f24:	8c 91       	ld	r24, X
     f26:	8b 33       	cpi	r24, 0x3B	; 59
     f28:	11 f4       	brne	.+4      	; 0xf2e <menue_zeiten_einstellen+0x1da>
     f2a:	1c 92       	st	X, r1
     f2c:	49 c0       	rjmp	.+146    	; 0xfc0 <menue_zeiten_einstellen+0x26c>
     f2e:	8f 5f       	subi	r24, 0xFF	; 255
     f30:	11 c0       	rjmp	.+34     	; 0xf54 <menue_zeiten_einstellen+0x200>
                display_update =1;																		// Zeit hat sich geändert
            }
            else if ( get_key_press( 1<<KEY_DOWN ) | get_key_rpt(1<< KEY_DOWN))							// Taste DOWN gedrückt
     f32:	80 e1       	ldi	r24, 0x10	; 16
     f34:	0e 94 ef 0e 	call	0x1dde	; 0x1dde <get_key_press>
     f38:	88 2e       	mov	r8, r24
     f3a:	80 e1       	ldi	r24, 0x10	; 16
     f3c:	0e 94 fa 0e 	call	0x1df4	; 0x1df4 <get_key_rpt>
     f40:	88 29       	or	r24, r8
     f42:	09 f4       	brne	.+2      	; 0xf46 <menue_zeiten_einstellen+0x1f2>
     f44:	28 cf       	rjmp	.-432    	; 0xd96 <menue_zeiten_einstellen+0x42>
            {
                (zeit_pointer->minute== 0) ? (zeit_pointer->minute =59) : (zeit_pointer->minute--);		// Abfrage ob Minutenüberlauf und dann Wert setzen
     f46:	d3 01       	movw	r26, r6
     f48:	8c 91       	ld	r24, X
     f4a:	88 23       	and	r24, r24
     f4c:	11 f4       	brne	.+4      	; 0xf52 <menue_zeiten_einstellen+0x1fe>
     f4e:	ac 92       	st	X, r10
     f50:	37 c0       	rjmp	.+110    	; 0xfc0 <menue_zeiten_einstellen+0x26c>
     f52:	81 50       	subi	r24, 0x01	; 1
     f54:	f3 01       	movw	r30, r6
     f56:	80 83       	st	Z, r24
     f58:	33 c0       	rjmp	.+102    	; 0xfc0 <menue_zeiten_einstellen+0x26c>
            }
            break;
        }
        case 2: // Sekunden werden geändert
        {
            if ( get_key_press( 1<<KEY_UP) | get_key_rpt(1<< KEY_UP))									// Taste UP gedrückt
     f5a:	81 e0       	ldi	r24, 0x01	; 1
     f5c:	0e 94 ef 0e 	call	0x1dde	; 0x1dde <get_key_press>
     f60:	88 2e       	mov	r8, r24
     f62:	81 e0       	ldi	r24, 0x01	; 1
     f64:	0e 94 fa 0e 	call	0x1df4	; 0x1df4 <get_key_rpt>
     f68:	88 29       	or	r24, r8
     f6a:	79 f0       	breq	.+30     	; 0xf8a <menue_zeiten_einstellen+0x236>
            {
                (zeit_pointer->sekunde == 59) ? (zeit_pointer->sekunde =0) : (zeit_pointer->sekunde++); // Abfrage ob Senundenüberlauf und dann Wert setzen
     f6c:	d3 01       	movw	r26, r6
     f6e:	11 96       	adiw	r26, 0x01	; 1
     f70:	8c 91       	ld	r24, X
     f72:	11 97       	sbiw	r26, 0x01	; 1
     f74:	8b 33       	cpi	r24, 0x3B	; 59
     f76:	21 f4       	brne	.+8      	; 0xf80 <menue_zeiten_einstellen+0x22c>
     f78:	11 96       	adiw	r26, 0x01	; 1
     f7a:	1c 92       	st	X, r1
     f7c:	11 97       	sbiw	r26, 0x01	; 1
     f7e:	03 c0       	rjmp	.+6      	; 0xf86 <menue_zeiten_einstellen+0x232>
     f80:	8f 5f       	subi	r24, 0xFF	; 255
     f82:	f3 01       	movw	r30, r6
     f84:	81 83       	std	Z+1, r24	; 0x01
                display_update =1;																		// Zeit hat sich geändert
     f86:	91 e0       	ldi	r25, 0x01	; 1
     f88:	01 c0       	rjmp	.+2      	; 0xf8c <menue_zeiten_einstellen+0x238>
            }
            break;
        }
        case 2: // Sekunden werden geändert
        {
            if ( get_key_press( 1<<KEY_UP) | get_key_rpt(1<< KEY_UP))									// Taste UP gedrückt
     f8a:	90 e0       	ldi	r25, 0x00	; 0
            {
                (zeit_pointer->sekunde == 59) ? (zeit_pointer->sekunde =0) : (zeit_pointer->sekunde++); // Abfrage ob Senundenüberlauf und dann Wert setzen
                display_update =1;																		// Zeit hat sich geändert
            }
            if ( get_key_press( 1<<KEY_DOWN ) | get_key_rpt(1<< KEY_DOWN))								// Taste DOWN gedrückt
     f8c:	80 e1       	ldi	r24, 0x10	; 16
     f8e:	99 83       	std	Y+1, r25	; 0x01
     f90:	0e 94 ef 0e 	call	0x1dde	; 0x1dde <get_key_press>
     f94:	88 2e       	mov	r8, r24
     f96:	80 e1       	ldi	r24, 0x10	; 16
     f98:	0e 94 fa 0e 	call	0x1df4	; 0x1df4 <get_key_rpt>
     f9c:	88 29       	or	r24, r8
     f9e:	99 81       	ldd	r25, Y+1	; 0x01
     fa0:	88 23       	and	r24, r24
     fa2:	09 f4       	brne	.+2      	; 0xfa6 <menue_zeiten_einstellen+0x252>
     fa4:	f9 ce       	rjmp	.-526    	; 0xd98 <menue_zeiten_einstellen+0x44>
            {
                (zeit_pointer->sekunde == 0) ? (zeit_pointer->sekunde =59) : (zeit_pointer->sekunde--); // Abfrage ob Senundenüberlauf und dann Wert setzen
     fa6:	d3 01       	movw	r26, r6
     fa8:	11 96       	adiw	r26, 0x01	; 1
     faa:	8c 91       	ld	r24, X
     fac:	11 97       	sbiw	r26, 0x01	; 1
     fae:	88 23       	and	r24, r24
     fb0:	21 f4       	brne	.+8      	; 0xfba <menue_zeiten_einstellen+0x266>
     fb2:	11 96       	adiw	r26, 0x01	; 1
     fb4:	ac 92       	st	X, r10
     fb6:	11 97       	sbiw	r26, 0x01	; 1
     fb8:	03 c0       	rjmp	.+6      	; 0xfc0 <menue_zeiten_einstellen+0x26c>
     fba:	81 50       	subi	r24, 0x01	; 1
     fbc:	f3 01       	movw	r30, r6
     fbe:	81 83       	std	Z+1, r24	; 0x01
                display_update = 1;																		// Zeit hat sich geändert
     fc0:	91 e0       	ldi	r25, 0x01	; 1
     fc2:	ea ce       	rjmp	.-556    	; 0xd98 <menue_zeiten_einstellen+0x44>
        }
        default :
            break;
        }
    }
    lcd_command(LCD_CLEAR);	// LCD Anzeige löschen
     fc4:	81 e0       	ldi	r24, 0x01	; 1
     fc6:	0e 94 04 04 	call	0x808	; 0x808 <lcd_command>
}
     fca:	0f 90       	pop	r0
     fcc:	cf 91       	pop	r28
     fce:	df 91       	pop	r29
     fd0:	1f 91       	pop	r17
     fd2:	0f 91       	pop	r16
     fd4:	ff 90       	pop	r15
     fd6:	ef 90       	pop	r14
     fd8:	df 90       	pop	r13
     fda:	cf 90       	pop	r12
     fdc:	bf 90       	pop	r11
     fde:	af 90       	pop	r10
     fe0:	9f 90       	pop	r9
     fe2:	8f 90       	pop	r8
     fe4:	7f 90       	pop	r7
     fe6:	6f 90       	pop	r6
     fe8:	08 95       	ret

00000fea <MAIN_3>:
 PURPOSE:   |
 ARGUMENTS: | None
 RETURNS:   | None
*/
void MAIN_3(void)
{
     fea:	0f 93       	push	r16
     fec:	1f 93       	push	r17
     fee:	cf 93       	push	r28
     ff0:	df 93       	push	r29
    lcd_command(LCD_CLEAR);
     ff2:	81 e0       	ldi	r24, 0x01	; 1
     ff4:	0e 94 04 04 	call	0x808	; 0x808 <lcd_command>
    lcd_printlrc(1,1,(unsigned char *)strcpy_P (anzeigetext,PSTR("Aktuelles Datum     eingeben")));
     ff8:	c8 e8       	ldi	r28, 0x88	; 136
     ffa:	d2 e0       	ldi	r29, 0x02	; 2
     ffc:	ce 01       	movw	r24, r28
     ffe:	67 eb       	ldi	r22, 0xB7	; 183
    1000:	71 e0       	ldi	r23, 0x01	; 1
    1002:	0e 94 09 11 	call	0x2212	; 0x2212 <strcpy_P>
    1006:	ac 01       	movw	r20, r24
    1008:	81 e0       	ldi	r24, 0x01	; 1
    100a:	61 e0       	ldi	r22, 0x01	; 1
    100c:	0e 94 1e 03 	call	0x63c	; 0x63c <lcd_printlrc>
    menue_datum_einstellen(&zeit);
    1010:	0e eb       	ldi	r16, 0xBE	; 190
    1012:	12 e0       	ldi	r17, 0x02	; 2
    1014:	c8 01       	movw	r24, r16
    1016:	0e 94 0a 05 	call	0xa14	; 0xa14 <menue_datum_einstellen>

    lcd_command(LCD_CLEAR);
    101a:	81 e0       	ldi	r24, 0x01	; 1
    101c:	0e 94 04 04 	call	0x808	; 0x808 <lcd_command>
    lcd_printlrc(1,1,(unsigned char *)strcpy_P (anzeigetext,PSTR("Aktuelle Uhrzeit    eingeben")));
    1020:	ce 01       	movw	r24, r28
    1022:	6a e9       	ldi	r22, 0x9A	; 154
    1024:	71 e0       	ldi	r23, 0x01	; 1
    1026:	0e 94 09 11 	call	0x2212	; 0x2212 <strcpy_P>
    102a:	ac 01       	movw	r20, r24
    102c:	81 e0       	ldi	r24, 0x01	; 1
    102e:	61 e0       	ldi	r22, 0x01	; 1
    1030:	0e 94 1e 03 	call	0x63c	; 0x63c <lcd_printlrc>
    menue_zeiten_einstellen(&zeit,0 );
    1034:	c8 01       	movw	r24, r16
    1036:	60 e0       	ldi	r22, 0x00	; 0
    1038:	70 e0       	ldi	r23, 0x00	; 0
    103a:	0e 94 aa 06 	call	0xd54	; 0xd54 <menue_zeiten_einstellen>

    lcd_command(LCD_CLEAR);
    103e:	81 e0       	ldi	r24, 0x01	; 1
    1040:	0e 94 04 04 	call	0x808	; 0x808 <lcd_command>
    lcd_printlrc(1,1,(unsigned char *)strcpy_P (anzeigetext,PSTR("Zeit Einstellungen  Lampe einschalten:")));
    1044:	ce 01       	movw	r24, r28
    1046:	63 e7       	ldi	r22, 0x73	; 115
    1048:	71 e0       	ldi	r23, 0x01	; 1
    104a:	0e 94 09 11 	call	0x2212	; 0x2212 <strcpy_P>
    104e:	ac 01       	movw	r20, r24
    1050:	81 e0       	ldi	r24, 0x01	; 1
    1052:	61 e0       	ldi	r22, 0x01	; 1
    1054:	0e 94 1e 03 	call	0x63c	; 0x63c <lcd_printlrc>
    menue_zeiten_einstellen(&lampe_on, &lampe_on_eeprom );
    1058:	8b ef       	ldi	r24, 0xFB	; 251
    105a:	92 e0       	ldi	r25, 0x02	; 2
    105c:	63 e1       	ldi	r22, 0x13	; 19
    105e:	70 e0       	ldi	r23, 0x00	; 0
    1060:	0e 94 aa 06 	call	0xd54	; 0xd54 <menue_zeiten_einstellen>
    //
    lcd_command(LCD_CLEAR);
    1064:	81 e0       	ldi	r24, 0x01	; 1
    1066:	0e 94 04 04 	call	0x808	; 0x808 <lcd_command>
    lcd_printlrc(1,1,(unsigned char *)strcpy_P (anzeigetext,PSTR("Zeit Einstellungen  Lampe ausschalten:")));
    106a:	ce 01       	movw	r24, r28
    106c:	6c e4       	ldi	r22, 0x4C	; 76
    106e:	71 e0       	ldi	r23, 0x01	; 1
    1070:	0e 94 09 11 	call	0x2212	; 0x2212 <strcpy_P>
    1074:	ac 01       	movw	r20, r24
    1076:	81 e0       	ldi	r24, 0x01	; 1
    1078:	61 e0       	ldi	r22, 0x01	; 1
    107a:	0e 94 1e 03 	call	0x63c	; 0x63c <lcd_printlrc>
    menue_zeiten_einstellen(&lampe_off, &lampe_off_eeprom );
    107e:	87 ee       	ldi	r24, 0xE7	; 231
    1080:	92 e0       	ldi	r25, 0x02	; 2
    1082:	6a e1       	ldi	r22, 0x1A	; 26
    1084:	70 e0       	ldi	r23, 0x00	; 0
    1086:	0e 94 aa 06 	call	0xd54	; 0xd54 <menue_zeiten_einstellen>

    lcd_command(LCD_CLEAR);
    108a:	81 e0       	ldi	r24, 0x01	; 1
    108c:	0e 94 04 04 	call	0x808	; 0x808 <lcd_command>
    lcd_printlrc(1,1,(unsigned char *)strcpy_P (anzeigetext,PSTR("Zeit Einstellungen  Mondlicht einstellen:")));
    1090:	ce 01       	movw	r24, r28
    1092:	62 e2       	ldi	r22, 0x22	; 34
    1094:	71 e0       	ldi	r23, 0x01	; 1
    1096:	0e 94 09 11 	call	0x2212	; 0x2212 <strcpy_P>
    109a:	ac 01       	movw	r20, r24
    109c:	81 e0       	ldi	r24, 0x01	; 1
    109e:	61 e0       	ldi	r22, 0x01	; 1
    10a0:	0e 94 1e 03 	call	0x63c	; 0x63c <lcd_printlrc>
    menue_zeiten_einstellen(&ml_on, &ml_on_eeprom );
    10a4:	88 e1       	ldi	r24, 0x18	; 24
    10a6:	93 e0       	ldi	r25, 0x03	; 3
    10a8:	61 e2       	ldi	r22, 0x21	; 33
    10aa:	70 e0       	ldi	r23, 0x00	; 0
    10ac:	0e 94 aa 06 	call	0xd54	; 0xd54 <menue_zeiten_einstellen>

    lcd_command(LCD_CLEAR);
    10b0:	81 e0       	ldi	r24, 0x01	; 1
    10b2:	0e 94 04 04 	call	0x808	; 0x808 <lcd_command>
    lcd_printlrc(1,1,(unsigned char *)strcpy_P (anzeigetext,PSTR("Zeit Einstellungen  Mondlicht ausschalten:")));
    10b6:	ce 01       	movw	r24, r28
    10b8:	67 ef       	ldi	r22, 0xF7	; 247
    10ba:	70 e0       	ldi	r23, 0x00	; 0
    10bc:	0e 94 09 11 	call	0x2212	; 0x2212 <strcpy_P>
    10c0:	ac 01       	movw	r20, r24
    10c2:	81 e0       	ldi	r24, 0x01	; 1
    10c4:	61 e0       	ldi	r22, 0x01	; 1
    10c6:	0e 94 1e 03 	call	0x63c	; 0x63c <lcd_printlrc>
    menue_zeiten_einstellen(&ml_off, &ml_off_eeprom );
    10ca:	8f e1       	ldi	r24, 0x1F	; 31
    10cc:	93 e0       	ldi	r25, 0x03	; 3
    10ce:	68 e2       	ldi	r22, 0x28	; 40
    10d0:	70 e0       	ldi	r23, 0x00	; 0
    10d2:	0e 94 aa 06 	call	0xd54	; 0xd54 <menue_zeiten_einstellen>
    lcd_command(LCD_CLEAR);
    10d6:	81 e0       	ldi	r24, 0x01	; 1
    10d8:	0e 94 04 04 	call	0x808	; 0x808 <lcd_command>
}
    10dc:	df 91       	pop	r29
    10de:	cf 91       	pop	r28
    10e0:	1f 91       	pop	r17
    10e2:	0f 91       	pop	r16
    10e4:	08 95       	ret

000010e6 <temperatur_to_string>:
 * PE:uint32_t aktuelle_temperatur
 * PE:char * temp_buffer - Potinter auf den String
 * PA:void
 *///---------------------------------------------------------------
void temperatur_to_string(int16_t aktuelle_temperatur, char* temp_buffer)
{
    10e6:	cf 92       	push	r12
    10e8:	df 92       	push	r13
    10ea:	ef 92       	push	r14
    10ec:	ff 92       	push	r15
    10ee:	0f 93       	push	r16
    10f0:	1f 93       	push	r17
    10f2:	cf 93       	push	r28
    10f4:	df 93       	push	r29
    10f6:	eb 01       	movw	r28, r22
    int16_t ganze_grad, zentel_grad;  // Hilfsvariablen
    int32_t string_temperatur;

    string_temperatur = (int32_t) aktuelle_temperatur;
    10f8:	9c 01       	movw	r18, r24
    10fa:	b9 01       	movw	r22, r18
    10fc:	88 27       	eor	r24, r24
    10fe:	77 fd       	sbrc	r23, 7
    1100:	80 95       	com	r24
    1102:	98 2f       	mov	r25, r24
    string_temperatur = string_temperatur *625;			// Bitfolge in Grad umrechnen da 1 Bit 0.0625 Grad entspricht
    1104:	21 e7       	ldi	r18, 0x71	; 113
    1106:	32 e0       	ldi	r19, 0x02	; 2
    1108:	40 e0       	ldi	r20, 0x00	; 0
    110a:	50 e0       	ldi	r21, 0x00	; 0
    110c:	0e 94 a1 10 	call	0x2142	; 0x2142 <__mulsi3>
    ganze_grad = string_temperatur /10000;				// umrechnen in ganze Grad
    1110:	20 e1       	ldi	r18, 0x10	; 16
    1112:	37 e2       	ldi	r19, 0x27	; 39
    1114:	40 e0       	ldi	r20, 0x00	; 0
    1116:	50 e0       	ldi	r21, 0x00	; 0
    1118:	0e 94 cc 10 	call	0x2198	; 0x2198 <__divmodsi4>
    111c:	79 01       	movw	r14, r18
    111e:	8a 01       	movw	r16, r20
    zentel_grad = ((string_temperatur % 10000) /1000);	// umrechnen der zentel Grad
    1120:	28 ee       	ldi	r18, 0xE8	; 232
    1122:	33 e0       	ldi	r19, 0x03	; 3
    1124:	40 e0       	ldi	r20, 0x00	; 0
    1126:	50 e0       	ldi	r21, 0x00	; 0
    1128:	0e 94 cc 10 	call	0x2198	; 0x2198 <__divmodsi4>
    112c:	c9 01       	movw	r24, r18

    if(zentel_grad < 0) // Routine um Minus Temperaturen richtig auf dem Display anzeigen zu können ->  falls Temperatur unter Null
    112e:	37 ff       	sbrs	r19, 7
    1130:	34 c0       	rjmp	.+104    	; 0x119a <__stack+0x9b>
    {
        zentel_grad = 0 -zentel_grad; // Wert positiv machen -> oder auch Minus abschneiden
    1132:	90 95       	com	r25
    1134:	81 95       	neg	r24
    1136:	9f 4f       	sbci	r25, 0xFF	; 255

        if (ganze_grad == 0) // Falls die Vorkommastelle 0 ist -> Minus an Anfang des Strings anhängen, da sptintf das nicht automatisch macht
    1138:	e1 14       	cp	r14, r1
    113a:	f1 04       	cpc	r15, r1
    113c:	b1 f4       	brne	.+44     	; 0x116a <__stack+0x6b>
        {
            sprintf(temp_buffer,"-%i.%iC", ganze_grad, zentel_grad); // String mit extra Minus Zeichen zusammensetzen
    113e:	ad b7       	in	r26, 0x3d	; 61
    1140:	be b7       	in	r27, 0x3e	; 62
    1142:	18 97       	sbiw	r26, 0x08	; 8
    1144:	0f b6       	in	r0, 0x3f	; 63
    1146:	f8 94       	cli
    1148:	be bf       	out	0x3e, r27	; 62
    114a:	0f be       	out	0x3f, r0	; 63
    114c:	ad bf       	out	0x3d, r26	; 61
    114e:	ed b7       	in	r30, 0x3d	; 61
    1150:	fe b7       	in	r31, 0x3e	; 62
    1152:	31 96       	adiw	r30, 0x01	; 1
    1154:	12 96       	adiw	r26, 0x02	; 2
    1156:	dc 93       	st	X, r29
    1158:	ce 93       	st	-X, r28
    115a:	11 97       	sbiw	r26, 0x01	; 1
    115c:	23 e3       	ldi	r18, 0x33	; 51
    115e:	31 e0       	ldi	r19, 0x01	; 1
    1160:	33 83       	std	Z+3, r19	; 0x03
    1162:	22 83       	std	Z+2, r18	; 0x02
    1164:	15 82       	std	Z+5, r1	; 0x05
    1166:	14 82       	std	Z+4, r1	; 0x04
    1168:	15 c0       	rjmp	.+42     	; 0x1194 <__stack+0x95>
        }
        else sprintf(temp_buffer,"%i.%iC", ganze_grad, zentel_grad); // Falls ganze Grad auch Minus einfach String zusammensetzen -> Minus wird automatisch von sprintf gesetzt
    116a:	ad b7       	in	r26, 0x3d	; 61
    116c:	be b7       	in	r27, 0x3e	; 62
    116e:	18 97       	sbiw	r26, 0x08	; 8
    1170:	0f b6       	in	r0, 0x3f	; 63
    1172:	f8 94       	cli
    1174:	be bf       	out	0x3e, r27	; 62
    1176:	0f be       	out	0x3f, r0	; 63
    1178:	ad bf       	out	0x3d, r26	; 61
    117a:	ed b7       	in	r30, 0x3d	; 61
    117c:	fe b7       	in	r31, 0x3e	; 62
    117e:	31 96       	adiw	r30, 0x01	; 1
    1180:	12 96       	adiw	r26, 0x02	; 2
    1182:	dc 93       	st	X, r29
    1184:	ce 93       	st	-X, r28
    1186:	11 97       	sbiw	r26, 0x01	; 1
    1188:	2b e3       	ldi	r18, 0x3B	; 59
    118a:	31 e0       	ldi	r19, 0x01	; 1
    118c:	33 83       	std	Z+3, r19	; 0x03
    118e:	22 83       	std	Z+2, r18	; 0x02
    1190:	f5 82       	std	Z+5, r15	; 0x05
    1192:	e4 82       	std	Z+4, r14	; 0x04
    1194:	97 83       	std	Z+7, r25	; 0x07
    1196:	86 83       	std	Z+6, r24	; 0x06
    1198:	19 c0       	rjmp	.+50     	; 0x11cc <__stack+0xcd>
    }
    else sprintf(temp_buffer,"%i.%iC", ganze_grad, zentel_grad); // Falls Wert positiv einfach String zusammenstezen
    119a:	8d b7       	in	r24, 0x3d	; 61
    119c:	9e b7       	in	r25, 0x3e	; 62
    119e:	08 97       	sbiw	r24, 0x08	; 8
    11a0:	0f b6       	in	r0, 0x3f	; 63
    11a2:	f8 94       	cli
    11a4:	9e bf       	out	0x3e, r25	; 62
    11a6:	0f be       	out	0x3f, r0	; 63
    11a8:	8d bf       	out	0x3d, r24	; 61
    11aa:	ed b7       	in	r30, 0x3d	; 61
    11ac:	fe b7       	in	r31, 0x3e	; 62
    11ae:	31 96       	adiw	r30, 0x01	; 1
    11b0:	ad b7       	in	r26, 0x3d	; 61
    11b2:	be b7       	in	r27, 0x3e	; 62
    11b4:	12 96       	adiw	r26, 0x02	; 2
    11b6:	dc 93       	st	X, r29
    11b8:	ce 93       	st	-X, r28
    11ba:	11 97       	sbiw	r26, 0x01	; 1
    11bc:	8b e3       	ldi	r24, 0x3B	; 59
    11be:	91 e0       	ldi	r25, 0x01	; 1
    11c0:	93 83       	std	Z+3, r25	; 0x03
    11c2:	82 83       	std	Z+2, r24	; 0x02
    11c4:	f5 82       	std	Z+5, r15	; 0x05
    11c6:	e4 82       	std	Z+4, r14	; 0x04
    11c8:	37 83       	std	Z+7, r19	; 0x07
    11ca:	26 83       	std	Z+6, r18	; 0x06
    11cc:	0e 94 10 11 	call	0x2220	; 0x2220 <sprintf>
    11d0:	2d b7       	in	r18, 0x3d	; 61
    11d2:	3e b7       	in	r19, 0x3e	; 62
    11d4:	28 5f       	subi	r18, 0xF8	; 248
    11d6:	3f 4f       	sbci	r19, 0xFF	; 255
    11d8:	0f b6       	in	r0, 0x3f	; 63
    11da:	f8 94       	cli
    11dc:	3e bf       	out	0x3e, r19	; 62
    11de:	0f be       	out	0x3f, r0	; 63
    11e0:	2d bf       	out	0x3d, r18	; 61
}
    11e2:	df 91       	pop	r29
    11e4:	cf 91       	pop	r28
    11e6:	1f 91       	pop	r17
    11e8:	0f 91       	pop	r16
    11ea:	ff 90       	pop	r15
    11ec:	ef 90       	pop	r14
    11ee:	df 90       	pop	r13
    11f0:	cf 90       	pop	r12
    11f2:	08 95       	ret

000011f4 <menue_temperatur_offset>:
 * menue_temperatur_offset(..) - Temperatur Offset des LM76 einstellen
 * PE:int8_t * offset - Temperatur Versatz in +-0.1 Grad
 * PA:void
 *///---------------------------------------------------------------
void menue_temperatur_offset( int8_t *offset)
{
    11f4:	ff 92       	push	r15
    11f6:	0f 93       	push	r16
    11f8:	1f 93       	push	r17
    11fa:	cf 93       	push	r28
    11fc:	df 93       	push	r29
    11fe:	ec 01       	movw	r28, r24
    uint8_t offset_alt;            // Hilfsvariable falls Offset nicht gespeichert werden soll
    uint32_t aktuelle_temperatur;  //Hilfsvariable

    offset_alt = *offset;          // Offset zwischenspeichern, falls Einstellungen verworfen werden sollen
    1200:	f8 80       	ld	r15, Y

    lcd_printlc(1,1,(unsigned char*) "Temperatur Offset:");
    1202:	81 e0       	ldi	r24, 0x01	; 1
    1204:	61 e0       	ldi	r22, 0x01	; 1
    1206:	42 e4       	ldi	r20, 0x42	; 66
    1208:	51 e0       	ldi	r21, 0x01	; 1
    120a:	0e 94 46 03 	call	0x68c	; 0x68c <lcd_printlc>
    while(1)
    {
        aktuelle_temperatur = get_lm76_temperatur(LM76_ADRESSE);                             // Temperatur vom LM76 holen
    120e:	80 e9       	ldi	r24, 0x90	; 144
    1210:	0e 94 c3 04 	call	0x986	; 0x986 <get_lm76_temperatur>
    1214:	8c 01       	movw	r16, r24
        temperatur_to_string(aktuelle_temperatur,anzeigetext1);             // Temperatur String erzeugen
    1216:	61 ed       	ldi	r22, 0xD1	; 209
    1218:	72 e0       	ldi	r23, 0x02	; 2
    121a:	0e 94 73 08 	call	0x10e6	; 0x10e6 <temperatur_to_string>
        lcd_printlc(2,1,(unsigned char*) "LM76:       ");						 // String ausgeben
    121e:	82 e0       	ldi	r24, 0x02	; 2
    1220:	61 e0       	ldi	r22, 0x01	; 1
    1222:	45 e5       	ldi	r20, 0x55	; 85
    1224:	51 e0       	ldi	r21, 0x01	; 1
    1226:	0e 94 46 03 	call	0x68c	; 0x68c <lcd_printlc>
        lcd_print((unsigned char*) anzeigetext1);							 // Temperatur String ausgeben
    122a:	81 ed       	ldi	r24, 0xD1	; 209
    122c:	92 e0       	ldi	r25, 0x02	; 2
    122e:	0e 94 aa 02 	call	0x554	; 0x554 <lcd_print>
        lcd_printlc(3,1,(unsigned char*) "Korr. Temp: ");					     // String ausgeben
    1232:	83 e0       	ldi	r24, 0x03	; 3
    1234:	61 e0       	ldi	r22, 0x01	; 1
    1236:	42 e6       	ldi	r20, 0x62	; 98
    1238:	51 e0       	ldi	r21, 0x01	; 1
    123a:	0e 94 46 03 	call	0x68c	; 0x68c <lcd_printlc>
        temperatur_to_string((aktuelle_temperatur + *offset),anzeigetext1); // Korrigierte Temperatur Strîng erzeugen
    123e:	88 81       	ld	r24, Y
    1240:	99 27       	eor	r25, r25
    1242:	87 fd       	sbrc	r24, 7
    1244:	90 95       	com	r25
    1246:	80 0f       	add	r24, r16
    1248:	91 1f       	adc	r25, r17
    124a:	61 ed       	ldi	r22, 0xD1	; 209
    124c:	72 e0       	ldi	r23, 0x02	; 2
    124e:	0e 94 73 08 	call	0x10e6	; 0x10e6 <temperatur_to_string>
        lcd_print((unsigned char*) anzeigetext1);							 // Korrigierte Temperatur ausgeben
    1252:	81 ed       	ldi	r24, 0xD1	; 209
    1254:	92 e0       	ldi	r25, 0x02	; 2
    1256:	0e 94 aa 02 	call	0x554	; 0x554 <lcd_print>
        temperatur_to_string(*offset,anzeigetext1);						 // Offset String erzeugen
    125a:	88 81       	ld	r24, Y
    125c:	99 27       	eor	r25, r25
    125e:	87 fd       	sbrc	r24, 7
    1260:	90 95       	com	r25
    1262:	61 ed       	ldi	r22, 0xD1	; 209
    1264:	72 e0       	ldi	r23, 0x02	; 2
    1266:	0e 94 73 08 	call	0x10e6	; 0x10e6 <temperatur_to_string>
        lcd_printlc(4,1,(unsigned char*) "Offset:     ");						 // String ausgeben
    126a:	84 e0       	ldi	r24, 0x04	; 4
    126c:	61 e0       	ldi	r22, 0x01	; 1
    126e:	4f e6       	ldi	r20, 0x6F	; 111
    1270:	51 e0       	ldi	r21, 0x01	; 1
    1272:	0e 94 46 03 	call	0x68c	; 0x68c <lcd_printlc>
        lcd_print((unsigned char*) anzeigetext1);							 // Offet String ausgeben
    1276:	81 ed       	ldi	r24, 0xD1	; 209
    1278:	92 e0       	ldi	r25, 0x02	; 2
    127a:	0e 94 aa 02 	call	0x554	; 0x554 <lcd_print>
        lcd_print((unsigned char*) "  ");										 // String ausgeben
    127e:	8c e7       	ldi	r24, 0x7C	; 124
    1280:	91 e0       	ldi	r25, 0x01	; 1
    1282:	0e 94 aa 02 	call	0x554	; 0x554 <lcd_print>
        if (get_key_press( 1<<KEY_UP) | get_key_rpt(1<< KEY_UP)) *offset+=2;     // Wenn Taste UP gedrückt -> Offsetwert erhöhen, 2 -> da Temperatur auf 0.1 Grad gerundet
    1286:	81 e0       	ldi	r24, 0x01	; 1
    1288:	0e 94 ef 0e 	call	0x1dde	; 0x1dde <get_key_press>
    128c:	08 2f       	mov	r16, r24
    128e:	81 e0       	ldi	r24, 0x01	; 1
    1290:	0e 94 fa 0e 	call	0x1df4	; 0x1df4 <get_key_rpt>
    1294:	80 2b       	or	r24, r16
    1296:	19 f0       	breq	.+6      	; 0x129e <menue_temperatur_offset+0xaa>
    1298:	88 81       	ld	r24, Y
    129a:	8e 5f       	subi	r24, 0xFE	; 254
    129c:	88 83       	st	Y, r24
        if (get_key_press( 1<<KEY_DOWN) | get_key_rpt(1<< KEY_DOWN)) *offset-=2; // Wenn Taste DOWN gedrückt -> Offsetwert verringern, 2 -> da Temperatur auf 0.1 Grad gerundet
    129e:	80 e1       	ldi	r24, 0x10	; 16
    12a0:	0e 94 ef 0e 	call	0x1dde	; 0x1dde <get_key_press>
    12a4:	08 2f       	mov	r16, r24
    12a6:	80 e1       	ldi	r24, 0x10	; 16
    12a8:	0e 94 fa 0e 	call	0x1df4	; 0x1df4 <get_key_rpt>
    12ac:	80 2b       	or	r24, r16
    12ae:	19 f0       	breq	.+6      	; 0x12b6 <menue_temperatur_offset+0xc2>
    12b0:	88 81       	ld	r24, Y
    12b2:	82 50       	subi	r24, 0x02	; 2
    12b4:	88 83       	st	Y, r24
        if (get_key_press( 1<<KEY_OK) | get_key_rpt(1<< KEY_OK))				 // Wenn Taste OK gedrückt -> Offset speichern und Menue verlassen
    12b6:	84 e0       	ldi	r24, 0x04	; 4
    12b8:	0e 94 ef 0e 	call	0x1dde	; 0x1dde <get_key_press>
    12bc:	08 2f       	mov	r16, r24
    12be:	84 e0       	ldi	r24, 0x04	; 4
    12c0:	0e 94 fa 0e 	call	0x1df4	; 0x1df4 <get_key_rpt>
    12c4:	80 2b       	or	r24, r16
    12c6:	d9 f0       	breq	.+54     	; 0x12fe <menue_temperatur_offset+0x10a>
        {
            lcd_command(LCD_CLEAR);
    12c8:	81 e0       	ldi	r24, 0x01	; 1
    12ca:	0e 94 04 04 	call	0x808	; 0x808 <lcd_command>
            lcd_printlc(1,1,(unsigned char*) "Speichere Daten");
    12ce:	81 e0       	ldi	r24, 0x01	; 1
    12d0:	61 e0       	ldi	r22, 0x01	; 1
    12d2:	42 e0       	ldi	r20, 0x02	; 2
    12d4:	51 e0       	ldi	r21, 0x01	; 1
    12d6:	0e 94 46 03 	call	0x68c	; 0x68c <lcd_printlc>
            eeprom_write_byte(&temperatur_offset_eeprom, *offset);				// Schreibe Offset ins EEPROM
    12da:	80 e0       	ldi	r24, 0x00	; 0
    12dc:	90 e0       	ldi	r25, 0x00	; 0
    12de:	68 81       	ld	r22, Y
    12e0:	0e 94 3c 13 	call	0x2678	; 0x2678 <__eewr_byte_m644p>
    12e4:	8f ef       	ldi	r24, 0xFF	; 255
    12e6:	99 e6       	ldi	r25, 0x69	; 105
    12e8:	a8 e1       	ldi	r26, 0x18	; 24
    12ea:	81 50       	subi	r24, 0x01	; 1
    12ec:	90 40       	sbci	r25, 0x00	; 0
    12ee:	a0 40       	sbci	r26, 0x00	; 0
    12f0:	e1 f7       	brne	.-8      	; 0x12ea <menue_temperatur_offset+0xf6>
    12f2:	00 c0       	rjmp	.+0      	; 0x12f4 <menue_temperatur_offset+0x100>
    12f4:	00 00       	nop
            _delay_ms(500);
            lcd_command(LCD_CLEAR);
    12f6:	81 e0       	ldi	r24, 0x01	; 1
    12f8:	0e 94 04 04 	call	0x808	; 0x808 <lcd_command>
            break;     // Menue verassen
    12fc:	0b c0       	rjmp	.+22     	; 0x1314 <menue_temperatur_offset+0x120>
        }
        if (get_key_press( 1<<KEY_ESC) | get_key_rpt(1<< KEY_ESC))				 // Wenn Taste ESC gedrückt -> Alten Offset behalten und Menue verlassen
    12fe:	80 e2       	ldi	r24, 0x20	; 32
    1300:	0e 94 ef 0e 	call	0x1dde	; 0x1dde <get_key_press>
    1304:	08 2f       	mov	r16, r24
    1306:	80 e2       	ldi	r24, 0x20	; 32
    1308:	0e 94 fa 0e 	call	0x1df4	; 0x1df4 <get_key_rpt>
    130c:	80 2b       	or	r24, r16
    130e:	09 f4       	brne	.+2      	; 0x1312 <menue_temperatur_offset+0x11e>
    1310:	7e cf       	rjmp	.-260    	; 0x120e <menue_temperatur_offset+0x1a>
        {
            *offset = offset_alt; // Neuen Offset verwerfen
    1312:	f8 82       	st	Y, r15
            break;     // Menue verassen
        }
    }
}
    1314:	df 91       	pop	r29
    1316:	cf 91       	pop	r28
    1318:	1f 91       	pop	r17
    131a:	0f 91       	pop	r16
    131c:	ff 90       	pop	r15
    131e:	08 95       	ret

00001320 <MAIN_1>:
    lcd_print((unsigned char*)AboutText);
    _delay_ms(2000);   //show for 3 seconds
}
void MAIN_1(void)
{
    lcd_command(LCD_CLEAR);
    1320:	81 e0       	ldi	r24, 0x01	; 1
    1322:	0e 94 04 04 	call	0x808	; 0x808 <lcd_command>
    menue_temperatur_offset(&temperatur_offset);
    1326:	87 eb       	ldi	r24, 0xB7	; 183
    1328:	92 e0       	ldi	r25, 0x02	; 2
    132a:	0e 94 fa 08 	call	0x11f4	; 0x11f4 <menue_temperatur_offset>
    lcd_command(LCD_CLEAR);
    132e:	81 e0       	ldi	r24, 0x01	; 1
    1330:	0e 94 04 04 	call	0x808	; 0x808 <lcd_command>
}
    1334:	08 95       	ret

00001336 <menue_schalttemperaturen_einstellen>:
 * PE:schalt_temperaturen * schalt_aktuell // Schalttemperatur die geändert werden soll
 * PE:schalt_temperaturen * eeprom // EEPROM Speicherplatz der Schalttemperatur
 * PA:void
 *///---------------------------------------------------------------
void menue_schalttemperaturen_einstellen( unsigned char *text1, unsigned char *text2, unsigned char *text3, schalt_temperaturen *schalt_aktuell,schalt_temperaturen *eeprom)
{
    1336:	6f 92       	push	r6
    1338:	7f 92       	push	r7
    133a:	8f 92       	push	r8
    133c:	9f 92       	push	r9
    133e:	af 92       	push	r10
    1340:	bf 92       	push	r11
    1342:	cf 92       	push	r12
    1344:	df 92       	push	r13
    1346:	ef 92       	push	r14
    1348:	ff 92       	push	r15
    134a:	0f 93       	push	r16
    134c:	1f 93       	push	r17
    134e:	df 93       	push	r29
    1350:	cf 93       	push	r28
    1352:	cd b7       	in	r28, 0x3d	; 61
    1354:	de b7       	in	r29, 0x3e	; 62
    1356:	2d 97       	sbiw	r28, 0x0d	; 13
    1358:	0f b6       	in	r0, 0x3f	; 63
    135a:	f8 94       	cli
    135c:	de bf       	out	0x3e, r29	; 62
    135e:	0f be       	out	0x3f, r0	; 63
    1360:	cd bf       	out	0x3d, r28	; 61
    1362:	3c 01       	movw	r6, r24
    1364:	6b 01       	movw	r12, r22
    1366:	5a 01       	movw	r10, r20
    1368:	79 01       	movw	r14, r18
    136a:	48 01       	movw	r8, r16
    uint8_t display_update =1, cursor_position =2;
    struct schalt_temperaturen alt;
    char buffer[7];
    alt = *schalt_aktuell;
    136c:	ce 01       	movw	r24, r28
    136e:	01 96       	adiw	r24, 0x01	; 1
    1370:	d9 01       	movw	r26, r18
    1372:	26 e0       	ldi	r18, 0x06	; 6
    1374:	0d 90       	ld	r0, X+
    1376:	fc 01       	movw	r30, r24
    1378:	01 92       	st	Z+, r0
    137a:	cf 01       	movw	r24, r30
    137c:	21 50       	subi	r18, 0x01	; 1
    137e:	d1 f7       	brne	.-12     	; 0x1374 <menue_schalttemperaturen_einstellen+0x3e>
    *buffer = NULL;
    1380:	1f 82       	std	Y+7, r1	; 0x07

    lcd_printlc(2,1,(unsigned char*) text1);// String ausgeben
    1382:	82 e0       	ldi	r24, 0x02	; 2
    1384:	61 e0       	ldi	r22, 0x01	; 1
    1386:	a3 01       	movw	r20, r6
    1388:	0e 94 46 03 	call	0x68c	; 0x68c <lcd_printlc>
    lcd_printlc(3,1, (unsigned char*) text2); // String ausgeben
    138c:	83 e0       	ldi	r24, 0x03	; 3
    138e:	61 e0       	ldi	r22, 0x01	; 1
    1390:	a6 01       	movw	r20, r12
    1392:	0e 94 46 03 	call	0x68c	; 0x68c <lcd_printlc>
    lcd_printlc(4,1, (unsigned char*) text3); // String ausgeben
    1396:	84 e0       	ldi	r24, 0x04	; 4
    1398:	61 e0       	ldi	r22, 0x01	; 1
    139a:	a5 01       	movw	r20, r10
    139c:	0e 94 46 03 	call	0x68c	; 0x68c <lcd_printlc>
 * PE:schalt_temperaturen * eeprom // EEPROM Speicherplatz der Schalttemperatur
 * PA:void
 *///---------------------------------------------------------------
void menue_schalttemperaturen_einstellen( unsigned char *text1, unsigned char *text2, unsigned char *text3, schalt_temperaturen *schalt_aktuell,schalt_temperaturen *eeprom)
{
    uint8_t display_update =1, cursor_position =2;
    13a0:	22 e0       	ldi	r18, 0x02	; 2
    13a2:	b2 2e       	mov	r11, r18
    13a4:	aa 24       	eor	r10, r10
    13a6:	a3 94       	inc	r10
        }

        if(display_update)  // Wenn sich die Werte geändert haben Displayy bei schreiben
        {
            display_update =0;  //
            temperatur_to_string(schalt_aktuell->max, buffer); // in String konvertieren
    13a8:	8e 01       	movw	r16, r28
    13aa:	09 5f       	subi	r16, 0xF9	; 249
    13ac:	1f 4f       	sbci	r17, 0xFF	; 255
                (schalt_aktuell->max == 600) ? (schalt_aktuell->max =0) : (schalt_aktuell->max++);	// Abfrage ob Minutenüberlauf und dann Wert setzen
                display_update =1;																		// Zeit hat sich geändert
            }
            else if ( get_key_press( 1<<KEY_DOWN ) | get_key_rpt(1<< KEY_DOWN))							// Taste DOWN gedrückt
            {
                (schalt_aktuell->max== 0) ? (schalt_aktuell->max =600) : (schalt_aktuell->max--);		// Abfrage ob Minutenüberlauf und dann Wert setzen
    13ae:	98 e5       	ldi	r25, 0x58	; 88
    13b0:	c9 2e       	mov	r12, r25
    13b2:	92 e0       	ldi	r25, 0x02	; 2
    13b4:	d9 2e       	mov	r13, r25
    lcd_printlc(3,1, (unsigned char*) text2); // String ausgeben
    lcd_printlc(4,1, (unsigned char*) text3); // String ausgeben
    while(1)
    {

        lcd_gotolr(cursor_position,17);										// Cursor Position auf  Temperatur.max im Bildschirm
    13b6:	8b 2d       	mov	r24, r11
    13b8:	61 e1       	ldi	r22, 0x11	; 17
    13ba:	0e 94 d2 02 	call	0x5a4	; 0x5a4 <lcd_gotolr>
        lcd_command(LCD_CURSORON | LCD_BLINKINGON);							// Blinkender Cursor
    13be:	8f e0       	ldi	r24, 0x0F	; 15
    13c0:	0e 94 04 04 	call	0x808	; 0x808 <lcd_command>
        if (get_key_short(1<<KEY_RIGHT)) (cursor_position==3) ? (cursor_position = 2) : (cursor_position++);		// nächste Einstellug
    13c4:	88 e0       	ldi	r24, 0x08	; 8
    13c6:	0e 94 05 0f 	call	0x1e0a	; 0x1e0a <get_key_short>
    13ca:	88 23       	and	r24, r24
    13cc:	29 f0       	breq	.+10     	; 0x13d8 <menue_schalttemperaturen_einstellen+0xa2>
    13ce:	fb 2d       	mov	r31, r11
    13d0:	f3 30       	cpi	r31, 0x03	; 3
    13d2:	09 f0       	breq	.+2      	; 0x13d6 <menue_schalttemperaturen_einstellen+0xa0>
    13d4:	3f c0       	rjmp	.+126    	; 0x1454 <menue_schalttemperaturen_einstellen+0x11e>
    13d6:	3b c0       	rjmp	.+118    	; 0x144e <menue_schalttemperaturen_einstellen+0x118>
        else if (get_key_short(1<<KEY_LEFT)) (cursor_position==2) ? (cursor_position = 3) : (cursor_position--);	// vorherige Einstellug
    13d8:	82 e0       	ldi	r24, 0x02	; 2
    13da:	0e 94 05 0f 	call	0x1e0a	; 0x1e0a <get_key_short>
    13de:	88 23       	and	r24, r24
    13e0:	21 f0       	breq	.+8      	; 0x13ea <menue_schalttemperaturen_einstellen+0xb4>
    13e2:	2b 2d       	mov	r18, r11
    13e4:	22 30       	cpi	r18, 0x02	; 2
    13e6:	99 f5       	brne	.+102    	; 0x144e <menue_schalttemperaturen_einstellen+0x118>
    13e8:	35 c0       	rjmp	.+106    	; 0x1454 <menue_schalttemperaturen_einstellen+0x11e>
        else if(get_key_press(1<<KEY_OK)) // Werte abspeichern und Menü verlassen
    13ea:	84 e0       	ldi	r24, 0x04	; 4
    13ec:	0e 94 ef 0e 	call	0x1dde	; 0x1dde <get_key_press>
    13f0:	88 23       	and	r24, r24
    13f2:	f9 f0       	breq	.+62     	; 0x1432 <menue_schalttemperaturen_einstellen+0xfc>
        {
            lcd_command(LCD_CURSOROFF | LCD_BLINKINGOFF);
    13f4:	8c e0       	ldi	r24, 0x0C	; 12
    13f6:	0e 94 04 04 	call	0x808	; 0x808 <lcd_command>
            lcd_command(LCD_CLEAR);
    13fa:	81 e0       	ldi	r24, 0x01	; 1
    13fc:	0e 94 04 04 	call	0x808	; 0x808 <lcd_command>
            lcd_printlc(1,1,(unsigned char*) "Speichere Daten");
    1400:	81 e0       	ldi	r24, 0x01	; 1
    1402:	61 e0       	ldi	r22, 0x01	; 1
    1404:	42 e0       	ldi	r20, 0x02	; 2
    1406:	51 e0       	ldi	r21, 0x01	; 1
    1408:	0e 94 46 03 	call	0x68c	; 0x68c <lcd_printlc>
            eeprom_write_block (schalt_aktuell, eeprom, sizeof(schalt_temperaturen)); // Schalttemperaturen im EEPROM speichern
    140c:	c7 01       	movw	r24, r14
    140e:	b4 01       	movw	r22, r8
    1410:	46 e0       	ldi	r20, 0x06	; 6
    1412:	50 e0       	ldi	r21, 0x00	; 0
    1414:	0e 94 32 13 	call	0x2664	; 0x2664 <__eewr_block_m644p>
    1418:	8f ef       	ldi	r24, 0xFF	; 255
    141a:	99 e6       	ldi	r25, 0x69	; 105
    141c:	a8 e1       	ldi	r26, 0x18	; 24
    141e:	81 50       	subi	r24, 0x01	; 1
    1420:	90 40       	sbci	r25, 0x00	; 0
    1422:	a0 40       	sbci	r26, 0x00	; 0
    1424:	e1 f7       	brne	.-8      	; 0x141e <menue_schalttemperaturen_einstellen+0xe8>
    1426:	00 c0       	rjmp	.+0      	; 0x1428 <menue_schalttemperaturen_einstellen+0xf2>
    1428:	00 00       	nop
            _delay_ms(500);
            lcd_command(LCD_CLEAR); // LCD Anzeige löschen
    142a:	81 e0       	ldi	r24, 0x01	; 1
    142c:	0e 94 04 04 	call	0x808	; 0x808 <lcd_command>
            break;
    1430:	b2 c0       	rjmp	.+356    	; 0x1596 <menue_schalttemperaturen_einstellen+0x260>
        }
        else if(get_key_press(1<<KEY_ESC)) // Menü verlassen ohne die neuen Werte abzuspeichern
    1432:	80 e2       	ldi	r24, 0x20	; 32
    1434:	0e 94 ef 0e 	call	0x1dde	; 0x1dde <get_key_press>
    1438:	88 23       	and	r24, r24
    143a:	71 f0       	breq	.+28     	; 0x1458 <menue_schalttemperaturen_einstellen+0x122>
        {
            *schalt_aktuell = alt;  // Neue Werte verwerfen
    143c:	d7 01       	movw	r26, r14
    143e:	fe 01       	movw	r30, r28
    1440:	31 96       	adiw	r30, 0x01	; 1
    1442:	86 e0       	ldi	r24, 0x06	; 6
    1444:	01 90       	ld	r0, Z+
    1446:	0d 92       	st	X+, r0
    1448:	81 50       	subi	r24, 0x01	; 1
    144a:	e1 f7       	brne	.-8      	; 0x1444 <menue_schalttemperaturen_einstellen+0x10e>
    144c:	a4 c0       	rjmp	.+328    	; 0x1596 <menue_schalttemperaturen_einstellen+0x260>
    while(1)
    {

        lcd_gotolr(cursor_position,17);										// Cursor Position auf  Temperatur.max im Bildschirm
        lcd_command(LCD_CURSORON | LCD_BLINKINGON);							// Blinkender Cursor
        if (get_key_short(1<<KEY_RIGHT)) (cursor_position==3) ? (cursor_position = 2) : (cursor_position++);		// nächste Einstellug
    144e:	82 e0       	ldi	r24, 0x02	; 2
    1450:	b8 2e       	mov	r11, r24
    1452:	02 c0       	rjmp	.+4      	; 0x1458 <menue_schalttemperaturen_einstellen+0x122>
        else if (get_key_short(1<<KEY_LEFT)) (cursor_position==2) ? (cursor_position = 3) : (cursor_position--);	// vorherige Einstellug
    1454:	b3 e0       	ldi	r27, 0x03	; 3
    1456:	bb 2e       	mov	r11, r27
        {
            *schalt_aktuell = alt;  // Neue Werte verwerfen
            break; 	// Funktion verlassen
        }

        if(display_update)  // Wenn sich die Werte geändert haben Displayy bei schreiben
    1458:	aa 20       	and	r10, r10
    145a:	a1 f1       	breq	.+104    	; 0x14c4 <menue_schalttemperaturen_einstellen+0x18e>
        {
            display_update =0;  //
            temperatur_to_string(schalt_aktuell->max, buffer); // in String konvertieren
    145c:	d7 01       	movw	r26, r14
    145e:	8d 91       	ld	r24, X+
    1460:	9c 91       	ld	r25, X
    1462:	b8 01       	movw	r22, r16
    1464:	0e 94 73 08 	call	0x10e6	; 0x10e6 <temperatur_to_string>
            lcd_printlc(2,14, (unsigned char*) buffer); // Schalttemperatur max anzeigen
    1468:	82 e0       	ldi	r24, 0x02	; 2
    146a:	6e e0       	ldi	r22, 0x0E	; 14
    146c:	a8 01       	movw	r20, r16
    146e:	0e 94 46 03 	call	0x68c	; 0x68c <lcd_printlc>
            temperatur_to_string(schalt_aktuell->min, buffer); // in String konvertieren
    1472:	f7 01       	movw	r30, r14
    1474:	82 81       	ldd	r24, Z+2	; 0x02
    1476:	93 81       	ldd	r25, Z+3	; 0x03
    1478:	b8 01       	movw	r22, r16
    147a:	0e 94 73 08 	call	0x10e6	; 0x10e6 <temperatur_to_string>
            lcd_printlc(3,14, (unsigned char*) buffer); // Schalttemperatur min anzeigen
    147e:	83 e0       	ldi	r24, 0x03	; 3
    1480:	6e e0       	ldi	r22, 0x0E	; 14
    1482:	a8 01       	movw	r20, r16
    1484:	0e 94 46 03 	call	0x68c	; 0x68c <lcd_printlc>
            // Hysterese -> Betrag zwischen max und min Wert berechnen und in String konvertieren
            (schalt_aktuell->max >= schalt_aktuell->min) ? (temperatur_to_string(schalt_aktuell->max-schalt_aktuell->min, buffer)) :(temperatur_to_string(schalt_aktuell->min-schalt_aktuell->max, buffer));
    1488:	d7 01       	movw	r26, r14
    148a:	8d 91       	ld	r24, X+
    148c:	9c 91       	ld	r25, X
    148e:	11 97       	sbiw	r26, 0x01	; 1
    1490:	12 96       	adiw	r26, 0x02	; 2
    1492:	2d 91       	ld	r18, X+
    1494:	3c 91       	ld	r19, X
    1496:	13 97       	sbiw	r26, 0x03	; 3
    1498:	82 17       	cp	r24, r18
    149a:	93 07       	cpc	r25, r19
    149c:	18 f0       	brcs	.+6      	; 0x14a4 <menue_schalttemperaturen_einstellen+0x16e>
    149e:	82 1b       	sub	r24, r18
    14a0:	93 0b       	sbc	r25, r19
    14a2:	04 c0       	rjmp	.+8      	; 0x14ac <menue_schalttemperaturen_einstellen+0x176>
    14a4:	f9 01       	movw	r30, r18
    14a6:	e8 1b       	sub	r30, r24
    14a8:	f9 0b       	sbc	r31, r25
    14aa:	cf 01       	movw	r24, r30
    14ac:	b8 01       	movw	r22, r16
    14ae:	0e 94 73 08 	call	0x10e6	; 0x10e6 <temperatur_to_string>
            lcd_printlc(4,14, (unsigned char*) buffer); // Hysterese anzeigen
    14b2:	84 e0       	ldi	r24, 0x04	; 4
    14b4:	6e e0       	ldi	r22, 0x0E	; 14
    14b6:	a8 01       	movw	r20, r16
    14b8:	0e 94 46 03 	call	0x68c	; 0x68c <lcd_printlc>
            lcd_print(" "); //
    14bc:	82 e1       	ldi	r24, 0x12	; 18
    14be:	91 e0       	ldi	r25, 0x01	; 1
    14c0:	0e 94 aa 02 	call	0x554	; 0x554 <lcd_print>
        }
        switch (cursor_position)
    14c4:	fb 2d       	mov	r31, r11
    14c6:	f3 30       	cpi	r31, 0x03	; 3
    14c8:	81 f1       	breq	.+96     	; 0x152a <menue_schalttemperaturen_einstellen+0x1f4>
        {
        case 2:
        {
            if (get_key_press( 1<<KEY_UP) | get_key_rpt(1<< KEY_UP))									// Taste UP gedrückt
    14ca:	81 e0       	ldi	r24, 0x01	; 1
    14cc:	0e 94 ef 0e 	call	0x1dde	; 0x1dde <get_key_press>
    14d0:	a8 2e       	mov	r10, r24
    14d2:	81 e0       	ldi	r24, 0x01	; 1
    14d4:	0e 94 fa 0e 	call	0x1df4	; 0x1df4 <get_key_rpt>
    14d8:	8a 29       	or	r24, r10
    14da:	71 f0       	breq	.+28     	; 0x14f8 <menue_schalttemperaturen_einstellen+0x1c2>
            {
                (schalt_aktuell->max == 600) ? (schalt_aktuell->max =0) : (schalt_aktuell->max++);	// Abfrage ob Minutenüberlauf und dann Wert setzen
    14dc:	d7 01       	movw	r26, r14
    14de:	8d 91       	ld	r24, X+
    14e0:	9c 91       	ld	r25, X
    14e2:	11 97       	sbiw	r26, 0x01	; 1
    14e4:	b2 e0       	ldi	r27, 0x02	; 2
    14e6:	88 35       	cpi	r24, 0x58	; 88
    14e8:	9b 07       	cpc	r25, r27
    14ea:	21 f4       	brne	.+8      	; 0x14f4 <menue_schalttemperaturen_einstellen+0x1be>
    14ec:	f7 01       	movw	r30, r14
    14ee:	11 82       	std	Z+1, r1	; 0x01
    14f0:	10 82       	st	Z, r1
    14f2:	18 c0       	rjmp	.+48     	; 0x1524 <menue_schalttemperaturen_einstellen+0x1ee>
    14f4:	01 96       	adiw	r24, 0x01	; 1
    14f6:	12 c0       	rjmp	.+36     	; 0x151c <menue_schalttemperaturen_einstellen+0x1e6>
                display_update =1;																		// Zeit hat sich geändert
            }
            else if ( get_key_press( 1<<KEY_DOWN ) | get_key_rpt(1<< KEY_DOWN))							// Taste DOWN gedrückt
    14f8:	80 e1       	ldi	r24, 0x10	; 16
    14fa:	0e 94 ef 0e 	call	0x1dde	; 0x1dde <get_key_press>
    14fe:	a8 2e       	mov	r10, r24
    1500:	80 e1       	ldi	r24, 0x10	; 16
    1502:	0e 94 fa 0e 	call	0x1df4	; 0x1df4 <get_key_rpt>
    1506:	8a 29       	or	r24, r10
    1508:	81 f0       	breq	.+32     	; 0x152a <menue_schalttemperaturen_einstellen+0x1f4>
            {
                (schalt_aktuell->max== 0) ? (schalt_aktuell->max =600) : (schalt_aktuell->max--);		// Abfrage ob Minutenüberlauf und dann Wert setzen
    150a:	f7 01       	movw	r30, r14
    150c:	80 81       	ld	r24, Z
    150e:	91 81       	ldd	r25, Z+1	; 0x01
    1510:	00 97       	sbiw	r24, 0x00	; 0
    1512:	19 f4       	brne	.+6      	; 0x151a <menue_schalttemperaturen_einstellen+0x1e4>
    1514:	d1 82       	std	Z+1, r13	; 0x01
    1516:	c0 82       	st	Z, r12
    1518:	05 c0       	rjmp	.+10     	; 0x1524 <menue_schalttemperaturen_einstellen+0x1ee>
    151a:	01 97       	sbiw	r24, 0x01	; 1
    151c:	d7 01       	movw	r26, r14
    151e:	11 96       	adiw	r26, 0x01	; 1
    1520:	9c 93       	st	X, r25
    1522:	8e 93       	st	-X, r24
                display_update = 1;																		// Zeit hat sich geänder
    1524:	aa 24       	eor	r10, r10
    1526:	a3 94       	inc	r10
    1528:	01 c0       	rjmp	.+2      	; 0x152c <menue_schalttemperaturen_einstellen+0x1f6>
            if (get_key_press( 1<<KEY_UP) | get_key_rpt(1<< KEY_UP))									// Taste UP gedrückt
            {
                (schalt_aktuell->max == 600) ? (schalt_aktuell->max =0) : (schalt_aktuell->max++);	// Abfrage ob Minutenüberlauf und dann Wert setzen
                display_update =1;																		// Zeit hat sich geändert
            }
            else if ( get_key_press( 1<<KEY_DOWN ) | get_key_rpt(1<< KEY_DOWN))							// Taste DOWN gedrückt
    152a:	aa 24       	eor	r10, r10
                display_update = 1;																		// Zeit hat sich geänder
            }
        }
        case 3:
        {
            if (get_key_press( 1<<KEY_UP) | get_key_rpt(1<< KEY_UP))									// Taste UP gedrückt
    152c:	81 e0       	ldi	r24, 0x01	; 1
    152e:	0e 94 ef 0e 	call	0x1dde	; 0x1dde <get_key_press>
    1532:	78 2e       	mov	r7, r24
    1534:	81 e0       	ldi	r24, 0x01	; 1
    1536:	0e 94 fa 0e 	call	0x1df4	; 0x1df4 <get_key_rpt>
    153a:	87 29       	or	r24, r7
    153c:	79 f0       	breq	.+30     	; 0x155c <menue_schalttemperaturen_einstellen+0x226>
            {
                (schalt_aktuell->min == 600) ? (schalt_aktuell->min =0) : (schalt_aktuell->min++);	// Abfrage ob Minutenüberlauf und dann Wert setzen
    153e:	f7 01       	movw	r30, r14
    1540:	82 81       	ldd	r24, Z+2	; 0x02
    1542:	93 81       	ldd	r25, Z+3	; 0x03
    1544:	f2 e0       	ldi	r31, 0x02	; 2
    1546:	88 35       	cpi	r24, 0x58	; 88
    1548:	9f 07       	cpc	r25, r31
    154a:	31 f4       	brne	.+12     	; 0x1558 <menue_schalttemperaturen_einstellen+0x222>
    154c:	d7 01       	movw	r26, r14
    154e:	13 96       	adiw	r26, 0x03	; 3
    1550:	1c 92       	st	X, r1
    1552:	1e 92       	st	-X, r1
    1554:	12 97       	sbiw	r26, 0x02	; 2
    1556:	1c c0       	rjmp	.+56     	; 0x1590 <menue_schalttemperaturen_einstellen+0x25a>
    1558:	01 96       	adiw	r24, 0x01	; 1
    155a:	17 c0       	rjmp	.+46     	; 0x158a <menue_schalttemperaturen_einstellen+0x254>
                display_update =1;																		// Zeit hat sich geändert
            }
            else if ( get_key_press( 1<<KEY_DOWN ) | get_key_rpt(1<< KEY_DOWN))							// Taste DOWN gedrückt
    155c:	80 e1       	ldi	r24, 0x10	; 16
    155e:	0e 94 ef 0e 	call	0x1dde	; 0x1dde <get_key_press>
    1562:	78 2e       	mov	r7, r24
    1564:	80 e1       	ldi	r24, 0x10	; 16
    1566:	0e 94 fa 0e 	call	0x1df4	; 0x1df4 <get_key_rpt>
    156a:	87 29       	or	r24, r7
    156c:	09 f4       	brne	.+2      	; 0x1570 <menue_schalttemperaturen_einstellen+0x23a>
    156e:	23 cf       	rjmp	.-442    	; 0x13b6 <menue_schalttemperaturen_einstellen+0x80>
            {
                (schalt_aktuell->min== 0) ? (schalt_aktuell->min =600) : (schalt_aktuell->min--);		// Abfrage ob Minutenüberlauf und dann Wert setzen
    1570:	d7 01       	movw	r26, r14
    1572:	12 96       	adiw	r26, 0x02	; 2
    1574:	8d 91       	ld	r24, X+
    1576:	9c 91       	ld	r25, X
    1578:	13 97       	sbiw	r26, 0x03	; 3
    157a:	00 97       	sbiw	r24, 0x00	; 0
    157c:	29 f4       	brne	.+10     	; 0x1588 <menue_schalttemperaturen_einstellen+0x252>
    157e:	13 96       	adiw	r26, 0x03	; 3
    1580:	dc 92       	st	X, r13
    1582:	ce 92       	st	-X, r12
    1584:	12 97       	sbiw	r26, 0x02	; 2
    1586:	04 c0       	rjmp	.+8      	; 0x1590 <menue_schalttemperaturen_einstellen+0x25a>
    1588:	01 97       	sbiw	r24, 0x01	; 1
    158a:	f7 01       	movw	r30, r14
    158c:	93 83       	std	Z+3, r25	; 0x03
    158e:	82 83       	std	Z+2, r24	; 0x02
                display_update = 1;																		// Zeit hat sich geänder
    1590:	aa 24       	eor	r10, r10
    1592:	a3 94       	inc	r10
    1594:	10 cf       	rjmp	.-480    	; 0x13b6 <menue_schalttemperaturen_einstellen+0x80>
            }
        }
        }
    }
}
    1596:	2d 96       	adiw	r28, 0x0d	; 13
    1598:	0f b6       	in	r0, 0x3f	; 63
    159a:	f8 94       	cli
    159c:	de bf       	out	0x3e, r29	; 62
    159e:	0f be       	out	0x3f, r0	; 63
    15a0:	cd bf       	out	0x3d, r28	; 61
    15a2:	cf 91       	pop	r28
    15a4:	df 91       	pop	r29
    15a6:	1f 91       	pop	r17
    15a8:	0f 91       	pop	r16
    15aa:	ff 90       	pop	r15
    15ac:	ef 90       	pop	r14
    15ae:	df 90       	pop	r13
    15b0:	cf 90       	pop	r12
    15b2:	bf 90       	pop	r11
    15b4:	af 90       	pop	r10
    15b6:	9f 90       	pop	r9
    15b8:	8f 90       	pop	r8
    15ba:	7f 90       	pop	r7
    15bc:	6f 90       	pop	r6
    15be:	08 95       	ret

000015c0 <MAIN_2>:
 PURPOSE:   |
 ARGUMENTS: | None
 RETURNS:   | None
*/
void MAIN_2(void)
{
    15c0:	af 92       	push	r10
    15c2:	bf 92       	push	r11
    15c4:	cf 92       	push	r12
    15c6:	df 92       	push	r13
    15c8:	ef 92       	push	r14
    15ca:	ff 92       	push	r15
    15cc:	0f 93       	push	r16
    15ce:	1f 93       	push	r17
    15d0:	cf 93       	push	r28
    15d2:	df 93       	push	r29
    lcd_command(LCD_CLEAR);
    15d4:	81 e0       	ldi	r24, 0x01	; 1
    15d6:	0e 94 04 04 	call	0x808	; 0x808 <lcd_command>
    lcd_printlrc(1,1,(unsigned char *)strcpy_P (anzeigetext,PSTR("Heizer einstellungen")));
    15da:	c8 e8       	ldi	r28, 0x88	; 136
    15dc:	d2 e0       	ldi	r29, 0x02	; 2
    15de:	ce 01       	movw	r24, r28
    15e0:	62 e4       	ldi	r22, 0x42	; 66
    15e2:	72 e0       	ldi	r23, 0x02	; 2
    15e4:	0e 94 09 11 	call	0x2212	; 0x2212 <strcpy_P>
    15e8:	ac 01       	movw	r20, r24
    15ea:	81 e0       	ldi	r24, 0x01	; 1
    15ec:	61 e0       	ldi	r22, 0x01	; 1
    15ee:	0e 94 1e 03 	call	0x63c	; 0x63c <lcd_printlrc>
    menue_schalttemperaturen_einstellen((unsigned char*)"Heizer ein:", (unsigned char*)"Heizer aus:", (unsigned char*)"Hysterese:",&heizer, &heizer_eeprom);
    15f2:	8f e7       	ldi	r24, 0x7F	; 127
    15f4:	91 e0       	ldi	r25, 0x01	; 1
    15f6:	6b e8       	ldi	r22, 0x8B	; 139
    15f8:	71 e0       	ldi	r23, 0x01	; 1
    15fa:	47 e9       	ldi	r20, 0x97	; 151
    15fc:	51 e0       	ldi	r21, 0x01	; 1
    15fe:	28 eb       	ldi	r18, 0xB8	; 184
    1600:	32 e0       	ldi	r19, 0x02	; 2
    1602:	07 e0       	ldi	r16, 0x07	; 7
    1604:	10 e0       	ldi	r17, 0x00	; 0
    1606:	0e 94 9b 09 	call	0x1336	; 0x1336 <menue_schalttemperaturen_einstellen>
    lcd_command(LCD_CLEAR);
    160a:	81 e0       	ldi	r24, 0x01	; 1
    160c:	0e 94 04 04 	call	0x808	; 0x808 <lcd_command>

    lcd_command(LCD_CLEAR);
    1610:	81 e0       	ldi	r24, 0x01	; 1
    1612:	0e 94 04 04 	call	0x808	; 0x808 <lcd_command>
    lcd_printlrc(1,1,(unsigned char *)strcpy_P (anzeigetext,PSTR("Luefter einstellung")));
    1616:	ce 01       	movw	r24, r28
    1618:	6e e2       	ldi	r22, 0x2E	; 46
    161a:	72 e0       	ldi	r23, 0x02	; 2
    161c:	0e 94 09 11 	call	0x2212	; 0x2212 <strcpy_P>
    1620:	ac 01       	movw	r20, r24
    1622:	81 e0       	ldi	r24, 0x01	; 1
    1624:	61 e0       	ldi	r22, 0x01	; 1
    1626:	0e 94 1e 03 	call	0x63c	; 0x63c <lcd_printlrc>
    menue_schalttemperaturen_einstellen(strcpy_P (anzeigetext,PSTR("Luefter ein:")), (unsigned char*)strcpy_P (anzeigetext1,PSTR("Luefter aus:")), (unsigned char*)strcpy_P (anzeigetext2,PSTR("Hysterese:")),&luefter, &luefter_eeprom);
    162a:	ce 01       	movw	r24, r28
    162c:	61 e2       	ldi	r22, 0x21	; 33
    162e:	72 e0       	ldi	r23, 0x02	; 2
    1630:	0e 94 09 11 	call	0x2212	; 0x2212 <strcpy_P>
    1634:	8c 01       	movw	r16, r24
    1636:	41 ed       	ldi	r20, 0xD1	; 209
    1638:	e4 2e       	mov	r14, r20
    163a:	42 e0       	ldi	r20, 0x02	; 2
    163c:	f4 2e       	mov	r15, r20
    163e:	c7 01       	movw	r24, r14
    1640:	64 e1       	ldi	r22, 0x14	; 20
    1642:	72 e0       	ldi	r23, 0x02	; 2
    1644:	0e 94 09 11 	call	0x2212	; 0x2212 <strcpy_P>
    1648:	6c 01       	movw	r12, r24
    164a:	34 e0       	ldi	r19, 0x04	; 4
    164c:	a3 2e       	mov	r10, r19
    164e:	33 e0       	ldi	r19, 0x03	; 3
    1650:	b3 2e       	mov	r11, r19
    1652:	c5 01       	movw	r24, r10
    1654:	69 e0       	ldi	r22, 0x09	; 9
    1656:	72 e0       	ldi	r23, 0x02	; 2
    1658:	0e 94 09 11 	call	0x2212	; 0x2212 <strcpy_P>
    165c:	ac 01       	movw	r20, r24
    165e:	c8 01       	movw	r24, r16
    1660:	b6 01       	movw	r22, r12
    1662:	22 e8       	ldi	r18, 0x82	; 130
    1664:	32 e0       	ldi	r19, 0x02	; 2
    1666:	0d e0       	ldi	r16, 0x0D	; 13
    1668:	10 e0       	ldi	r17, 0x00	; 0
    166a:	0e 94 9b 09 	call	0x1336	; 0x1336 <menue_schalttemperaturen_einstellen>
    lcd_command(LCD_CLEAR);
    166e:	81 e0       	ldi	r24, 0x01	; 1
    1670:	0e 94 04 04 	call	0x808	; 0x808 <lcd_command>

    lcd_command(LCD_CLEAR);
    1674:	81 e0       	ldi	r24, 0x01	; 1
    1676:	0e 94 04 04 	call	0x808	; 0x808 <lcd_command>
    lcd_printlrc(1,1,(unsigned char *)strcpy_P (anzeigetext,PSTR("Temperatur Min/Max:")));
    167a:	ce 01       	movw	r24, r28
    167c:	65 ef       	ldi	r22, 0xF5	; 245
    167e:	71 e0       	ldi	r23, 0x01	; 1
    1680:	0e 94 09 11 	call	0x2212	; 0x2212 <strcpy_P>
    1684:	ac 01       	movw	r20, r24
    1686:	81 e0       	ldi	r24, 0x01	; 1
    1688:	61 e0       	ldi	r22, 0x01	; 1
    168a:	0e 94 1e 03 	call	0x63c	; 0x63c <lcd_printlrc>
    menue_schalttemperaturen_einstellen(strcpy_P (anzeigetext,PSTR("Temp. Max:")), (unsigned char*)strcpy_P (anzeigetext1,PSTR("Temp. Min:")), (unsigned char*)strcpy_P (anzeigetext2,PSTR("Hysterese:")),&alarm, &alarm_eeprom);
    168e:	ce 01       	movw	r24, r28
    1690:	6a ee       	ldi	r22, 0xEA	; 234
    1692:	71 e0       	ldi	r23, 0x01	; 1
    1694:	0e 94 09 11 	call	0x2212	; 0x2212 <strcpy_P>
    1698:	ec 01       	movw	r28, r24
    169a:	c7 01       	movw	r24, r14
    169c:	6f ed       	ldi	r22, 0xDF	; 223
    169e:	71 e0       	ldi	r23, 0x01	; 1
    16a0:	0e 94 09 11 	call	0x2212	; 0x2212 <strcpy_P>
    16a4:	8c 01       	movw	r16, r24
    16a6:	c5 01       	movw	r24, r10
    16a8:	64 ed       	ldi	r22, 0xD4	; 212
    16aa:	71 e0       	ldi	r23, 0x01	; 1
    16ac:	0e 94 09 11 	call	0x2212	; 0x2212 <strcpy_P>
    16b0:	ac 01       	movw	r20, r24
    16b2:	ce 01       	movw	r24, r28
    16b4:	b8 01       	movw	r22, r16
    16b6:	25 ec       	ldi	r18, 0xC5	; 197
    16b8:	32 e0       	ldi	r19, 0x02	; 2
    16ba:	01 e0       	ldi	r16, 0x01	; 1
    16bc:	10 e0       	ldi	r17, 0x00	; 0
    16be:	0e 94 9b 09 	call	0x1336	; 0x1336 <menue_schalttemperaturen_einstellen>
    lcd_command(LCD_CLEAR);
    16c2:	81 e0       	ldi	r24, 0x01	; 1
    16c4:	0e 94 04 04 	call	0x808	; 0x808 <lcd_command>

}
    16c8:	df 91       	pop	r29
    16ca:	cf 91       	pop	r28
    16cc:	1f 91       	pop	r17
    16ce:	0f 91       	pop	r16
    16d0:	ff 90       	pop	r15
    16d2:	ef 90       	pop	r14
    16d4:	df 90       	pop	r13
    16d6:	cf 90       	pop	r12
    16d8:	bf 90       	pop	r11
    16da:	af 90       	pop	r10
    16dc:	08 95       	ret

000016de <vergleiche_temperaturen>:
 * PE:uint32_t * aktuelle_temperatur // Aktuelle Temperatur des Wassers mit der verglichen wird
 * PA:uint8_t // Ergebniss zurückgeben 1 -> höher als max 2 -> kleiner als min, 0 -> Ergebniss zwischen den Temperaturen
 *///---------------------------------------------------------------
uint8_t vergleiche_temperaturen(uint16_t *minimum, uint16_t *maximum, uint16_t *aktuelle_temperatur)
{
    if (*aktuelle_temperatur > *maximum) // Temperatur höher als maximum
    16de:	fa 01       	movw	r30, r20
    16e0:	20 81       	ld	r18, Z
    16e2:	31 81       	ldd	r19, Z+1	; 0x01
    16e4:	fb 01       	movw	r30, r22
    16e6:	40 81       	ld	r20, Z
    16e8:	51 81       	ldd	r21, Z+1	; 0x01
    16ea:	42 17       	cp	r20, r18
    16ec:	53 07       	cpc	r21, r19
    16ee:	40 f0       	brcs	.+16     	; 0x1700 <vergleiche_temperaturen+0x22>
    {
        return 1;
    }
    else if ( *aktuelle_temperatur < *minimum) // Temperatur kleiner als minimum
    16f0:	fc 01       	movw	r30, r24
    16f2:	80 81       	ld	r24, Z
    16f4:	91 81       	ldd	r25, Z+1	; 0x01
    16f6:	28 17       	cp	r18, r24
    16f8:	39 07       	cpc	r19, r25
    16fa:	20 f4       	brcc	.+8      	; 0x1704 <vergleiche_temperaturen+0x26>
    {
        return 2;
    16fc:	82 e0       	ldi	r24, 0x02	; 2
    16fe:	08 95       	ret
 *///---------------------------------------------------------------
uint8_t vergleiche_temperaturen(uint16_t *minimum, uint16_t *maximum, uint16_t *aktuelle_temperatur)
{
    if (*aktuelle_temperatur > *maximum) // Temperatur höher als maximum
    {
        return 1;
    1700:	81 e0       	ldi	r24, 0x01	; 1
    1702:	08 95       	ret
    }
    else if ( *aktuelle_temperatur < *minimum) // Temperatur kleiner als minimum
    {
        return 2;
    }
    else return 0;  // Keines von beiden
    1704:	80 e0       	ldi	r24, 0x00	; 0
}
    1706:	08 95       	ret

00001708 <vergleiche_zeiten>:
 * PE:struct uhr * aus_zeit // Pointer auf struct der Ausschaltzeit
 * PE:struct uhr * aktuelle_zeit // Pointer auf struct der aktuellen Zeit
 * PA:uint8_t // 0 -> Aktuelle Zeit liegt ausserhalb den Schaltzeiten -> aus, 1 -> Aktuelle Zeit liegt zwischen den Schaltzeiten -> ein
 *///---------------------------------------------------------------
uint8_t vergleiche_zeiten(struct uhr *ein_zeit, struct uhr *aus_zeit, struct uhr *aktuelle_zeit)
{
    1708:	4f 92       	push	r4
    170a:	5f 92       	push	r5
    170c:	6f 92       	push	r6
    170e:	7f 92       	push	r7
    1710:	8f 92       	push	r8
    1712:	9f 92       	push	r9
    1714:	af 92       	push	r10
    1716:	bf 92       	push	r11
    1718:	cf 92       	push	r12
    171a:	df 92       	push	r13
    171c:	ef 92       	push	r14
    171e:	ff 92       	push	r15
    1720:	0f 93       	push	r16
    1722:	1f 93       	push	r17
    1724:	cf 93       	push	r28
    1726:	df 93       	push	r29
    1728:	ec 01       	movw	r28, r24
    172a:	7b 01       	movw	r14, r22
    172c:	2a 01       	movw	r4, r20
    uint32_t ein, aus, aktuell;
    // Um die Zeiten direkt miteinander vergleichen zu können, werden die Sekunden seit Mitternacht berechnet
    ein = ((uint32_t)ein_zeit->stunde * 3600)+((uint32_t)ein_zeit->minute * 60)+((uint32_t)ein_zeit->sekunde); // Einschaltzeit Sekunden seit Mitternacht
    172e:	6a 81       	ldd	r22, Y+2	; 0x02
    1730:	70 e0       	ldi	r23, 0x00	; 0
    1732:	80 e0       	ldi	r24, 0x00	; 0
    1734:	90 e0       	ldi	r25, 0x00	; 0
    1736:	20 e1       	ldi	r18, 0x10	; 16
    1738:	3e e0       	ldi	r19, 0x0E	; 14
    173a:	40 e0       	ldi	r20, 0x00	; 0
    173c:	50 e0       	ldi	r21, 0x00	; 0
    173e:	0e 94 a1 10 	call	0x2142	; 0x2142 <__mulsi3>
    1742:	5b 01       	movw	r10, r22
    1744:	6c 01       	movw	r12, r24
    1746:	68 81       	ld	r22, Y
    1748:	70 e0       	ldi	r23, 0x00	; 0
    174a:	80 e0       	ldi	r24, 0x00	; 0
    174c:	90 e0       	ldi	r25, 0x00	; 0
    174e:	2c e3       	ldi	r18, 0x3C	; 60
    1750:	30 e0       	ldi	r19, 0x00	; 0
    1752:	40 e0       	ldi	r20, 0x00	; 0
    1754:	50 e0       	ldi	r21, 0x00	; 0
    1756:	0e 94 a1 10 	call	0x2142	; 0x2142 <__mulsi3>
    175a:	a6 0e       	add	r10, r22
    175c:	b7 1e       	adc	r11, r23
    175e:	c8 1e       	adc	r12, r24
    1760:	d9 1e       	adc	r13, r25
    1762:	89 81       	ldd	r24, Y+1	; 0x01
    1764:	a8 0e       	add	r10, r24
    1766:	b1 1c       	adc	r11, r1
    1768:	c1 1c       	adc	r12, r1
    176a:	d1 1c       	adc	r13, r1
    aus = ((uint32_t)aus_zeit->stunde * 3600)+((uint32_t)aus_zeit->minute * 60)+((uint32_t)aus_zeit->sekunde); // Ausschaltzeit Sekunden seit Mitternacht
    176c:	f7 01       	movw	r30, r14
    176e:	62 81       	ldd	r22, Z+2	; 0x02
    1770:	70 e0       	ldi	r23, 0x00	; 0
    1772:	80 e0       	ldi	r24, 0x00	; 0
    1774:	90 e0       	ldi	r25, 0x00	; 0
    1776:	20 e1       	ldi	r18, 0x10	; 16
    1778:	3e e0       	ldi	r19, 0x0E	; 14
    177a:	40 e0       	ldi	r20, 0x00	; 0
    177c:	50 e0       	ldi	r21, 0x00	; 0
    177e:	0e 94 a1 10 	call	0x2142	; 0x2142 <__mulsi3>
    1782:	3b 01       	movw	r6, r22
    1784:	4c 01       	movw	r8, r24
    1786:	f7 01       	movw	r30, r14
    1788:	60 81       	ld	r22, Z
    178a:	70 e0       	ldi	r23, 0x00	; 0
    178c:	80 e0       	ldi	r24, 0x00	; 0
    178e:	90 e0       	ldi	r25, 0x00	; 0
    1790:	2c e3       	ldi	r18, 0x3C	; 60
    1792:	30 e0       	ldi	r19, 0x00	; 0
    1794:	40 e0       	ldi	r20, 0x00	; 0
    1796:	50 e0       	ldi	r21, 0x00	; 0
    1798:	0e 94 a1 10 	call	0x2142	; 0x2142 <__mulsi3>
    179c:	66 0e       	add	r6, r22
    179e:	77 1e       	adc	r7, r23
    17a0:	88 1e       	adc	r8, r24
    17a2:	99 1e       	adc	r9, r25
    17a4:	f7 01       	movw	r30, r14
    17a6:	81 81       	ldd	r24, Z+1	; 0x01
    17a8:	68 0e       	add	r6, r24
    17aa:	71 1c       	adc	r7, r1
    17ac:	81 1c       	adc	r8, r1
    17ae:	91 1c       	adc	r9, r1
    aktuell = ((uint32_t)aktuelle_zeit->stunde * 3600)+((uint32_t)aktuelle_zeit->minute * 60)+((uint32_t)aktuelle_zeit->sekunde); // Aktuelle Zeit Sekunden seit Mitternacht
    17b0:	f2 01       	movw	r30, r4
    17b2:	62 81       	ldd	r22, Z+2	; 0x02
    17b4:	70 e0       	ldi	r23, 0x00	; 0
    17b6:	80 e0       	ldi	r24, 0x00	; 0
    17b8:	90 e0       	ldi	r25, 0x00	; 0
    17ba:	20 e1       	ldi	r18, 0x10	; 16
    17bc:	3e e0       	ldi	r19, 0x0E	; 14
    17be:	40 e0       	ldi	r20, 0x00	; 0
    17c0:	50 e0       	ldi	r21, 0x00	; 0
    17c2:	0e 94 a1 10 	call	0x2142	; 0x2142 <__mulsi3>
    17c6:	7b 01       	movw	r14, r22
    17c8:	8c 01       	movw	r16, r24
    17ca:	f2 01       	movw	r30, r4
    17cc:	60 81       	ld	r22, Z
    17ce:	70 e0       	ldi	r23, 0x00	; 0
    17d0:	80 e0       	ldi	r24, 0x00	; 0
    17d2:	90 e0       	ldi	r25, 0x00	; 0
    17d4:	2c e3       	ldi	r18, 0x3C	; 60
    17d6:	30 e0       	ldi	r19, 0x00	; 0
    17d8:	40 e0       	ldi	r20, 0x00	; 0
    17da:	50 e0       	ldi	r21, 0x00	; 0
    17dc:	0e 94 a1 10 	call	0x2142	; 0x2142 <__mulsi3>
    17e0:	e6 0e       	add	r14, r22
    17e2:	f7 1e       	adc	r15, r23
    17e4:	08 1f       	adc	r16, r24
    17e6:	19 1f       	adc	r17, r25
    17e8:	f2 01       	movw	r30, r4
    17ea:	81 81       	ldd	r24, Z+1	; 0x01
    17ec:	e8 0e       	add	r14, r24
    17ee:	f1 1c       	adc	r15, r1
    17f0:	01 1d       	adc	r16, r1
    17f2:	11 1d       	adc	r17, r1

    if ( aus < ein) // Wenn der Ausgang über Mitternacht eingeschaltet werden soll -> Auszeit kleiner als Einzeit
    17f4:	6a 14       	cp	r6, r10
    17f6:	7b 04       	cpc	r7, r11
    17f8:	8c 04       	cpc	r8, r12
    17fa:	9d 04       	cpc	r9, r13
    17fc:	40 f4       	brcc	.+16     	; 0x180e <vergleiche_zeiten+0x106>
    {
        return ((aktuell > ein) || (aktuell < aus)); // So muss die Aktuelle Zeit grösser als ein Einzeit sein oder kleiner als die Ausschaltzeit
    17fe:	ae 14       	cp	r10, r14
    1800:	bf 04       	cpc	r11, r15
    1802:	c0 06       	cpc	r12, r16
    1804:	d1 06       	cpc	r13, r17
    1806:	40 f4       	brcc	.+16     	; 0x1818 <vergleiche_zeiten+0x110>
    1808:	81 e0       	ldi	r24, 0x01	; 1
    180a:	90 e0       	ldi	r25, 0x00	; 0
    180c:	0e c0       	rjmp	.+28     	; 0x182a <vergleiche_zeiten+0x122>
    }
    else // Wenn der Ausgang innerhalb eines Tages eingeschaltet werden soll -> Auszeit grösser als Einzeit
    {
        return ((aktuell > ein) && (aktuell < aus)); // So muss die Akutelle Zeit grösser als die Einzeit sein und kleiner als die Auszeit
    180e:	ae 14       	cp	r10, r14
    1810:	bf 04       	cpc	r11, r15
    1812:	c0 06       	cpc	r12, r16
    1814:	d1 06       	cpc	r13, r17
    1816:	38 f4       	brcc	.+14     	; 0x1826 <vergleiche_zeiten+0x11e>
 * PE:struct uhr * ein_zeit // Pointer auf struct der Einschaltzeit
 * PE:struct uhr * aus_zeit // Pointer auf struct der Ausschaltzeit
 * PE:struct uhr * aktuelle_zeit // Pointer auf struct der aktuellen Zeit
 * PA:uint8_t // 0 -> Aktuelle Zeit liegt ausserhalb den Schaltzeiten -> aus, 1 -> Aktuelle Zeit liegt zwischen den Schaltzeiten -> ein
 *///---------------------------------------------------------------
uint8_t vergleiche_zeiten(struct uhr *ein_zeit, struct uhr *aus_zeit, struct uhr *aktuelle_zeit)
    1818:	81 e0       	ldi	r24, 0x01	; 1
    181a:	90 e0       	ldi	r25, 0x00	; 0
    181c:	e6 14       	cp	r14, r6
    181e:	f7 04       	cpc	r15, r7
    1820:	08 05       	cpc	r16, r8
    1822:	19 05       	cpc	r17, r9
    1824:	10 f0       	brcs	.+4      	; 0x182a <vergleiche_zeiten+0x122>
    {
        return ((aktuell > ein) || (aktuell < aus)); // So muss die Aktuelle Zeit grösser als ein Einzeit sein oder kleiner als die Ausschaltzeit
    }
    else // Wenn der Ausgang innerhalb eines Tages eingeschaltet werden soll -> Auszeit grösser als Einzeit
    {
        return ((aktuell > ein) && (aktuell < aus)); // So muss die Akutelle Zeit grösser als die Einzeit sein und kleiner als die Auszeit
    1826:	80 e0       	ldi	r24, 0x00	; 0
    1828:	90 e0       	ldi	r25, 0x00	; 0
    }
}
    182a:	df 91       	pop	r29
    182c:	cf 91       	pop	r28
    182e:	1f 91       	pop	r17
    1830:	0f 91       	pop	r16
    1832:	ff 90       	pop	r15
    1834:	ef 90       	pop	r14
    1836:	df 90       	pop	r13
    1838:	cf 90       	pop	r12
    183a:	bf 90       	pop	r11
    183c:	af 90       	pop	r10
    183e:	9f 90       	pop	r9
    1840:	8f 90       	pop	r8
    1842:	7f 90       	pop	r7
    1844:	6f 90       	pop	r6
    1846:	5f 90       	pop	r5
    1848:	4f 90       	pop	r4
    184a:	08 95       	ret

0000184c <lampen_schalten>:

void lampen_schalten()
{
    if (vergleiche_zeiten(&lampe_on,&lampe_off,&zeit))
    184c:	8b ef       	ldi	r24, 0xFB	; 251
    184e:	92 e0       	ldi	r25, 0x02	; 2
    1850:	67 ee       	ldi	r22, 0xE7	; 231
    1852:	72 e0       	ldi	r23, 0x02	; 2
    1854:	4e eb       	ldi	r20, 0xBE	; 190
    1856:	52 e0       	ldi	r21, 0x02	; 2
    1858:	0e 94 84 0b 	call	0x1708	; 0x1708 <vergleiche_zeiten>
    185c:	90 91 29 03 	lds	r25, 0x0329
    1860:	88 23       	and	r24, r24
    1862:	11 f0       	breq	.+4      	; 0x1868 <lampen_schalten+0x1c>
    {
        schalte_ausgang.lampe =1;
    1864:	94 60       	ori	r25, 0x04	; 4
    1866:	01 c0       	rjmp	.+2      	; 0x186a <lampen_schalten+0x1e>
    }
    else
    {
        schalte_ausgang.lampe =0;
    1868:	9b 7f       	andi	r25, 0xFB	; 251
    186a:	90 93 29 03 	sts	0x0329, r25
    }
    if (vergleiche_zeiten(&ml_on,&ml_off,&zeit))
    186e:	88 e1       	ldi	r24, 0x18	; 24
    1870:	93 e0       	ldi	r25, 0x03	; 3
    1872:	6f e1       	ldi	r22, 0x1F	; 31
    1874:	73 e0       	ldi	r23, 0x03	; 3
    1876:	4e eb       	ldi	r20, 0xBE	; 190
    1878:	52 e0       	ldi	r21, 0x02	; 2
    187a:	0e 94 84 0b 	call	0x1708	; 0x1708 <vergleiche_zeiten>
    187e:	90 91 29 03 	lds	r25, 0x0329
    1882:	88 23       	and	r24, r24
    1884:	11 f0       	breq	.+4      	; 0x188a <lampen_schalten+0x3e>
    {
        schalte_ausgang.mondlicht =1;
    1886:	98 60       	ori	r25, 0x08	; 8
    1888:	01 c0       	rjmp	.+2      	; 0x188c <lampen_schalten+0x40>
    }
    else
    {
        schalte_ausgang.mondlicht =0;
    188a:	97 7f       	andi	r25, 0xF7	; 247
    188c:	90 93 29 03 	sts	0x0329, r25
    1890:	08 95       	ret

00001892 <temperatuen_schalten>:
 * PE:uint32_t * aktuelle_temperatur // Aktuelle Temperatur des Wassers mit der verglichen wird
 * PA:uint8_t // Ergebniss zurückgeben 1 -> höher als max 2 -> kleiner als min, 0 -> Ergebniss zwischen den Temperaturen
 *///---------------------------------------------------------------
uint8_t vergleiche_temperaturen(uint16_t *minimum, uint16_t *maximum, uint16_t *aktuelle_temperatur)
{
    if (*aktuelle_temperatur > *maximum) // Temperatur höher als maximum
    1892:	80 91 e5 02 	lds	r24, 0x02E5
    1896:	90 91 e6 02 	lds	r25, 0x02E6
    189a:	20 91 82 02 	lds	r18, 0x0282
    189e:	30 91 83 02 	lds	r19, 0x0283
    18a2:	28 17       	cp	r18, r24
    18a4:	39 07       	cpc	r19, r25
    18a6:	48 f0       	brcs	.+18     	; 0x18ba <temperatuen_schalten+0x28>
    {
        return 1;
    }
    else if ( *aktuelle_temperatur < *minimum) // Temperatur kleiner als minimum
    18a8:	20 91 84 02 	lds	r18, 0x0284
    18ac:	30 91 85 02 	lds	r19, 0x0285
    18b0:	82 17       	cp	r24, r18
    18b2:	93 07       	cpc	r25, r19
    18b4:	08 f4       	brcc	.+2      	; 0x18b8 <temperatuen_schalten+0x26>
    18b6:	70 c0       	rjmp	.+224    	; 0x1998 <temperatuen_schalten+0x106>
    18b8:	05 c0       	rjmp	.+10     	; 0x18c4 <temperatuen_schalten+0x32>
    // Lüfter  ein und ausschalten
    compare_return = vergleiche_temperaturen(&luefter.min,&luefter.max,&temperatur); // Wassertemperatur mit min/max Werten vergleichen
    switch (compare_return)
    {
    case 1:
        schalte_ausgang.luefter =1;
    18ba:	20 91 29 03 	lds	r18, 0x0329
    18be:	22 60       	ori	r18, 0x02	; 2
    18c0:	20 93 29 03 	sts	0x0329, r18
 * PE:uint32_t * aktuelle_temperatur // Aktuelle Temperatur des Wassers mit der verglichen wird
 * PA:uint8_t // Ergebniss zurückgeben 1 -> höher als max 2 -> kleiner als min, 0 -> Ergebniss zwischen den Temperaturen
 *///---------------------------------------------------------------
uint8_t vergleiche_temperaturen(uint16_t *minimum, uint16_t *maximum, uint16_t *aktuelle_temperatur)
{
    if (*aktuelle_temperatur > *maximum) // Temperatur höher als maximum
    18c4:	20 91 c5 02 	lds	r18, 0x02C5
    18c8:	30 91 c6 02 	lds	r19, 0x02C6
    18cc:	28 17       	cp	r18, r24
    18ce:	39 07       	cpc	r19, r25
    18d0:	40 f0       	brcs	.+16     	; 0x18e2 <temperatuen_schalten+0x50>
    {
        return 1;
    }
    else if ( *aktuelle_temperatur < *minimum) // Temperatur kleiner als minimum
    18d2:	20 91 c7 02 	lds	r18, 0x02C7
    18d6:	30 91 c8 02 	lds	r19, 0x02C8
    18da:	82 17       	cp	r24, r18
    18dc:	93 07       	cpc	r25, r19
    18de:	08 f0       	brcs	.+2      	; 0x18e2 <temperatuen_schalten+0x50>
    18e0:	55 c0       	rjmp	.+170    	; 0x198c <temperatuen_schalten+0xfa>
    ///Alarm LED und Buzzer schalten
    compare_return = (vergleiche_temperaturen(&alarm.min,&alarm.max,&temperatur) || error_flag); // Wassertemperatur mit min/max Werten vergleichen, Ergebniss !=0 -> Alarmausgänge einschalten
    switch (compare_return)
    {
    case 1:
        schalte_ausgang.alarmled =1;
    18e2:	20 91 29 03 	lds	r18, 0x0329
    18e6:	20 61       	ori	r18, 0x10	; 16
    18e8:	20 93 29 03 	sts	0x0329, r18
        alarm_zustand =1;
    18ec:	21 e0       	ldi	r18, 0x01	; 1
    18ee:	20 93 81 02 	sts	0x0281, r18
        break;  // 1 -> Wasser zu warm Alarm einschalten
    18f2:	07 c0       	rjmp	.+14     	; 0x1902 <temperatuen_schalten+0x70>
    case 2:
        schalte_ausgang.alarmled =1;
        alarm_zustand =2;
        break;   // 2 -> Wasser zu kalt Alarm einschalten
    case 0:
        schalte_ausgang.alarmled =0;
    18f4:	20 91 29 03 	lds	r18, 0x0329
    18f8:	2f 7e       	andi	r18, 0xEF	; 239
    18fa:	20 93 29 03 	sts	0x0329, r18
        alarm_zustand =0;
    18fe:	10 92 81 02 	sts	0x0281, r1
 * PE:uint32_t * aktuelle_temperatur // Aktuelle Temperatur des Wassers mit der verglichen wird
 * PA:uint8_t // Ergebniss zurückgeben 1 -> höher als max 2 -> kleiner als min, 0 -> Ergebniss zwischen den Temperaturen
 *///---------------------------------------------------------------
uint8_t vergleiche_temperaturen(uint16_t *minimum, uint16_t *maximum, uint16_t *aktuelle_temperatur)
{
    if (*aktuelle_temperatur > *maximum) // Temperatur höher als maximum
    1902:	20 91 ba 02 	lds	r18, 0x02BA
    1906:	30 91 bb 02 	lds	r19, 0x02BB
    190a:	28 17       	cp	r18, r24
    190c:	39 07       	cpc	r19, r25
    190e:	48 f0       	brcs	.+18     	; 0x1922 <temperatuen_schalten+0x90>
    {
        return 1;
    }
    else if ( *aktuelle_temperatur < *minimum) // Temperatur kleiner als minimum
    1910:	20 91 b8 02 	lds	r18, 0x02B8
    1914:	30 91 b9 02 	lds	r19, 0x02B9
    1918:	82 17       	cp	r24, r18
    191a:	93 07       	cpc	r25, r19
    191c:	08 f4       	brcc	.+2      	; 0x1920 <temperatuen_schalten+0x8e>
    191e:	40 c0       	rjmp	.+128    	; 0x19a0 <temperatuen_schalten+0x10e>
    1920:	05 c0       	rjmp	.+10     	; 0x192c <temperatuen_schalten+0x9a>
    // Heizer ein und ausschalten
    compare_return = vergleiche_temperaturen(&heizer.max,&heizer.min,&temperatur); // Wassertemperatur mit min/max Werten vergleichen
    switch (compare_return)
    {
    case 1:
        schalte_ausgang.heizer =0;
    1922:	20 91 29 03 	lds	r18, 0x0329
    1926:	2e 7f       	andi	r18, 0xFE	; 254
    1928:	20 93 29 03 	sts	0x0329, r18
 * PE:uint32_t * aktuelle_temperatur // Aktuelle Temperatur des Wassers mit der verglichen wird
 * PA:uint8_t // Ergebniss zurückgeben 1 -> höher als max 2 -> kleiner als min, 0 -> Ergebniss zwischen den Temperaturen
 *///---------------------------------------------------------------
uint8_t vergleiche_temperaturen(uint16_t *minimum, uint16_t *maximum, uint16_t *aktuelle_temperatur)
{
    if (*aktuelle_temperatur > *maximum) // Temperatur höher als maximum
    192c:	20 91 cb 02 	lds	r18, 0x02CB
    1930:	30 91 cc 02 	lds	r19, 0x02CC
    1934:	28 17       	cp	r18, r24
    1936:	39 07       	cpc	r19, r25
    1938:	40 f0       	brcs	.+16     	; 0x194a <temperatuen_schalten+0xb8>
    {
        return 1;
    }
    else if ( *aktuelle_temperatur < *minimum) // Temperatur kleiner als minimum
    193a:	20 91 cd 02 	lds	r18, 0x02CD
    193e:	30 91 ce 02 	lds	r19, 0x02CE
    1942:	82 17       	cp	r24, r18
    1944:	93 07       	cpc	r25, r19
    1946:	80 f1       	brcs	.+96     	; 0x19a8 <temperatuen_schalten+0x116>
    1948:	04 c0       	rjmp	.+8      	; 0x1952 <temperatuen_schalten+0xc0>
    }
    compare_return = vergleiche_temperaturen(&extremwerte.min,&extremwerte.max,&temperatur); // Wassertemperatur mit min/max Werten vergleichen
    switch (compare_return)
    {
    case 1:
        extremwerte.max = temperatur;
    194a:	90 93 cc 02 	sts	0x02CC, r25
    194e:	80 93 cb 02 	sts	0x02CB, r24
    case 0:
        break;	// 0 ->  Wasser noch oberhalb Heizer Einschalttemperatur -> nichts machen
    default:
        break;
    }
    if(schalte_ausgang.heizer) HEIZER_ON;
    1952:	80 91 29 03 	lds	r24, 0x0329
    1956:	80 ff       	sbrs	r24, 0
    1958:	02 c0       	rjmp	.+4      	; 0x195e <temperatuen_schalten+0xcc>
    195a:	12 9a       	sbi	0x02, 2	; 2
    195c:	01 c0       	rjmp	.+2      	; 0x1960 <temperatuen_schalten+0xce>
    else HEIZER_OFF;
    195e:	12 98       	cbi	0x02, 2	; 2
    if(schalte_ausgang.luefter) LUEFTER_ON;
    1960:	80 91 29 03 	lds	r24, 0x0329
    1964:	81 ff       	sbrs	r24, 1
    1966:	02 c0       	rjmp	.+4      	; 0x196c <temperatuen_schalten+0xda>
    1968:	11 9a       	sbi	0x02, 1	; 2
    196a:	01 c0       	rjmp	.+2      	; 0x196e <temperatuen_schalten+0xdc>
    else LUEFTER_OFF;
    196c:	11 98       	cbi	0x02, 1	; 2
    if(schalte_ausgang.lampe) LAMPE_ON;
    196e:	80 91 29 03 	lds	r24, 0x0329
    1972:	82 ff       	sbrs	r24, 2
    1974:	02 c0       	rjmp	.+4      	; 0x197a <temperatuen_schalten+0xe8>
    1976:	13 9a       	sbi	0x02, 3	; 2
    1978:	01 c0       	rjmp	.+2      	; 0x197c <temperatuen_schalten+0xea>
    else LAMPE_OFF;
    197a:	13 98       	cbi	0x02, 3	; 2
    if(schalte_ausgang.mondlicht) MOON_ON;
    197c:	80 91 29 03 	lds	r24, 0x0329
    1980:	83 ff       	sbrs	r24, 3
    1982:	02 c0       	rjmp	.+4      	; 0x1988 <temperatuen_schalten+0xf6>
    1984:	5c 9a       	sbi	0x0b, 4	; 11
    1986:	08 95       	ret
    else MOON_OFF;
    1988:	5c 98       	cbi	0x0b, 4	; 11
    198a:	08 95       	ret
        break;	// 0 ->  Wasser noch unterhalb Lüfter Einschalttemperatur -> nichts machen
    default:
        break;
    }
    ///Alarm LED und Buzzer schalten
    compare_return = (vergleiche_temperaturen(&alarm.min,&alarm.max,&temperatur) || error_flag); // Wassertemperatur mit min/max Werten vergleichen, Ergebniss !=0 -> Alarmausgänge einschalten
    198c:	20 91 02 03 	lds	r18, 0x0302
    1990:	22 23       	and	r18, r18
    1992:	09 f0       	breq	.+2      	; 0x1996 <temperatuen_schalten+0x104>
    1994:	a6 cf       	rjmp	.-180    	; 0x18e2 <temperatuen_schalten+0x50>
    1996:	ae cf       	rjmp	.-164    	; 0x18f4 <temperatuen_schalten+0x62>
    {
    case 1:
        schalte_ausgang.luefter =1;
        break;  // 1 -> Wasser zu warm Lüfter einschalten
    case 2:
        schalte_ausgang.luefter =0;
    1998:	20 91 29 03 	lds	r18, 0x0329
    199c:	2d 7f       	andi	r18, 0xFD	; 253
    199e:	90 cf       	rjmp	.-224    	; 0x18c0 <temperatuen_schalten+0x2e>
    {
    case 1:
        schalte_ausgang.heizer =0;
        break;  // 1 -> Wasser zu warm Heizer ausschalten
    case 2:
        schalte_ausgang.heizer =1;
    19a0:	20 91 29 03 	lds	r18, 0x0329
    19a4:	21 60       	ori	r18, 0x01	; 1
    19a6:	c0 cf       	rjmp	.-128    	; 0x1928 <temperatuen_schalten+0x96>
    {
    case 1:
        extremwerte.max = temperatur;
        break;  // 1 -> Wasser zu warm Heizer ausschalten
    case 2:
        extremwerte.min = temperatur;
    19a8:	90 93 ce 02 	sts	0x02CE, r25
    19ac:	80 93 cd 02 	sts	0x02CD, r24
        break;  // 2 -> Wasser zu kalt Heizer eischalten
    19b0:	d0 cf       	rjmp	.-96     	; 0x1952 <temperatuen_schalten+0xc0>

000019b2 <read_eeprom_daten>:

}

void read_eeprom_daten()
{
    temperatur_offset  = (uint8_t)eeprom_read_byte (&temperatur_offset_eeprom);
    19b2:	80 e0       	ldi	r24, 0x00	; 0
    19b4:	90 e0       	ldi	r25, 0x00	; 0
    19b6:	0e 94 2a 13 	call	0x2654	; 0x2654 <__eerd_byte_m644p>
    19ba:	80 93 b7 02 	sts	0x02B7, r24
    eeprom_read_block (&lampe_on, &lampe_on_eeprom, sizeof(struct uhr));
    19be:	8b ef       	ldi	r24, 0xFB	; 251
    19c0:	92 e0       	ldi	r25, 0x02	; 2
    19c2:	63 e1       	ldi	r22, 0x13	; 19
    19c4:	70 e0       	ldi	r23, 0x00	; 0
    19c6:	47 e0       	ldi	r20, 0x07	; 7
    19c8:	50 e0       	ldi	r21, 0x00	; 0
    19ca:	0e 94 1a 13 	call	0x2634	; 0x2634 <__eerd_block_m644p>
    eeprom_read_block (&lampe_off, &lampe_off_eeprom, sizeof(struct uhr));
    19ce:	87 ee       	ldi	r24, 0xE7	; 231
    19d0:	92 e0       	ldi	r25, 0x02	; 2
    19d2:	6a e1       	ldi	r22, 0x1A	; 26
    19d4:	70 e0       	ldi	r23, 0x00	; 0
    19d6:	47 e0       	ldi	r20, 0x07	; 7
    19d8:	50 e0       	ldi	r21, 0x00	; 0
    19da:	0e 94 1a 13 	call	0x2634	; 0x2634 <__eerd_block_m644p>
    eeprom_read_block (&ml_on, &ml_on_eeprom, sizeof(struct uhr));
    19de:	88 e1       	ldi	r24, 0x18	; 24
    19e0:	93 e0       	ldi	r25, 0x03	; 3
    19e2:	61 e2       	ldi	r22, 0x21	; 33
    19e4:	70 e0       	ldi	r23, 0x00	; 0
    19e6:	47 e0       	ldi	r20, 0x07	; 7
    19e8:	50 e0       	ldi	r21, 0x00	; 0
    19ea:	0e 94 1a 13 	call	0x2634	; 0x2634 <__eerd_block_m644p>
    eeprom_read_block (&ml_off, &ml_off_eeprom, sizeof(struct uhr));
    19ee:	8f e1       	ldi	r24, 0x1F	; 31
    19f0:	93 e0       	ldi	r25, 0x03	; 3
    19f2:	68 e2       	ldi	r22, 0x28	; 40
    19f4:	70 e0       	ldi	r23, 0x00	; 0
    19f6:	47 e0       	ldi	r20, 0x07	; 7
    19f8:	50 e0       	ldi	r21, 0x00	; 0
    19fa:	0e 94 1a 13 	call	0x2634	; 0x2634 <__eerd_block_m644p>
    eeprom_read_block (&alarm, &alarm_eeprom, sizeof(schalt_temperaturen));
    19fe:	85 ec       	ldi	r24, 0xC5	; 197
    1a00:	92 e0       	ldi	r25, 0x02	; 2
    1a02:	61 e0       	ldi	r22, 0x01	; 1
    1a04:	70 e0       	ldi	r23, 0x00	; 0
    1a06:	46 e0       	ldi	r20, 0x06	; 6
    1a08:	50 e0       	ldi	r21, 0x00	; 0
    1a0a:	0e 94 1a 13 	call	0x2634	; 0x2634 <__eerd_block_m644p>
    eeprom_read_block (&heizer, &heizer_eeprom, sizeof(schalt_temperaturen));
    1a0e:	88 eb       	ldi	r24, 0xB8	; 184
    1a10:	92 e0       	ldi	r25, 0x02	; 2
    1a12:	67 e0       	ldi	r22, 0x07	; 7
    1a14:	70 e0       	ldi	r23, 0x00	; 0
    1a16:	46 e0       	ldi	r20, 0x06	; 6
    1a18:	50 e0       	ldi	r21, 0x00	; 0
    1a1a:	0e 94 1a 13 	call	0x2634	; 0x2634 <__eerd_block_m644p>
    eeprom_read_block (&luefter, &luefter_eeprom, sizeof(schalt_temperaturen));
    1a1e:	82 e8       	ldi	r24, 0x82	; 130
    1a20:	92 e0       	ldi	r25, 0x02	; 2
    1a22:	6d e0       	ldi	r22, 0x0D	; 13
    1a24:	70 e0       	ldi	r23, 0x00	; 0
    1a26:	46 e0       	ldi	r20, 0x06	; 6
    1a28:	50 e0       	ldi	r21, 0x00	; 0
    1a2a:	0e 94 1a 13 	call	0x2634	; 0x2634 <__eerd_block_m644p>
}
    1a2e:	08 95       	ret

00001a30 <zustand_lcd>:

uint8_t zustand_lcd(uint8_t zustand)
{
    if (zustand)
    1a30:	88 23       	and	r24, r24
    1a32:	11 f0       	breq	.+4      	; 0x1a38 <zustand_lcd+0x8>
    {
        return 0x5E;
    1a34:	8e e5       	ldi	r24, 0x5E	; 94
    1a36:	08 95       	ret
    }
    else
    {
        return 0x5F;
    1a38:	8f e5       	ldi	r24, 0x5F	; 95
    }

}
    1a3a:	08 95       	ret

00001a3c <main_anzeige>:

void main_anzeige()
{
    1a3c:	cf 93       	push	r28
    1a3e:	df 93       	push	r29
    lcd_command(LCD_CURSOROFF | LCD_BLINKINGOFF);
    1a40:	8c e0       	ldi	r24, 0x0C	; 12
    1a42:	0e 94 04 04 	call	0x808	; 0x808 <lcd_command>
    sprintf(buffer, "%02d:%02d:%02d ", zeit.stunde, zeit.minute, zeit.sekunde);
    1a46:	8d b7       	in	r24, 0x3d	; 61
    1a48:	9e b7       	in	r25, 0x3e	; 62
    1a4a:	0a 97       	sbiw	r24, 0x0a	; 10
    1a4c:	0f b6       	in	r0, 0x3f	; 63
    1a4e:	f8 94       	cli
    1a50:	9e bf       	out	0x3e, r25	; 62
    1a52:	0f be       	out	0x3f, r0	; 63
    1a54:	8d bf       	out	0x3d, r24	; 61
    1a56:	ed b7       	in	r30, 0x3d	; 61
    1a58:	fe b7       	in	r31, 0x3e	; 62
    1a5a:	31 96       	adiw	r30, 0x01	; 1
    1a5c:	ce ee       	ldi	r28, 0xEE	; 238
    1a5e:	d2 e0       	ldi	r29, 0x02	; 2
    1a60:	ad b7       	in	r26, 0x3d	; 61
    1a62:	be b7       	in	r27, 0x3e	; 62
    1a64:	12 96       	adiw	r26, 0x02	; 2
    1a66:	dc 93       	st	X, r29
    1a68:	ce 93       	st	-X, r28
    1a6a:	11 97       	sbiw	r26, 0x01	; 1
    1a6c:	82 ea       	ldi	r24, 0xA2	; 162
    1a6e:	91 e0       	ldi	r25, 0x01	; 1
    1a70:	93 83       	std	Z+3, r25	; 0x03
    1a72:	82 83       	std	Z+2, r24	; 0x02
    1a74:	80 91 c0 02 	lds	r24, 0x02C0
    1a78:	84 83       	std	Z+4, r24	; 0x04
    1a7a:	15 82       	std	Z+5, r1	; 0x05
    1a7c:	80 91 be 02 	lds	r24, 0x02BE
    1a80:	86 83       	std	Z+6, r24	; 0x06
    1a82:	17 82       	std	Z+7, r1	; 0x07
    1a84:	80 91 bf 02 	lds	r24, 0x02BF
    1a88:	80 87       	std	Z+8, r24	; 0x08
    1a8a:	11 86       	std	Z+9, r1	; 0x09
    1a8c:	0e 94 10 11 	call	0x2220	; 0x2220 <sprintf>
    uart_puts(buffer);
    1a90:	8d b7       	in	r24, 0x3d	; 61
    1a92:	9e b7       	in	r25, 0x3e	; 62
    1a94:	0a 96       	adiw	r24, 0x0a	; 10
    1a96:	0f b6       	in	r0, 0x3f	; 63
    1a98:	f8 94       	cli
    1a9a:	9e bf       	out	0x3e, r25	; 62
    1a9c:	0f be       	out	0x3f, r0	; 63
    1a9e:	8d bf       	out	0x3d, r24	; 61
    1aa0:	ce 01       	movw	r24, r28
    1aa2:	0e 94 bf 0f 	call	0x1f7e	; 0x1f7e <uart_puts>
    uart_putc('\r');
    1aa6:	8d e0       	ldi	r24, 0x0D	; 13
    1aa8:	0e 94 aa 0f 	call	0x1f54	; 0x1f54 <uart_putc>
    lcd_printlc(1,1,(unsigned char*)buffer);
    1aac:	81 e0       	ldi	r24, 0x01	; 1
    1aae:	61 e0       	ldi	r22, 0x01	; 1
    1ab0:	ae 01       	movw	r20, r28
    1ab2:	0e 94 46 03 	call	0x68c	; 0x68c <lcd_printlc>
    lcd_print(strcpy_P (anzeigetext,wochentagname[zeit.wochentag]));
    1ab6:	60 91 c2 02 	lds	r22, 0x02C2
    1aba:	83 e0       	ldi	r24, 0x03	; 3
    1abc:	68 9f       	mul	r22, r24
    1abe:	b0 01       	movw	r22, r0
    1ac0:	11 24       	eor	r1, r1
    1ac2:	64 58       	subi	r22, 0x84	; 132
    1ac4:	7f 4f       	sbci	r23, 0xFF	; 255
    1ac6:	88 e8       	ldi	r24, 0x88	; 136
    1ac8:	92 e0       	ldi	r25, 0x02	; 2
    1aca:	0e 94 09 11 	call	0x2212	; 0x2212 <strcpy_P>
    1ace:	0e 94 aa 02 	call	0x554	; 0x554 <lcd_print>
    temperatur_to_string(temperatur,anzeigetext1);
    1ad2:	80 91 e5 02 	lds	r24, 0x02E5
    1ad6:	90 91 e6 02 	lds	r25, 0x02E6
    1ada:	61 ed       	ldi	r22, 0xD1	; 209
    1adc:	72 e0       	ldi	r23, 0x02	; 2
    1ade:	0e 94 73 08 	call	0x10e6	; 0x10e6 <temperatur_to_string>
    lcd_printlc(2,1,(unsigned char*)"Temp:");
    1ae2:	82 e0       	ldi	r24, 0x02	; 2
    1ae4:	61 e0       	ldi	r22, 0x01	; 1
    1ae6:	42 eb       	ldi	r20, 0xB2	; 178
    1ae8:	51 e0       	ldi	r21, 0x01	; 1
    1aea:	0e 94 46 03 	call	0x68c	; 0x68c <lcd_printlc>
    lcd_print((unsigned char*) anzeigetext1);
    1aee:	81 ed       	ldi	r24, 0xD1	; 209
    1af0:	92 e0       	ldi	r25, 0x02	; 2
    1af2:	0e 94 aa 02 	call	0x554	; 0x554 <lcd_print>
    lcd_printlc(3,1,(unsigned char*)" Max:");
    1af6:	83 e0       	ldi	r24, 0x03	; 3
    1af8:	61 e0       	ldi	r22, 0x01	; 1
    1afa:	48 eb       	ldi	r20, 0xB8	; 184
    1afc:	51 e0       	ldi	r21, 0x01	; 1
    1afe:	0e 94 46 03 	call	0x68c	; 0x68c <lcd_printlc>
    temperatur_to_string(extremwerte.max,anzeigetext2);
    1b02:	80 91 cb 02 	lds	r24, 0x02CB
    1b06:	90 91 cc 02 	lds	r25, 0x02CC
    1b0a:	64 e0       	ldi	r22, 0x04	; 4
    1b0c:	73 e0       	ldi	r23, 0x03	; 3
    1b0e:	0e 94 73 08 	call	0x10e6	; 0x10e6 <temperatur_to_string>
    lcd_print((unsigned char*) anzeigetext2);
    1b12:	84 e0       	ldi	r24, 0x04	; 4
    1b14:	93 e0       	ldi	r25, 0x03	; 3
    1b16:	0e 94 aa 02 	call	0x554	; 0x554 <lcd_print>
    lcd_print((unsigned char*)" Min:");
    1b1a:	8e eb       	ldi	r24, 0xBE	; 190
    1b1c:	91 e0       	ldi	r25, 0x01	; 1
    1b1e:	0e 94 aa 02 	call	0x554	; 0x554 <lcd_print>
    temperatur_to_string(extremwerte.min,anzeigetext2);
    1b22:	80 91 cd 02 	lds	r24, 0x02CD
    1b26:	90 91 ce 02 	lds	r25, 0x02CE
    1b2a:	64 e0       	ldi	r22, 0x04	; 4
    1b2c:	73 e0       	ldi	r23, 0x03	; 3
    1b2e:	0e 94 73 08 	call	0x10e6	; 0x10e6 <temperatur_to_string>
    lcd_print((unsigned char*) anzeigetext2);
    1b32:	84 e0       	ldi	r24, 0x04	; 4
    1b34:	93 e0       	ldi	r25, 0x03	; 3
    1b36:	0e 94 aa 02 	call	0x554	; 0x554 <lcd_print>

    //lcd_printlc(3,1,(unsigned char*)"pH:");
    //lcd_print((unsigned char*) "8.2");
    lcd_printlc(4,1,(unsigned char*)"H:");
    1b3a:	84 e0       	ldi	r24, 0x04	; 4
    1b3c:	61 e0       	ldi	r22, 0x01	; 1
    1b3e:	44 ec       	ldi	r20, 0xC4	; 196
    1b40:	51 e0       	ldi	r21, 0x01	; 1
    1b42:	0e 94 46 03 	call	0x68c	; 0x68c <lcd_printlc>
    lcd_putchar(zustand_lcd(( HEIZER_ZUSTAND)));
    1b46:	80 b1       	in	r24, 0x00	; 0
    eeprom_read_block (&luefter, &luefter_eeprom, sizeof(schalt_temperaturen));
}

uint8_t zustand_lcd(uint8_t zustand)
{
    if (zustand)
    1b48:	82 ff       	sbrs	r24, 2
    1b4a:	02 c0       	rjmp	.+4      	; 0x1b50 <main_anzeige+0x114>
    {
        return 0x5E;
    1b4c:	8e e5       	ldi	r24, 0x5E	; 94
    1b4e:	01 c0       	rjmp	.+2      	; 0x1b52 <main_anzeige+0x116>
    }
    else
    {
        return 0x5F;
    1b50:	8f e5       	ldi	r24, 0x5F	; 95
    lcd_print((unsigned char*) anzeigetext2);

    //lcd_printlc(3,1,(unsigned char*)"pH:");
    //lcd_print((unsigned char*) "8.2");
    lcd_printlc(4,1,(unsigned char*)"H:");
    lcd_putchar(zustand_lcd(( HEIZER_ZUSTAND)));
    1b52:	0e 94 9c 02 	call	0x538	; 0x538 <lcd_putchar>
    lcd_print((unsigned char *)" K:");
    1b56:	87 ec       	ldi	r24, 0xC7	; 199
    1b58:	91 e0       	ldi	r25, 0x01	; 1
    1b5a:	0e 94 aa 02 	call	0x554	; 0x554 <lcd_print>
    lcd_putchar(zustand_lcd(( LUEFTER_ZUSTAND)));
    1b5e:	80 b1       	in	r24, 0x00	; 0
    eeprom_read_block (&luefter, &luefter_eeprom, sizeof(schalt_temperaturen));
}

uint8_t zustand_lcd(uint8_t zustand)
{
    if (zustand)
    1b60:	81 ff       	sbrs	r24, 1
    1b62:	02 c0       	rjmp	.+4      	; 0x1b68 <main_anzeige+0x12c>
    {
        return 0x5E;
    1b64:	8e e5       	ldi	r24, 0x5E	; 94
    1b66:	01 c0       	rjmp	.+2      	; 0x1b6a <main_anzeige+0x12e>
    }
    else
    {
        return 0x5F;
    1b68:	8f e5       	ldi	r24, 0x5F	; 95
    //lcd_printlc(3,1,(unsigned char*)"pH:");
    //lcd_print((unsigned char*) "8.2");
    lcd_printlc(4,1,(unsigned char*)"H:");
    lcd_putchar(zustand_lcd(( HEIZER_ZUSTAND)));
    lcd_print((unsigned char *)" K:");
    lcd_putchar(zustand_lcd(( LUEFTER_ZUSTAND)));
    1b6a:	0e 94 9c 02 	call	0x538	; 0x538 <lcd_putchar>
    lcd_print((unsigned char *)" L:");
    1b6e:	8b ec       	ldi	r24, 0xCB	; 203
    1b70:	91 e0       	ldi	r25, 0x01	; 1
    1b72:	0e 94 aa 02 	call	0x554	; 0x554 <lcd_print>
    lcd_putchar(zustand_lcd(( LAMPE_ZUSTAND)));
    1b76:	80 b1       	in	r24, 0x00	; 0
    eeprom_read_block (&luefter, &luefter_eeprom, sizeof(schalt_temperaturen));
}

uint8_t zustand_lcd(uint8_t zustand)
{
    if (zustand)
    1b78:	83 ff       	sbrs	r24, 3
    1b7a:	02 c0       	rjmp	.+4      	; 0x1b80 <main_anzeige+0x144>
    {
        return 0x5E;
    1b7c:	8e e5       	ldi	r24, 0x5E	; 94
    1b7e:	01 c0       	rjmp	.+2      	; 0x1b82 <main_anzeige+0x146>
    }
    else
    {
        return 0x5F;
    1b80:	8f e5       	ldi	r24, 0x5F	; 95
    lcd_printlc(4,1,(unsigned char*)"H:");
    lcd_putchar(zustand_lcd(( HEIZER_ZUSTAND)));
    lcd_print((unsigned char *)" K:");
    lcd_putchar(zustand_lcd(( LUEFTER_ZUSTAND)));
    lcd_print((unsigned char *)" L:");
    lcd_putchar(zustand_lcd(( LAMPE_ZUSTAND)));
    1b82:	0e 94 9c 02 	call	0x538	; 0x538 <lcd_putchar>
    lcd_print((unsigned char *)" ML:");
    1b86:	8f ec       	ldi	r24, 0xCF	; 207
    1b88:	91 e0       	ldi	r25, 0x01	; 1
    1b8a:	0e 94 aa 02 	call	0x554	; 0x554 <lcd_print>
    lcd_putchar(zustand_lcd(( MOON_ZUSTAND)));
    1b8e:	89 b1       	in	r24, 0x09	; 9
    eeprom_read_block (&luefter, &luefter_eeprom, sizeof(schalt_temperaturen));
}

uint8_t zustand_lcd(uint8_t zustand)
{
    if (zustand)
    1b90:	84 ff       	sbrs	r24, 4
    1b92:	02 c0       	rjmp	.+4      	; 0x1b98 <main_anzeige+0x15c>
    {
        return 0x5E;
    1b94:	8e e5       	ldi	r24, 0x5E	; 94
    1b96:	01 c0       	rjmp	.+2      	; 0x1b9a <main_anzeige+0x15e>
    }
    else
    {
        return 0x5F;
    1b98:	8f e5       	ldi	r24, 0x5F	; 95
    lcd_print((unsigned char *)" K:");
    lcd_putchar(zustand_lcd(( LUEFTER_ZUSTAND)));
    lcd_print((unsigned char *)" L:");
    lcd_putchar(zustand_lcd(( LAMPE_ZUSTAND)));
    lcd_print((unsigned char *)" ML:");
    lcd_putchar(zustand_lcd(( MOON_ZUSTAND)));
    1b9a:	0e 94 9c 02 	call	0x538	; 0x538 <lcd_putchar>

    if (alarm_zustand)
    1b9e:	80 91 81 02 	lds	r24, 0x0281
    1ba2:	88 23       	and	r24, r24
    1ba4:	31 f0       	breq	.+12     	; 0x1bb2 <main_anzeige+0x176>
    {
        lcd_printlc(2,14,"ALARM!");
    1ba6:	82 e0       	ldi	r24, 0x02	; 2
    1ba8:	6e e0       	ldi	r22, 0x0E	; 14
    1baa:	44 ed       	ldi	r20, 0xD4	; 212
    1bac:	51 e0       	ldi	r21, 0x01	; 1
    1bae:	0e 94 46 03 	call	0x68c	; 0x68c <lcd_printlc>
    }
}
    1bb2:	df 91       	pop	r29
    1bb4:	cf 91       	pop	r28
    1bb6:	08 95       	ret

00001bb8 <send_to_uart>:

void send_to_uart(void )
{
    1bb8:	cf 93       	push	r28
    1bba:	df 93       	push	r29
    temperatur_to_string(temperatur,anzeigetext1);
    1bbc:	c1 ed       	ldi	r28, 0xD1	; 209
    1bbe:	d2 e0       	ldi	r29, 0x02	; 2
    1bc0:	80 91 e5 02 	lds	r24, 0x02E5
    1bc4:	90 91 e6 02 	lds	r25, 0x02E6
    1bc8:	be 01       	movw	r22, r28
    1bca:	0e 94 73 08 	call	0x10e6	; 0x10e6 <temperatur_to_string>
    uart_puts(anzeigetext1);
    1bce:	ce 01       	movw	r24, r28
    1bd0:	0e 94 bf 0f 	call	0x1f7e	; 0x1f7e <uart_puts>
    uart_putc('\r');
    1bd4:	8d e0       	ldi	r24, 0x0D	; 13
    1bd6:	0e 94 aa 0f 	call	0x1f54	; 0x1f54 <uart_putc>
}
    1bda:	df 91       	pop	r29
    1bdc:	cf 91       	pop	r28
    1bde:	08 95       	ret

00001be0 <main>:
const char   AboutText[]           PROGMEM = "TopMenü";
/*****************************************************************************/

int main(void)

{
    1be0:	1f 93       	push	r17

    uint8_t CurrFunc = 0;//CurrFunc = currently selected menu option

    read_eeprom_daten();// gespeicherte Daten aus dem EEPROM laden
    1be2:	0e 94 d9 0c 	call	0x19b2	; 0x19b2 <read_eeprom_daten>
    init_taster();		// Tasten entprellen initialisieren
    1be6:	0e 94 12 0f 	call	0x1e24	; 0x1e24 <init_taster>
    i2c_init();			// I2C-Bus initialisieren
    1bea:	0e 94 41 04 	call	0x882	; 0x882 <i2c_init>
    ds_1307_init();		// DS1307 initialisieren
    1bee:	0e 94 4c 01 	call	0x298	; 0x298 <ds_1307_init>
    lcd_init();			// LCD initialisieren
    1bf2:	0e 94 14 04 	call	0x828	; 0x828 <lcd_init>
    lcd_command(LCD_CLEAR); // LCD-Anzeige loeschen
    1bf6:	81 e0       	ldi	r24, 0x01	; 1
    1bf8:	0e 94 04 04 	call	0x808	; 0x808 <lcd_command>
    lcd_backlight(ON);		// LCD-Hintergrundbeleuchtung an
    1bfc:	80 e0       	ldi	r24, 0x00	; 0
    1bfe:	90 e0       	ldi	r25, 0x00	; 0
    1c00:	0e 94 3c 04 	call	0x878	; 0x878 <lcd_backlight>
    lcd_command(LCD_CURSOROFF); // LCD-Cursor off
    1c04:	8c e0       	ldi	r24, 0x0C	; 12
    1c06:	0e 94 04 04 	call	0x808	; 0x808 <lcd_command>
    init_ports();			// Ports initialisieren
    1c0a:	0e 94 02 05 	call	0xa04	; 0xa04 <init_ports>
    uart_init( UART_BAUD_SELECT(UART_BAUD_RATE,F_CPU) );
    1c0e:	80 e1       	ldi	r24, 0x10	; 16
    1c10:	90 e0       	ldi	r25, 0x00	; 0
    1c12:	0e 94 76 0f 	call	0x1eec	; 0x1eec <uart_init>
    sei();
    1c16:	78 94       	sei

    extremwerte.min = 400;
    1c18:	80 e9       	ldi	r24, 0x90	; 144
    1c1a:	91 e0       	ldi	r25, 0x01	; 1
    1c1c:	90 93 ce 02 	sts	0x02CE, r25
    1c20:	80 93 cd 02 	sts	0x02CD, r24
    extremwerte.max = 300;
    1c24:	8c e2       	ldi	r24, 0x2C	; 44
    1c26:	91 e0       	ldi	r25, 0x01	; 1
    1c28:	90 93 cc 02 	sts	0x02CC, r25
    1c2c:	80 93 cb 02 	sts	0x02CB, r24

    temperatur = get_lm76_temperatur(LM76_ADRESSE)+ temperatur_offset;
    1c30:	80 e9       	ldi	r24, 0x90	; 144
    1c32:	0e 94 c3 04 	call	0x986	; 0x986 <get_lm76_temperatur>
    1c36:	20 91 b7 02 	lds	r18, 0x02B7
    1c3a:	33 27       	eor	r19, r19
    1c3c:	27 fd       	sbrc	r18, 7
    1c3e:	30 95       	com	r19
    1c40:	28 0f       	add	r18, r24
    1c42:	39 1f       	adc	r19, r25
    1c44:	30 93 e6 02 	sts	0x02E6, r19
    1c48:	20 93 e5 02 	sts	0x02E5, r18
    get_ds1307_zeit_datum(&zeit);
    1c4c:	8e eb       	ldi	r24, 0xBE	; 190
    1c4e:	92 e0       	ldi	r25, 0x02	; 2
    1c50:	0e 94 6b 01 	call	0x2d6	; 0x2d6 <get_ds1307_zeit_datum>

int main(void)

{

    uint8_t CurrFunc = 0;//CurrFunc = currently selected menu option
    1c54:	10 e0       	ldi	r17, 0x00	; 0



    while (true)
    {
        if (get_key_short( 1<<KEY_DOWN))
    1c56:	80 e1       	ldi	r24, 0x10	; 16
    1c58:	0e 94 05 0f 	call	0x1e0a	; 0x1e0a <get_key_short>
    1c5c:	88 23       	and	r24, r24
    1c5e:	21 f0       	breq	.+8      	; 0x1c68 <main+0x88>
            (CurrFunc == 0)? CurrFunc = ARRAY_UPPERBOUND(MainFunctionPtrs) : CurrFunc--;
    1c60:	11 23       	and	r17, r17
    1c62:	11 f1       	breq	.+68     	; 0x1ca8 <main+0xc8>
    1c64:	11 50       	subi	r17, 0x01	; 1
    1c66:	23 c0       	rjmp	.+70     	; 0x1cae <main+0xce>
        else if ( get_key_short( 1<<KEY_UP ))
    1c68:	81 e0       	ldi	r24, 0x01	; 1
    1c6a:	0e 94 05 0f 	call	0x1e0a	; 0x1e0a <get_key_short>
    1c6e:	88 23       	and	r24, r24
    1c70:	21 f0       	breq	.+8      	; 0x1c7a <main+0x9a>
            (CurrFunc == ARRAY_UPPERBOUND(MainFunctionPtrs))? CurrFunc = 0 : CurrFunc++;
    1c72:	12 30       	cpi	r17, 0x02	; 2
    1c74:	d9 f0       	breq	.+54     	; 0x1cac <main+0xcc>
    1c76:	1f 5f       	subi	r17, 0xFF	; 255
    1c78:	1a c0       	rjmp	.+52     	; 0x1cae <main+0xce>
        else if ( get_key_short( 1<<KEY_OK ))
    1c7a:	84 e0       	ldi	r24, 0x04	; 4
    1c7c:	0e 94 05 0f 	call	0x1e0a	; 0x1e0a <get_key_short>
    1c80:	88 23       	and	r24, r24
    1c82:	59 f0       	breq	.+22     	; 0x1c9a <main+0xba>
            ((FuncPtr)pgm_read_word(&MainFunctionPtrs[CurrFunc]))(); // Execute associated subroutine
    1c84:	e1 2f       	mov	r30, r17
    1c86:	f0 e0       	ldi	r31, 0x00	; 0
    1c88:	ee 0f       	add	r30, r30
    1c8a:	ff 1f       	adc	r31, r31
    1c8c:	ee 54       	subi	r30, 0x4E	; 78
    1c8e:	ff 4f       	sbci	r31, 0xFF	; 255
    1c90:	85 91       	lpm	r24, Z+
    1c92:	94 91       	lpm	r25, Z+
    1c94:	fc 01       	movw	r30, r24
    1c96:	09 95       	icall
    1c98:	0a c0       	rjmp	.+20     	; 0x1cae <main+0xce>
        //else if ( get_key_short( 1<<KEY_ESC ))
        //MAIN_TopMenu();         //display AboutText
        else if(get_key_short(1<<KEY_RUN)) RUNLED_ON;
    1c9a:	80 e4       	ldi	r24, 0x40	; 64
    1c9c:	0e 94 05 0f 	call	0x1e0a	; 0x1e0a <get_key_short>
    1ca0:	88 23       	and	r24, r24
    1ca2:	29 f0       	breq	.+10     	; 0x1cae <main+0xce>
    1ca4:	47 9a       	sbi	0x08, 7	; 8
    1ca6:	03 c0       	rjmp	.+6      	; 0x1cae <main+0xce>


    while (true)
    {
        if (get_key_short( 1<<KEY_DOWN))
            (CurrFunc == 0)? CurrFunc = ARRAY_UPPERBOUND(MainFunctionPtrs) : CurrFunc--;
    1ca8:	12 e0       	ldi	r17, 0x02	; 2
    1caa:	01 c0       	rjmp	.+2      	; 0x1cae <main+0xce>
        else if ( get_key_short( 1<<KEY_UP ))
            (CurrFunc == ARRAY_UPPERBOUND(MainFunctionPtrs))? CurrFunc = 0 : CurrFunc++;
    1cac:	10 e0       	ldi	r17, 0x00	; 0
            ((FuncPtr)pgm_read_word(&MainFunctionPtrs[CurrFunc]))(); // Execute associated subroutine
        //else if ( get_key_short( 1<<KEY_ESC ))
        //MAIN_TopMenu();         //display AboutText
        else if(get_key_short(1<<KEY_RUN)) RUNLED_ON;
//      else if (key == KEY_NEXT);  //do nothing
        lcd_gotolr(1,15);
    1cae:	81 e0       	ldi	r24, 0x01	; 1
    1cb0:	6f e0       	ldi	r22, 0x0F	; 15
    1cb2:	0e 94 d2 02 	call	0x5a4	; 0x5a4 <lcd_gotolr>
        lcd_printmenue((unsigned char *)pgm_read_word(&MainFunctionNames[CurrFunc]));
    1cb6:	e1 2f       	mov	r30, r17
    1cb8:	f0 e0       	ldi	r31, 0x00	; 0
    1cba:	ee 0f       	add	r30, r30
    1cbc:	ff 1f       	adc	r31, r31
    1cbe:	e4 55       	subi	r30, 0x54	; 84
    1cc0:	ff 4f       	sbci	r31, 0xFF	; 255
    1cc2:	25 91       	lpm	r18, Z+
    1cc4:	34 91       	lpm	r19, Z+
    1cc6:	c9 01       	movw	r24, r18
    1cc8:	0e 94 bd 02 	call	0x57a	; 0x57a <lcd_printmenue>


        main_anzeige();
    1ccc:	0e 94 1e 0d 	call	0x1a3c	; 0x1a3c <main_anzeige>
        send_to_uart();
    1cd0:	0e 94 dc 0d 	call	0x1bb8	; 0x1bb8 <send_to_uart>

        if (messflag1) // Wenn 0.5s vorbei
    1cd4:	80 91 03 03 	lds	r24, 0x0303
    1cd8:	88 23       	and	r24, r24
    1cda:	41 f0       	breq	.+16     	; 0x1cec <main+0x10c>
        {
            messflag1 =0; // ISR Flag zurücksetzen
    1cdc:	10 92 03 03 	sts	0x0303, r1
            get_ds1307_zeit_datum(&zeit); // Zeit vom DS1307 holen;
    1ce0:	8e eb       	ldi	r24, 0xBE	; 190
    1ce2:	92 e0       	ldi	r25, 0x02	; 2
    1ce4:	0e 94 6b 01 	call	0x2d6	; 0x2d6 <get_ds1307_zeit_datum>
            lampen_schalten(); // Lampen Ausgänge ansteuern
    1ce8:	0e 94 26 0c 	call	0x184c	; 0x184c <lampen_schalten>
        }
        if (messflag2) // Wenn 1s vorbei
    1cec:	80 91 27 03 	lds	r24, 0x0327
    1cf0:	88 23       	and	r24, r24
    1cf2:	09 f4       	brne	.+2      	; 0x1cf6 <main+0x116>
    1cf4:	b0 cf       	rjmp	.-160    	; 0x1c56 <main+0x76>
        {
            messflag2 =0; // ISR Flag zurücksetzen
    1cf6:	10 92 27 03 	sts	0x0327, r1
            temperatur = get_lm76_temperatur(LM76_ADRESSE)+ temperatur_offset; // Temperatur vom LM76 holen und Offset addieren;
    1cfa:	80 e9       	ldi	r24, 0x90	; 144
    1cfc:	0e 94 c3 04 	call	0x986	; 0x986 <get_lm76_temperatur>
    1d00:	20 91 b7 02 	lds	r18, 0x02B7
    1d04:	33 27       	eor	r19, r19
    1d06:	27 fd       	sbrc	r18, 7
    1d08:	30 95       	com	r19
    1d0a:	28 0f       	add	r18, r24
    1d0c:	39 1f       	adc	r19, r25
    1d0e:	30 93 e6 02 	sts	0x02E6, r19
    1d12:	20 93 e5 02 	sts	0x02E5, r18
            temperatuen_schalten(); // Temperatur gesteuerte Ausgänge schalten
    1d16:	0e 94 49 0c 	call	0x1892	; 0x1892 <temperatuen_schalten>
    1d1a:	9d cf       	rjmp	.-198    	; 0x1c56 <main+0x76>

00001d1c <__vector_18>:
#include "taster.h"
/*------------------------------------------------------------------
 * ISR(..) - Interrupt  Counter/ Timer 2 overflow
 *///---------------------------------------------------------------
ISR(TIMER0_OVF_vect)                            // every 10ms
{
    1d1c:	1f 92       	push	r1
    1d1e:	0f 92       	push	r0
    1d20:	0f b6       	in	r0, 0x3f	; 63
    1d22:	0f 92       	push	r0
    1d24:	11 24       	eor	r1, r1
    1d26:	2f 93       	push	r18
    1d28:	8f 93       	push	r24
    1d2a:	9f 93       	push	r25
    static uint8_t ct0, ct1, rpt;
    static uint8_t messcounter1 = 0;
    static uint8_t messcounter2 = 0;
    uint8_t i;

    TCNT0 = (uint8_t)(int16_t)-(F_CPU / 1024 * 10e-3 + 0.5);  // preload for 10ms
    1d2c:	84 e6       	ldi	r24, 0x64	; 100
    1d2e:	86 bd       	out	0x26, r24	; 38
    //PORTC ^= (1<<PC7);
    i = key_state ^ ~KEY_PIN;                       // key changed ?
    1d30:	90 91 28 03 	lds	r25, 0x0328
    1d34:	83 b1       	in	r24, 0x03	; 3
    1d36:	80 95       	com	r24
    1d38:	89 27       	eor	r24, r25
    ct0 = ~( ct0 & i );                             // reset or count ct0
    1d3a:	90 91 f4 01 	lds	r25, 0x01F4
    1d3e:	98 23       	and	r25, r24
    1d40:	90 95       	com	r25
    1d42:	90 93 f4 01 	sts	0x01F4, r25
    ct1 = ct0 ^ (ct1 & i);                          // reset or count ct1
    1d46:	20 91 f3 01 	lds	r18, 0x01F3
    1d4a:	28 23       	and	r18, r24
    1d4c:	29 27       	eor	r18, r25
    1d4e:	20 93 f3 01 	sts	0x01F3, r18
    i &= ct0 & ct1;                                 // count until roll over ?
    1d52:	89 23       	and	r24, r25
    1d54:	82 23       	and	r24, r18
    key_state ^= i;                                 // then toggle debounced state
    1d56:	90 91 28 03 	lds	r25, 0x0328
    1d5a:	98 27       	eor	r25, r24
    1d5c:	90 93 28 03 	sts	0x0328, r25
    key_press |= key_state & i;                     // 0->1: key press detect
    1d60:	90 91 26 03 	lds	r25, 0x0326
    1d64:	20 91 28 03 	lds	r18, 0x0328
    1d68:	28 23       	and	r18, r24
    1d6a:	29 2b       	or	r18, r25
    1d6c:	20 93 26 03 	sts	0x0326, r18

    if( (key_state & REPEAT_MASK) == 0 )            // check repeat function
    1d70:	80 91 28 03 	lds	r24, 0x0328
    1d74:	88 23       	and	r24, r24
    1d76:	19 f4       	brne	.+6      	; 0x1d7e <__vector_18+0x62>
        rpt = REPEAT_START;                          // start delay
    1d78:	82 e3       	ldi	r24, 0x32	; 50
    1d7a:	80 93 f2 01 	sts	0x01F2, r24
    if( --rpt == 0 )
    1d7e:	80 91 f2 01 	lds	r24, 0x01F2
    1d82:	81 50       	subi	r24, 0x01	; 1
    1d84:	80 93 f2 01 	sts	0x01F2, r24
    1d88:	88 23       	and	r24, r24
    1d8a:	51 f4       	brne	.+20     	; 0x1da0 <__vector_18+0x84>
    {
        rpt = REPEAT_NEXT;                            // repeat delay
    1d8c:	8a e0       	ldi	r24, 0x0A	; 10
    1d8e:	80 93 f2 01 	sts	0x01F2, r24
        key_rpt |= key_state & REPEAT_MASK;
    1d92:	90 91 fa 02 	lds	r25, 0x02FA
    1d96:	80 91 28 03 	lds	r24, 0x0328
    1d9a:	89 2b       	or	r24, r25
    1d9c:	80 93 fa 02 	sts	0x02FA, r24

    }

    messcounter1++;
    1da0:	80 91 f1 01 	lds	r24, 0x01F1
    1da4:	8f 5f       	subi	r24, 0xFF	; 255
    1da6:	80 93 f1 01 	sts	0x01F1, r24
    if(messcounter1 == 25)
    1daa:	89 31       	cpi	r24, 0x19	; 25
    1dac:	81 f4       	brne	.+32     	; 0x1dce <__vector_18+0xb2>
    {
        messcounter1 = 0;
    1dae:	10 92 f1 01 	sts	0x01F1, r1
        messflag1 = 1;
    1db2:	91 e0       	ldi	r25, 0x01	; 1
    1db4:	90 93 03 03 	sts	0x0303, r25
        messcounter2++;
    1db8:	80 91 f0 01 	lds	r24, 0x01F0
    1dbc:	8f 5f       	subi	r24, 0xFF	; 255
    1dbe:	80 93 f0 01 	sts	0x01F0, r24
        if (messcounter2 == 2)
    1dc2:	82 30       	cpi	r24, 0x02	; 2
    1dc4:	21 f4       	brne	.+8      	; 0x1dce <__vector_18+0xb2>
        {
            messcounter2 = 0;
    1dc6:	10 92 f0 01 	sts	0x01F0, r1
            messflag2 =1;
    1dca:	90 93 27 03 	sts	0x0327, r25
        }
    }
}
    1dce:	9f 91       	pop	r25
    1dd0:	8f 91       	pop	r24
    1dd2:	2f 91       	pop	r18
    1dd4:	0f 90       	pop	r0
    1dd6:	0f be       	out	0x3f, r0	; 63
    1dd8:	0f 90       	pop	r0
    1dda:	1f 90       	pop	r1
    1ddc:	18 95       	reti

00001dde <get_key_press>:
 * only once
 *///---------------------------------------------------------------

uint8_t get_key_press( uint8_t key_mask )
{
    cli();                                          // read and clear atomic !
    1dde:	f8 94       	cli
    key_mask &= key_press;                          // read key(s)
    1de0:	90 91 26 03 	lds	r25, 0x0326
    1de4:	89 23       	and	r24, r25
    key_press ^= key_mask;                          // clear key(s)
    1de6:	90 91 26 03 	lds	r25, 0x0326
    1dea:	98 27       	eor	r25, r24
    1dec:	90 93 26 03 	sts	0x0326, r25
    sei();
    1df0:	78 94       	sei
    return key_mask;
}
    1df2:	08 95       	ret

00001df4 <get_key_rpt>:
// to this function. This simulates the user repeatedly
// pressing and releasing the key.
//
uint8_t get_key_rpt( uint8_t key_mask )
{
    cli();                                          // read and clear atomic !
    1df4:	f8 94       	cli
    key_mask &= key_rpt;                            // read key(s)
    1df6:	90 91 fa 02 	lds	r25, 0x02FA
    1dfa:	89 23       	and	r24, r25
    key_rpt ^= key_mask;                            // clear key(s)
    1dfc:	90 91 fa 02 	lds	r25, 0x02FA
    1e00:	98 27       	eor	r25, r24
    1e02:	90 93 fa 02 	sts	0x02FA, r25
    sei();
    1e06:	78 94       	sei
    return key_mask;
}
    1e08:	08 95       	ret

00001e0a <get_key_short>:

///////////////////////////////////////////////////////////////////
//
uint8_t get_key_short( uint8_t key_mask )
{
    cli();                                          // read key state and key press atomic !
    1e0a:	f8 94       	cli
    return get_key_press( ~key_state & key_mask );
    1e0c:	90 91 28 03 	lds	r25, 0x0328
    1e10:	90 95       	com	r25
    1e12:	89 23       	and	r24, r25
    1e14:	0e 94 ef 0e 	call	0x1dde	; 0x1dde <get_key_press>
}
    1e18:	08 95       	ret

00001e1a <get_key_long>:

///////////////////////////////////////////////////////////////////
//
uint8_t get_key_long( uint8_t key_mask )
{
    return get_key_press( get_key_rpt( key_mask ));
    1e1a:	0e 94 fa 0e 	call	0x1df4	; 0x1df4 <get_key_rpt>
    1e1e:	0e 94 ef 0e 	call	0x1dde	; 0x1dde <get_key_press>
}
    1e22:	08 95       	ret

00001e24 <init_taster>:
void init_taster()
{
    KEY_DDR &= ~ALL_KEYS;                // konfigure key port for input
    1e24:	84 b1       	in	r24, 0x04	; 4
    1e26:	14 b8       	out	0x04, r1	; 4
    KEY_PORT |= ALL_KEYS;                // and turn on pull up resistors
    1e28:	85 b1       	in	r24, 0x05	; 5
    1e2a:	8f ef       	ldi	r24, 0xFF	; 255
    1e2c:	85 b9       	out	0x05, r24	; 5

    TCCR0B |= (1<<CS00)|(1<<CS02);			// divide by 1024
    1e2e:	85 b5       	in	r24, 0x25	; 37
    1e30:	85 60       	ori	r24, 0x05	; 5
    1e32:	85 bd       	out	0x25, r24	; 37
    TIMSK0 |= 1<<TOIE0;				// enable timer interrupt
    1e34:	ee e6       	ldi	r30, 0x6E	; 110
    1e36:	f0 e0       	ldi	r31, 0x00	; 0
    1e38:	80 81       	ld	r24, Z
    1e3a:	81 60       	ori	r24, 0x01	; 1
    1e3c:	80 83       	st	Z, r24
    sei();
    1e3e:	78 94       	sei

}
    1e40:	08 95       	ret

00001e42 <__vector_20>:
SIGNAL(UART0_RECEIVE_INTERRUPT)
/*************************************************************************
Function: UART Receive Complete interrupt
Purpose:  called when the UART has received a character
**************************************************************************/
{
    1e42:	1f 92       	push	r1
    1e44:	0f 92       	push	r0
    1e46:	0f b6       	in	r0, 0x3f	; 63
    1e48:	0f 92       	push	r0
    1e4a:	11 24       	eor	r1, r1
    1e4c:	2f 93       	push	r18
    1e4e:	8f 93       	push	r24
    1e50:	9f 93       	push	r25
    1e52:	ef 93       	push	r30
    1e54:	ff 93       	push	r31
    unsigned char usr;
    unsigned char lastRxError;


    /* read UART status register and UART data register */
    usr  = UART0_STATUS;
    1e56:	80 91 c0 00 	lds	r24, 0x00C0
    data = UART0_DATA;
    1e5a:	90 91 c6 00 	lds	r25, 0x00C6
#elif defined ( ATMEGA_UART )
    lastRxError = (usr & (_BV(FE)|_BV(DOR)) );
#endif

    /* calculate buffer index */
    tmphead = ( UART_RxHead + 1) & UART_RX_BUFFER_MASK;
    1e5e:	e0 91 5c 02 	lds	r30, 0x025C
    1e62:	ef 5f       	subi	r30, 0xFF	; 255
    1e64:	ef 71       	andi	r30, 0x1F	; 31

    if ( tmphead == UART_RxTail )
    1e66:	20 91 5d 02 	lds	r18, 0x025D
    1e6a:	e2 17       	cp	r30, r18
    1e6c:	41 f0       	breq	.+16     	; 0x1e7e <__vector_20+0x3c>
#if defined( AT90_UART )
    lastRxError = (usr & (_BV(FE)|_BV(DOR)) );
#elif defined( ATMEGA_USART )
    lastRxError = (usr & (_BV(FE)|_BV(DOR)) );
#elif defined( ATMEGA_USART0 )
    lastRxError = (usr & (_BV(FE0)|_BV(DOR0)) );
    1e6e:	88 71       	andi	r24, 0x18	; 24
        lastRxError = UART_BUFFER_OVERFLOW >> 8;
    }
    else
    {
        /* store new index */
        UART_RxHead = tmphead;
    1e70:	e0 93 5c 02 	sts	0x025C, r30
        /* store received data in buffer */
        UART_RxBuf[tmphead] = data;
    1e74:	f0 e0       	ldi	r31, 0x00	; 0
    1e76:	e2 5a       	subi	r30, 0xA2	; 162
    1e78:	fd 4f       	sbci	r31, 0xFD	; 253
    1e7a:	90 83       	st	Z, r25
    1e7c:	01 c0       	rjmp	.+2      	; 0x1e80 <__vector_20+0x3e>
    tmphead = ( UART_RxHead + 1) & UART_RX_BUFFER_MASK;

    if ( tmphead == UART_RxTail )
    {
        /* error: receive buffer overflow */
        lastRxError = UART_BUFFER_OVERFLOW >> 8;
    1e7e:	82 e0       	ldi	r24, 0x02	; 2
        /* store new index */
        UART_RxHead = tmphead;
        /* store received data in buffer */
        UART_RxBuf[tmphead] = data;
    }
    UART_LastRxError = lastRxError;
    1e80:	80 93 7e 02 	sts	0x027E, r24
}
    1e84:	ff 91       	pop	r31
    1e86:	ef 91       	pop	r30
    1e88:	9f 91       	pop	r25
    1e8a:	8f 91       	pop	r24
    1e8c:	2f 91       	pop	r18
    1e8e:	0f 90       	pop	r0
    1e90:	0f be       	out	0x3f, r0	; 63
    1e92:	0f 90       	pop	r0
    1e94:	1f 90       	pop	r1
    1e96:	18 95       	reti

00001e98 <__vector_21>:
SIGNAL(UART0_TRANSMIT_INTERRUPT)
/*************************************************************************
Function: UART Data Register Empty interrupt
Purpose:  called when the UART is ready to transmit the next byte
**************************************************************************/
{
    1e98:	1f 92       	push	r1
    1e9a:	0f 92       	push	r0
    1e9c:	0f b6       	in	r0, 0x3f	; 63
    1e9e:	0f 92       	push	r0
    1ea0:	11 24       	eor	r1, r1
    1ea2:	8f 93       	push	r24
    1ea4:	9f 93       	push	r25
    1ea6:	ef 93       	push	r30
    1ea8:	ff 93       	push	r31
    unsigned char tmptail;


    if ( UART_TxHead != UART_TxTail)
    1eaa:	90 91 3a 02 	lds	r25, 0x023A
    1eae:	80 91 3b 02 	lds	r24, 0x023B
    1eb2:	98 17       	cp	r25, r24
    1eb4:	69 f0       	breq	.+26     	; 0x1ed0 <__vector_21+0x38>
    {
        /* calculate and store new buffer index */
        tmptail = (UART_TxTail + 1) & UART_TX_BUFFER_MASK;
    1eb6:	e0 91 3b 02 	lds	r30, 0x023B
    1eba:	ef 5f       	subi	r30, 0xFF	; 255
    1ebc:	ef 71       	andi	r30, 0x1F	; 31
        UART_TxTail = tmptail;
    1ebe:	e0 93 3b 02 	sts	0x023B, r30
        /* get one byte from buffer and write it to UART */
        UART0_DATA = UART_TxBuf[tmptail];  /* start transmission */
    1ec2:	f0 e0       	ldi	r31, 0x00	; 0
    1ec4:	e4 5c       	subi	r30, 0xC4	; 196
    1ec6:	fd 4f       	sbci	r31, 0xFD	; 253
    1ec8:	80 81       	ld	r24, Z
    1eca:	80 93 c6 00 	sts	0x00C6, r24
    1ece:	05 c0       	rjmp	.+10     	; 0x1eda <__vector_21+0x42>
    }
    else
    {
        /* tx buffer empty, disable UDRE interrupt */
        UART0_CONTROL &= ~_BV(UART0_UDRIE);
    1ed0:	80 91 c1 00 	lds	r24, 0x00C1
    1ed4:	8f 7d       	andi	r24, 0xDF	; 223
    1ed6:	80 93 c1 00 	sts	0x00C1, r24
    }
}
    1eda:	ff 91       	pop	r31
    1edc:	ef 91       	pop	r30
    1ede:	9f 91       	pop	r25
    1ee0:	8f 91       	pop	r24
    1ee2:	0f 90       	pop	r0
    1ee4:	0f be       	out	0x3f, r0	; 63
    1ee6:	0f 90       	pop	r0
    1ee8:	1f 90       	pop	r1
    1eea:	18 95       	reti

00001eec <uart_init>:
Input:    baudrate using macro UART_BAUD_SELECT()
Returns:  none
**************************************************************************/
void uart_init(unsigned int baudrate)
{
    UART_TxHead = 0;
    1eec:	10 92 3a 02 	sts	0x023A, r1
    UART_TxTail = 0;
    1ef0:	10 92 3b 02 	sts	0x023B, r1
    UART_RxHead = 0;
    1ef4:	10 92 5c 02 	sts	0x025C, r1
    UART_RxTail = 0;
    1ef8:	10 92 5d 02 	sts	0x025D, r1
    UCSRC = (3<<UCSZ0);
#endif

#elif defined (ATMEGA_USART0 )
    /* Set baud rate */
    if ( baudrate & 0x8000 )
    1efc:	97 ff       	sbrs	r25, 7
    1efe:	04 c0       	rjmp	.+8      	; 0x1f08 <uart_init+0x1c>
    {
        UART0_STATUS = (1<<U2X0);  //Enable 2x speed
    1f00:	22 e0       	ldi	r18, 0x02	; 2
    1f02:	20 93 c0 00 	sts	0x00C0, r18
        baudrate &= ~0x8000;
    1f06:	9f 77       	andi	r25, 0x7F	; 127
    }
    UBRR0H = (unsigned char)(baudrate>>8);
    1f08:	90 93 c5 00 	sts	0x00C5, r25
    UBRR0L = (unsigned char) baudrate;
    1f0c:	80 93 c4 00 	sts	0x00C4, r24

    /* Enable USART receiver and transmitter and receive complete interrupt */
    UART0_CONTROL = _BV(RXCIE0)|(1<<RXEN0)|(1<<TXEN0);
    1f10:	88 e9       	ldi	r24, 0x98	; 152
    1f12:	80 93 c1 00 	sts	0x00C1, r24

    /* Set frame format: asynchronous, 8data, no parity, 1stop bit */
#ifdef URSEL0
    UCSR0C = (1<<URSEL0)|(3<<UCSZ00);
#else
    UCSR0C = (3<<UCSZ00);
    1f16:	86 e0       	ldi	r24, 0x06	; 6
    1f18:	80 93 c2 00 	sts	0x00C2, r24
    /* Enable UART receiver and transmitter and receive complete interrupt */
    UART0_CONTROL = _BV(RXCIE)|(1<<RXEN)|(1<<TXEN);

#endif

}/* uart_init */
    1f1c:	08 95       	ret

00001f1e <uart_getc>:
{
    unsigned char tmptail;
    unsigned char data;


    if ( UART_RxHead == UART_RxTail )
    1f1e:	90 91 5c 02 	lds	r25, 0x025C
    1f22:	80 91 5d 02 	lds	r24, 0x025D
    1f26:	98 17       	cp	r25, r24
    1f28:	89 f0       	breq	.+34     	; 0x1f4c <uart_getc+0x2e>
    {
        return UART_NO_DATA;   /* no data available */
    }

    /* calculate /store buffer index */
    tmptail = (UART_RxTail + 1) & UART_RX_BUFFER_MASK;
    1f2a:	e0 91 5d 02 	lds	r30, 0x025D
    1f2e:	ef 5f       	subi	r30, 0xFF	; 255
    1f30:	ef 71       	andi	r30, 0x1F	; 31
    UART_RxTail = tmptail;
    1f32:	e0 93 5d 02 	sts	0x025D, r30

    /* get data from receive buffer */
    data = UART_RxBuf[tmptail];
    1f36:	f0 e0       	ldi	r31, 0x00	; 0
    1f38:	e2 5a       	subi	r30, 0xA2	; 162
    1f3a:	fd 4f       	sbci	r31, 0xFD	; 253
    1f3c:	80 81       	ld	r24, Z

    return (UART_LastRxError << 8) + data;
    1f3e:	90 91 7e 02 	lds	r25, 0x027E
    1f42:	39 2f       	mov	r19, r25
    1f44:	20 e0       	ldi	r18, 0x00	; 0
    1f46:	28 0f       	add	r18, r24
    1f48:	31 1d       	adc	r19, r1
    1f4a:	02 c0       	rjmp	.+4      	; 0x1f50 <uart_getc+0x32>
    unsigned char data;


    if ( UART_RxHead == UART_RxTail )
    {
        return UART_NO_DATA;   /* no data available */
    1f4c:	20 e0       	ldi	r18, 0x00	; 0
    1f4e:	31 e0       	ldi	r19, 0x01	; 1
    /* get data from receive buffer */
    data = UART_RxBuf[tmptail];

    return (UART_LastRxError << 8) + data;

}/* uart_getc */
    1f50:	c9 01       	movw	r24, r18
    1f52:	08 95       	ret

00001f54 <uart_putc>:
void uart_putc(unsigned char data)
{
    unsigned char tmphead;


    tmphead  = (UART_TxHead + 1) & UART_TX_BUFFER_MASK;
    1f54:	90 91 3a 02 	lds	r25, 0x023A
    1f58:	9f 5f       	subi	r25, 0xFF	; 255
    1f5a:	9f 71       	andi	r25, 0x1F	; 31

    while ( tmphead == UART_TxTail )
    1f5c:	20 91 3b 02 	lds	r18, 0x023B
    1f60:	92 17       	cp	r25, r18
    1f62:	e1 f3       	breq	.-8      	; 0x1f5c <uart_putc+0x8>
    {
        ;/* wait for free space in buffer */
    }

    UART_TxBuf[tmphead] = data;
    1f64:	e9 2f       	mov	r30, r25
    1f66:	f0 e0       	ldi	r31, 0x00	; 0
    1f68:	e4 5c       	subi	r30, 0xC4	; 196
    1f6a:	fd 4f       	sbci	r31, 0xFD	; 253
    1f6c:	80 83       	st	Z, r24
    UART_TxHead = tmphead;
    1f6e:	90 93 3a 02 	sts	0x023A, r25

    /* enable UDRE interrupt */
    UART0_CONTROL    |= _BV(UART0_UDRIE);
    1f72:	80 91 c1 00 	lds	r24, 0x00C1
    1f76:	80 62       	ori	r24, 0x20	; 32
    1f78:	80 93 c1 00 	sts	0x00C1, r24

}/* uart_putc */
    1f7c:	08 95       	ret

00001f7e <uart_puts>:
Purpose:  transmit string to UART
Input:    string to be transmitted
Returns:  none
**************************************************************************/
void uart_puts(const char *s )
{
    1f7e:	ef 92       	push	r14
    1f80:	ff 92       	push	r15
    1f82:	cf 93       	push	r28
    1f84:	df 93       	push	r29
    1f86:	e8 2e       	mov	r14, r24
    1f88:	e7 01       	movw	r28, r14
    1f8a:	7e 01       	movw	r14, r28
    1f8c:	f9 2e       	mov	r15, r25
    1f8e:	e7 01       	movw	r28, r14
    while (*s)
    1f90:	02 c0       	rjmp	.+4      	; 0x1f96 <uart_puts+0x18>
        uart_putc(*s++);
    1f92:	0e 94 aa 0f 	call	0x1f54	; 0x1f54 <uart_putc>
Input:    string to be transmitted
Returns:  none
**************************************************************************/
void uart_puts(const char *s )
{
    while (*s)
    1f96:	89 91       	ld	r24, Y+
    1f98:	88 23       	and	r24, r24
    1f9a:	d9 f7       	brne	.-10     	; 0x1f92 <uart_puts+0x14>
        uart_putc(*s++);

}/* uart_puts */
    1f9c:	df 91       	pop	r29
    1f9e:	cf 91       	pop	r28
    1fa0:	ff 90       	pop	r15
    1fa2:	ef 90       	pop	r14
    1fa4:	08 95       	ret

00001fa6 <uart_puts_p>:
Purpose:  transmit string from program memory to UART
Input:    program memory string to be transmitted
Returns:  none
**************************************************************************/
void uart_puts_p(const char *progmem_s )
{
    1fa6:	cf 93       	push	r28
    1fa8:	df 93       	push	r29
    1faa:	ec 01       	movw	r28, r24
    register char c;

    while ( (c = pgm_read_byte(progmem_s++)) )
    1fac:	02 c0       	rjmp	.+4      	; 0x1fb2 <uart_puts_p+0xc>
        uart_putc(c);
    1fae:	0e 94 aa 0f 	call	0x1f54	; 0x1f54 <uart_putc>
    1fb2:	fe 01       	movw	r30, r28
**************************************************************************/
void uart_puts_p(const char *progmem_s )
{
    register char c;

    while ( (c = pgm_read_byte(progmem_s++)) )
    1fb4:	21 96       	adiw	r28, 0x01	; 1
    1fb6:	84 91       	lpm	r24, Z+
    1fb8:	88 23       	and	r24, r24
    1fba:	c9 f7       	brne	.-14     	; 0x1fae <uart_puts_p+0x8>
        uart_putc(c);

}/* uart_puts_p */
    1fbc:	df 91       	pop	r29
    1fbe:	cf 91       	pop	r28
    1fc0:	08 95       	ret

00001fc2 <__vector_28>:
SIGNAL(UART1_RECEIVE_INTERRUPT)
/*************************************************************************
Function: UART1 Receive Complete interrupt
Purpose:  called when the UART1 has received a character
**************************************************************************/
{
    1fc2:	1f 92       	push	r1
    1fc4:	0f 92       	push	r0
    1fc6:	0f b6       	in	r0, 0x3f	; 63
    1fc8:	0f 92       	push	r0
    1fca:	11 24       	eor	r1, r1
    1fcc:	2f 93       	push	r18
    1fce:	8f 93       	push	r24
    1fd0:	9f 93       	push	r25
    1fd2:	ef 93       	push	r30
    1fd4:	ff 93       	push	r31
    unsigned char usr;
    unsigned char lastRxError;


    /* read UART status register and UART data register */
    usr  = UART1_STATUS;
    1fd6:	80 91 c8 00 	lds	r24, 0x00C8
    data = UART1_DATA;
    1fda:	90 91 ce 00 	lds	r25, 0x00CE

    /* */
    lastRxError = (usr & (_BV(FE1)|_BV(DOR1)) );

    /* calculate buffer index */
    tmphead = ( UART1_RxHead + 1) & UART_RX_BUFFER_MASK;
    1fde:	e0 91 17 02 	lds	r30, 0x0217
    1fe2:	ef 5f       	subi	r30, 0xFF	; 255
    1fe4:	ef 71       	andi	r30, 0x1F	; 31

    if ( tmphead == UART1_RxTail )
    1fe6:	20 91 18 02 	lds	r18, 0x0218
    1fea:	e2 17       	cp	r30, r18
    1fec:	41 f0       	breq	.+16     	; 0x1ffe <__vector_28+0x3c>
    /* read UART status register and UART data register */
    usr  = UART1_STATUS;
    data = UART1_DATA;

    /* */
    lastRxError = (usr & (_BV(FE1)|_BV(DOR1)) );
    1fee:	88 71       	andi	r24, 0x18	; 24
        lastRxError = UART_BUFFER_OVERFLOW >> 8;
    }
    else
    {
        /* store new index */
        UART1_RxHead = tmphead;
    1ff0:	e0 93 17 02 	sts	0x0217, r30
        /* store received data in buffer */
        UART1_RxBuf[tmphead] = data;
    1ff4:	f0 e0       	ldi	r31, 0x00	; 0
    1ff6:	e7 5e       	subi	r30, 0xE7	; 231
    1ff8:	fd 4f       	sbci	r31, 0xFD	; 253
    1ffa:	90 83       	st	Z, r25
    1ffc:	01 c0       	rjmp	.+2      	; 0x2000 <__vector_28+0x3e>
    tmphead = ( UART1_RxHead + 1) & UART_RX_BUFFER_MASK;

    if ( tmphead == UART1_RxTail )
    {
        /* error: receive buffer overflow */
        lastRxError = UART_BUFFER_OVERFLOW >> 8;
    1ffe:	82 e0       	ldi	r24, 0x02	; 2
        /* store new index */
        UART1_RxHead = tmphead;
        /* store received data in buffer */
        UART1_RxBuf[tmphead] = data;
    }
    UART1_LastRxError = lastRxError;
    2000:	80 93 39 02 	sts	0x0239, r24
}
    2004:	ff 91       	pop	r31
    2006:	ef 91       	pop	r30
    2008:	9f 91       	pop	r25
    200a:	8f 91       	pop	r24
    200c:	2f 91       	pop	r18
    200e:	0f 90       	pop	r0
    2010:	0f be       	out	0x3f, r0	; 63
    2012:	0f 90       	pop	r0
    2014:	1f 90       	pop	r1
    2016:	18 95       	reti

00002018 <__vector_29>:
SIGNAL(UART1_TRANSMIT_INTERRUPT)
/*************************************************************************
Function: UART1 Data Register Empty interrupt
Purpose:  called when the UART1 is ready to transmit the next byte
**************************************************************************/
{
    2018:	1f 92       	push	r1
    201a:	0f 92       	push	r0
    201c:	0f b6       	in	r0, 0x3f	; 63
    201e:	0f 92       	push	r0
    2020:	11 24       	eor	r1, r1
    2022:	8f 93       	push	r24
    2024:	9f 93       	push	r25
    2026:	ef 93       	push	r30
    2028:	ff 93       	push	r31
    unsigned char tmptail;


    if ( UART1_TxHead != UART1_TxTail)
    202a:	90 91 f5 01 	lds	r25, 0x01F5
    202e:	80 91 f6 01 	lds	r24, 0x01F6
    2032:	98 17       	cp	r25, r24
    2034:	69 f0       	breq	.+26     	; 0x2050 <__vector_29+0x38>
    {
        /* calculate and store new buffer index */
        tmptail = (UART1_TxTail + 1) & UART_TX_BUFFER_MASK;
    2036:	e0 91 f6 01 	lds	r30, 0x01F6
    203a:	ef 5f       	subi	r30, 0xFF	; 255
    203c:	ef 71       	andi	r30, 0x1F	; 31
        UART1_TxTail = tmptail;
    203e:	e0 93 f6 01 	sts	0x01F6, r30
        /* get one byte from buffer and write it to UART */
        UART1_DATA = UART1_TxBuf[tmptail];  /* start transmission */
    2042:	f0 e0       	ldi	r31, 0x00	; 0
    2044:	e9 50       	subi	r30, 0x09	; 9
    2046:	fe 4f       	sbci	r31, 0xFE	; 254
    2048:	80 81       	ld	r24, Z
    204a:	80 93 ce 00 	sts	0x00CE, r24
    204e:	05 c0       	rjmp	.+10     	; 0x205a <__vector_29+0x42>
    }
    else
    {
        /* tx buffer empty, disable UDRE interrupt */
        UART1_CONTROL &= ~_BV(UART1_UDRIE);
    2050:	80 91 c9 00 	lds	r24, 0x00C9
    2054:	8f 7d       	andi	r24, 0xDF	; 223
    2056:	80 93 c9 00 	sts	0x00C9, r24
    }
}
    205a:	ff 91       	pop	r31
    205c:	ef 91       	pop	r30
    205e:	9f 91       	pop	r25
    2060:	8f 91       	pop	r24
    2062:	0f 90       	pop	r0
    2064:	0f be       	out	0x3f, r0	; 63
    2066:	0f 90       	pop	r0
    2068:	1f 90       	pop	r1
    206a:	18 95       	reti

0000206c <uart1_init>:
Input:    baudrate using macro UART_BAUD_SELECT()
Returns:  none
**************************************************************************/
void uart1_init(unsigned int baudrate)
{
    UART1_TxHead = 0;
    206c:	10 92 f5 01 	sts	0x01F5, r1
    UART1_TxTail = 0;
    2070:	10 92 f6 01 	sts	0x01F6, r1
    UART1_RxHead = 0;
    2074:	10 92 17 02 	sts	0x0217, r1
    UART1_RxTail = 0;
    2078:	10 92 18 02 	sts	0x0218, r1


    /* Set baud rate */
    if ( baudrate & 0x8000 )
    207c:	97 ff       	sbrs	r25, 7
    207e:	04 c0       	rjmp	.+8      	; 0x2088 <uart1_init+0x1c>
    {
        UART1_STATUS = (1<<U2X1);  //Enable 2x speed
    2080:	22 e0       	ldi	r18, 0x02	; 2
    2082:	20 93 c8 00 	sts	0x00C8, r18
        baudrate &= ~0x8000;
    2086:	9f 77       	andi	r25, 0x7F	; 127
    }
    UBRR1H = (unsigned char)(baudrate>>8);
    2088:	90 93 cd 00 	sts	0x00CD, r25
    UBRR1L = (unsigned char) baudrate;
    208c:	80 93 cc 00 	sts	0x00CC, r24

    /* Enable USART receiver and transmitter and receive complete interrupt */
    UART1_CONTROL = _BV(RXCIE1)|(1<<RXEN1)|(1<<TXEN1);
    2090:	88 e9       	ldi	r24, 0x98	; 152
    2092:	80 93 c9 00 	sts	0x00C9, r24

    /* Set frame format: asynchronous, 8data, no parity, 1stop bit */
#ifdef URSEL1
    UCSR1C = (1<<URSEL1)|(3<<UCSZ10);
#else
    UCSR1C = (3<<UCSZ10);
    2096:	86 e0       	ldi	r24, 0x06	; 6
    2098:	80 93 ca 00 	sts	0x00CA, r24
#endif
}/* uart_init */
    209c:	08 95       	ret

0000209e <uart1_getc>:
{
    unsigned char tmptail;
    unsigned char data;


    if ( UART1_RxHead == UART1_RxTail )
    209e:	90 91 17 02 	lds	r25, 0x0217
    20a2:	80 91 18 02 	lds	r24, 0x0218
    20a6:	98 17       	cp	r25, r24
    20a8:	89 f0       	breq	.+34     	; 0x20cc <uart1_getc+0x2e>
    {
        return UART_NO_DATA;   /* no data available */
    }

    /* calculate /store buffer index */
    tmptail = (UART1_RxTail + 1) & UART_RX_BUFFER_MASK;
    20aa:	e0 91 18 02 	lds	r30, 0x0218
    20ae:	ef 5f       	subi	r30, 0xFF	; 255
    20b0:	ef 71       	andi	r30, 0x1F	; 31
    UART1_RxTail = tmptail;
    20b2:	e0 93 18 02 	sts	0x0218, r30

    /* get data from receive buffer */
    data = UART1_RxBuf[tmptail];
    20b6:	f0 e0       	ldi	r31, 0x00	; 0
    20b8:	e7 5e       	subi	r30, 0xE7	; 231
    20ba:	fd 4f       	sbci	r31, 0xFD	; 253
    20bc:	80 81       	ld	r24, Z

    return (UART1_LastRxError << 8) + data;
    20be:	90 91 39 02 	lds	r25, 0x0239
    20c2:	39 2f       	mov	r19, r25
    20c4:	20 e0       	ldi	r18, 0x00	; 0
    20c6:	28 0f       	add	r18, r24
    20c8:	31 1d       	adc	r19, r1
    20ca:	02 c0       	rjmp	.+4      	; 0x20d0 <uart1_getc+0x32>
    unsigned char data;


    if ( UART1_RxHead == UART1_RxTail )
    {
        return UART_NO_DATA;   /* no data available */
    20cc:	20 e0       	ldi	r18, 0x00	; 0
    20ce:	31 e0       	ldi	r19, 0x01	; 1
    /* get data from receive buffer */
    data = UART1_RxBuf[tmptail];

    return (UART1_LastRxError << 8) + data;

}/* uart1_getc */
    20d0:	c9 01       	movw	r24, r18
    20d2:	08 95       	ret

000020d4 <uart1_putc>:
void uart1_putc(unsigned char data)
{
    unsigned char tmphead;


    tmphead  = (UART1_TxHead + 1) & UART_TX_BUFFER_MASK;
    20d4:	90 91 f5 01 	lds	r25, 0x01F5
    20d8:	9f 5f       	subi	r25, 0xFF	; 255
    20da:	9f 71       	andi	r25, 0x1F	; 31

    while ( tmphead == UART1_TxTail )
    20dc:	20 91 f6 01 	lds	r18, 0x01F6
    20e0:	92 17       	cp	r25, r18
    20e2:	e1 f3       	breq	.-8      	; 0x20dc <uart1_putc+0x8>
    {
        ;/* wait for free space in buffer */
    }

    UART1_TxBuf[tmphead] = data;
    20e4:	e9 2f       	mov	r30, r25
    20e6:	f0 e0       	ldi	r31, 0x00	; 0
    20e8:	e9 50       	subi	r30, 0x09	; 9
    20ea:	fe 4f       	sbci	r31, 0xFE	; 254
    20ec:	80 83       	st	Z, r24
    UART1_TxHead = tmphead;
    20ee:	90 93 f5 01 	sts	0x01F5, r25

    /* enable UDRE interrupt */
    UART1_CONTROL    |= _BV(UART1_UDRIE);
    20f2:	80 91 c9 00 	lds	r24, 0x00C9
    20f6:	80 62       	ori	r24, 0x20	; 32
    20f8:	80 93 c9 00 	sts	0x00C9, r24

}/* uart1_putc */
    20fc:	08 95       	ret

000020fe <uart1_puts>:
Purpose:  transmit string to UART1
Input:    string to be transmitted
Returns:  none
**************************************************************************/
void uart1_puts(const char *s )
{
    20fe:	ef 92       	push	r14
    2100:	ff 92       	push	r15
    2102:	cf 93       	push	r28
    2104:	df 93       	push	r29
    2106:	e8 2e       	mov	r14, r24
    2108:	e7 01       	movw	r28, r14
    210a:	7e 01       	movw	r14, r28
    210c:	f9 2e       	mov	r15, r25
    210e:	e7 01       	movw	r28, r14
    while (*s)
    2110:	02 c0       	rjmp	.+4      	; 0x2116 <uart1_puts+0x18>
        uart1_putc(*s++);
    2112:	0e 94 6a 10 	call	0x20d4	; 0x20d4 <uart1_putc>
Input:    string to be transmitted
Returns:  none
**************************************************************************/
void uart1_puts(const char *s )
{
    while (*s)
    2116:	89 91       	ld	r24, Y+
    2118:	88 23       	and	r24, r24
    211a:	d9 f7       	brne	.-10     	; 0x2112 <uart1_puts+0x14>
        uart1_putc(*s++);

}/* uart1_puts */
    211c:	df 91       	pop	r29
    211e:	cf 91       	pop	r28
    2120:	ff 90       	pop	r15
    2122:	ef 90       	pop	r14
    2124:	08 95       	ret

00002126 <uart1_puts_p>:
Purpose:  transmit string from program memory to UART1
Input:    program memory string to be transmitted
Returns:  none
**************************************************************************/
void uart1_puts_p(const char *progmem_s )
{
    2126:	cf 93       	push	r28
    2128:	df 93       	push	r29
    212a:	ec 01       	movw	r28, r24
    register char c;

    while ( (c = pgm_read_byte(progmem_s++)) )
    212c:	02 c0       	rjmp	.+4      	; 0x2132 <uart1_puts_p+0xc>
        uart1_putc(c);
    212e:	0e 94 6a 10 	call	0x20d4	; 0x20d4 <uart1_putc>
    2132:	fe 01       	movw	r30, r28
**************************************************************************/
void uart1_puts_p(const char *progmem_s )
{
    register char c;

    while ( (c = pgm_read_byte(progmem_s++)) )
    2134:	21 96       	adiw	r28, 0x01	; 1
    2136:	84 91       	lpm	r24, Z+
    2138:	88 23       	and	r24, r24
    213a:	c9 f7       	brne	.-14     	; 0x212e <uart1_puts_p+0x8>
        uart1_putc(c);

}/* uart1_puts_p */
    213c:	df 91       	pop	r29
    213e:	cf 91       	pop	r28
    2140:	08 95       	ret

00002142 <__mulsi3>:
    2142:	62 9f       	mul	r22, r18
    2144:	d0 01       	movw	r26, r0
    2146:	73 9f       	mul	r23, r19
    2148:	f0 01       	movw	r30, r0
    214a:	82 9f       	mul	r24, r18
    214c:	e0 0d       	add	r30, r0
    214e:	f1 1d       	adc	r31, r1
    2150:	64 9f       	mul	r22, r20
    2152:	e0 0d       	add	r30, r0
    2154:	f1 1d       	adc	r31, r1
    2156:	92 9f       	mul	r25, r18
    2158:	f0 0d       	add	r31, r0
    215a:	83 9f       	mul	r24, r19
    215c:	f0 0d       	add	r31, r0
    215e:	74 9f       	mul	r23, r20
    2160:	f0 0d       	add	r31, r0
    2162:	65 9f       	mul	r22, r21
    2164:	f0 0d       	add	r31, r0
    2166:	99 27       	eor	r25, r25
    2168:	72 9f       	mul	r23, r18
    216a:	b0 0d       	add	r27, r0
    216c:	e1 1d       	adc	r30, r1
    216e:	f9 1f       	adc	r31, r25
    2170:	63 9f       	mul	r22, r19
    2172:	b0 0d       	add	r27, r0
    2174:	e1 1d       	adc	r30, r1
    2176:	f9 1f       	adc	r31, r25
    2178:	bd 01       	movw	r22, r26
    217a:	cf 01       	movw	r24, r30
    217c:	11 24       	eor	r1, r1
    217e:	08 95       	ret

00002180 <__udivmodqi4>:
    2180:	99 1b       	sub	r25, r25
    2182:	79 e0       	ldi	r23, 0x09	; 9
    2184:	04 c0       	rjmp	.+8      	; 0x218e <__udivmodqi4_ep>

00002186 <__udivmodqi4_loop>:
    2186:	99 1f       	adc	r25, r25
    2188:	96 17       	cp	r25, r22
    218a:	08 f0       	brcs	.+2      	; 0x218e <__udivmodqi4_ep>
    218c:	96 1b       	sub	r25, r22

0000218e <__udivmodqi4_ep>:
    218e:	88 1f       	adc	r24, r24
    2190:	7a 95       	dec	r23
    2192:	c9 f7       	brne	.-14     	; 0x2186 <__udivmodqi4_loop>
    2194:	80 95       	com	r24
    2196:	08 95       	ret

00002198 <__divmodsi4>:
    2198:	97 fb       	bst	r25, 7
    219a:	09 2e       	mov	r0, r25
    219c:	05 26       	eor	r0, r21
    219e:	0e d0       	rcall	.+28     	; 0x21bc <__divmodsi4_neg1>
    21a0:	57 fd       	sbrc	r21, 7
    21a2:	04 d0       	rcall	.+8      	; 0x21ac <__divmodsi4_neg2>
    21a4:	14 d0       	rcall	.+40     	; 0x21ce <__udivmodsi4>
    21a6:	0a d0       	rcall	.+20     	; 0x21bc <__divmodsi4_neg1>
    21a8:	00 1c       	adc	r0, r0
    21aa:	38 f4       	brcc	.+14     	; 0x21ba <__divmodsi4_exit>

000021ac <__divmodsi4_neg2>:
    21ac:	50 95       	com	r21
    21ae:	40 95       	com	r20
    21b0:	30 95       	com	r19
    21b2:	21 95       	neg	r18
    21b4:	3f 4f       	sbci	r19, 0xFF	; 255
    21b6:	4f 4f       	sbci	r20, 0xFF	; 255
    21b8:	5f 4f       	sbci	r21, 0xFF	; 255

000021ba <__divmodsi4_exit>:
    21ba:	08 95       	ret

000021bc <__divmodsi4_neg1>:
    21bc:	f6 f7       	brtc	.-4      	; 0x21ba <__divmodsi4_exit>
    21be:	90 95       	com	r25
    21c0:	80 95       	com	r24
    21c2:	70 95       	com	r23
    21c4:	61 95       	neg	r22
    21c6:	7f 4f       	sbci	r23, 0xFF	; 255
    21c8:	8f 4f       	sbci	r24, 0xFF	; 255
    21ca:	9f 4f       	sbci	r25, 0xFF	; 255
    21cc:	08 95       	ret

000021ce <__udivmodsi4>:
    21ce:	a1 e2       	ldi	r26, 0x21	; 33
    21d0:	1a 2e       	mov	r1, r26
    21d2:	aa 1b       	sub	r26, r26
    21d4:	bb 1b       	sub	r27, r27
    21d6:	fd 01       	movw	r30, r26
    21d8:	0d c0       	rjmp	.+26     	; 0x21f4 <__udivmodsi4_ep>

000021da <__udivmodsi4_loop>:
    21da:	aa 1f       	adc	r26, r26
    21dc:	bb 1f       	adc	r27, r27
    21de:	ee 1f       	adc	r30, r30
    21e0:	ff 1f       	adc	r31, r31
    21e2:	a2 17       	cp	r26, r18
    21e4:	b3 07       	cpc	r27, r19
    21e6:	e4 07       	cpc	r30, r20
    21e8:	f5 07       	cpc	r31, r21
    21ea:	20 f0       	brcs	.+8      	; 0x21f4 <__udivmodsi4_ep>
    21ec:	a2 1b       	sub	r26, r18
    21ee:	b3 0b       	sbc	r27, r19
    21f0:	e4 0b       	sbc	r30, r20
    21f2:	f5 0b       	sbc	r31, r21

000021f4 <__udivmodsi4_ep>:
    21f4:	66 1f       	adc	r22, r22
    21f6:	77 1f       	adc	r23, r23
    21f8:	88 1f       	adc	r24, r24
    21fa:	99 1f       	adc	r25, r25
    21fc:	1a 94       	dec	r1
    21fe:	69 f7       	brne	.-38     	; 0x21da <__udivmodsi4_loop>
    2200:	60 95       	com	r22
    2202:	70 95       	com	r23
    2204:	80 95       	com	r24
    2206:	90 95       	com	r25
    2208:	9b 01       	movw	r18, r22
    220a:	ac 01       	movw	r20, r24
    220c:	bd 01       	movw	r22, r26
    220e:	cf 01       	movw	r24, r30
    2210:	08 95       	ret

00002212 <strcpy_P>:
    2212:	fb 01       	movw	r30, r22
    2214:	dc 01       	movw	r26, r24
    2216:	05 90       	lpm	r0, Z+
    2218:	0d 92       	st	X+, r0
    221a:	00 20       	and	r0, r0
    221c:	e1 f7       	brne	.-8      	; 0x2216 <strcpy_P+0x4>
    221e:	08 95       	ret

00002220 <sprintf>:
    2220:	ae e0       	ldi	r26, 0x0E	; 14
    2222:	b0 e0       	ldi	r27, 0x00	; 0
    2224:	e6 e1       	ldi	r30, 0x16	; 22
    2226:	f1 e1       	ldi	r31, 0x11	; 17
    2228:	0c 94 f8 13 	jmp	0x27f0	; 0x27f0 <__prologue_saves__+0x1c>
    222c:	0d 89       	ldd	r16, Y+21	; 0x15
    222e:	1e 89       	ldd	r17, Y+22	; 0x16
    2230:	86 e0       	ldi	r24, 0x06	; 6
    2232:	8c 83       	std	Y+4, r24	; 0x04
    2234:	1a 83       	std	Y+2, r17	; 0x02
    2236:	09 83       	std	Y+1, r16	; 0x01
    2238:	8f ef       	ldi	r24, 0xFF	; 255
    223a:	9f e7       	ldi	r25, 0x7F	; 127
    223c:	9e 83       	std	Y+6, r25	; 0x06
    223e:	8d 83       	std	Y+5, r24	; 0x05
    2240:	9e 01       	movw	r18, r28
    2242:	27 5e       	subi	r18, 0xE7	; 231
    2244:	3f 4f       	sbci	r19, 0xFF	; 255
    2246:	ce 01       	movw	r24, r28
    2248:	01 96       	adiw	r24, 0x01	; 1
    224a:	6f 89       	ldd	r22, Y+23	; 0x17
    224c:	78 8d       	ldd	r23, Y+24	; 0x18
    224e:	a9 01       	movw	r20, r18
    2250:	0e 94 33 11 	call	0x2266	; 0x2266 <vfprintf>
    2254:	ef 81       	ldd	r30, Y+7	; 0x07
    2256:	f8 85       	ldd	r31, Y+8	; 0x08
    2258:	e0 0f       	add	r30, r16
    225a:	f1 1f       	adc	r31, r17
    225c:	10 82       	st	Z, r1
    225e:	2e 96       	adiw	r28, 0x0e	; 14
    2260:	e4 e0       	ldi	r30, 0x04	; 4
    2262:	0c 94 14 14 	jmp	0x2828	; 0x2828 <__epilogue_restores__+0x1c>

00002266 <vfprintf>:
    2266:	ac e0       	ldi	r26, 0x0C	; 12
    2268:	b0 e0       	ldi	r27, 0x00	; 0
    226a:	e9 e3       	ldi	r30, 0x39	; 57
    226c:	f1 e1       	ldi	r31, 0x11	; 17
    226e:	0c 94 ea 13 	jmp	0x27d4	; 0x27d4 <__prologue_saves__>
    2272:	6c 01       	movw	r12, r24
    2274:	1b 01       	movw	r2, r22
    2276:	8a 01       	movw	r16, r20
    2278:	fc 01       	movw	r30, r24
    227a:	17 82       	std	Z+7, r1	; 0x07
    227c:	16 82       	std	Z+6, r1	; 0x06
    227e:	83 81       	ldd	r24, Z+3	; 0x03
    2280:	81 ff       	sbrs	r24, 1
    2282:	d1 c1       	rjmp	.+930    	; 0x2626 <vfprintf+0x3c0>
    2284:	2e 01       	movw	r4, r28
    2286:	08 94       	sec
    2288:	41 1c       	adc	r4, r1
    228a:	51 1c       	adc	r5, r1
    228c:	f6 01       	movw	r30, r12
    228e:	93 81       	ldd	r25, Z+3	; 0x03
    2290:	f1 01       	movw	r30, r2
    2292:	93 fd       	sbrc	r25, 3
    2294:	85 91       	lpm	r24, Z+
    2296:	93 ff       	sbrs	r25, 3
    2298:	81 91       	ld	r24, Z+
    229a:	1f 01       	movw	r2, r30
    229c:	88 23       	and	r24, r24
    229e:	09 f4       	brne	.+2      	; 0x22a2 <vfprintf+0x3c>
    22a0:	be c1       	rjmp	.+892    	; 0x261e <vfprintf+0x3b8>
    22a2:	85 32       	cpi	r24, 0x25	; 37
    22a4:	39 f4       	brne	.+14     	; 0x22b4 <vfprintf+0x4e>
    22a6:	93 fd       	sbrc	r25, 3
    22a8:	85 91       	lpm	r24, Z+
    22aa:	93 ff       	sbrs	r25, 3
    22ac:	81 91       	ld	r24, Z+
    22ae:	1f 01       	movw	r2, r30
    22b0:	85 32       	cpi	r24, 0x25	; 37
    22b2:	29 f4       	brne	.+10     	; 0x22be <vfprintf+0x58>
    22b4:	90 e0       	ldi	r25, 0x00	; 0
    22b6:	b6 01       	movw	r22, r12
    22b8:	0e 94 60 13 	call	0x26c0	; 0x26c0 <fputc>
    22bc:	e7 cf       	rjmp	.-50     	; 0x228c <vfprintf+0x26>
    22be:	ee 24       	eor	r14, r14
    22c0:	ff 24       	eor	r15, r15
    22c2:	20 e0       	ldi	r18, 0x00	; 0
    22c4:	20 32       	cpi	r18, 0x20	; 32
    22c6:	b0 f4       	brcc	.+44     	; 0x22f4 <vfprintf+0x8e>
    22c8:	8b 32       	cpi	r24, 0x2B	; 43
    22ca:	69 f0       	breq	.+26     	; 0x22e6 <vfprintf+0x80>
    22cc:	8c 32       	cpi	r24, 0x2C	; 44
    22ce:	28 f4       	brcc	.+10     	; 0x22da <vfprintf+0x74>
    22d0:	80 32       	cpi	r24, 0x20	; 32
    22d2:	51 f0       	breq	.+20     	; 0x22e8 <vfprintf+0x82>
    22d4:	83 32       	cpi	r24, 0x23	; 35
    22d6:	71 f4       	brne	.+28     	; 0x22f4 <vfprintf+0x8e>
    22d8:	0b c0       	rjmp	.+22     	; 0x22f0 <vfprintf+0x8a>
    22da:	8d 32       	cpi	r24, 0x2D	; 45
    22dc:	39 f0       	breq	.+14     	; 0x22ec <vfprintf+0x86>
    22de:	80 33       	cpi	r24, 0x30	; 48
    22e0:	49 f4       	brne	.+18     	; 0x22f4 <vfprintf+0x8e>
    22e2:	21 60       	ori	r18, 0x01	; 1
    22e4:	2c c0       	rjmp	.+88     	; 0x233e <vfprintf+0xd8>
    22e6:	22 60       	ori	r18, 0x02	; 2
    22e8:	24 60       	ori	r18, 0x04	; 4
    22ea:	29 c0       	rjmp	.+82     	; 0x233e <vfprintf+0xd8>
    22ec:	28 60       	ori	r18, 0x08	; 8
    22ee:	27 c0       	rjmp	.+78     	; 0x233e <vfprintf+0xd8>
    22f0:	20 61       	ori	r18, 0x10	; 16
    22f2:	25 c0       	rjmp	.+74     	; 0x233e <vfprintf+0xd8>
    22f4:	27 fd       	sbrc	r18, 7
    22f6:	2c c0       	rjmp	.+88     	; 0x2350 <vfprintf+0xea>
    22f8:	38 2f       	mov	r19, r24
    22fa:	30 53       	subi	r19, 0x30	; 48
    22fc:	3a 30       	cpi	r19, 0x0A	; 10
    22fe:	98 f4       	brcc	.+38     	; 0x2326 <vfprintf+0xc0>
    2300:	26 ff       	sbrs	r18, 6
    2302:	08 c0       	rjmp	.+16     	; 0x2314 <vfprintf+0xae>
    2304:	8e 2d       	mov	r24, r14
    2306:	88 0f       	add	r24, r24
    2308:	e8 2e       	mov	r14, r24
    230a:	ee 0c       	add	r14, r14
    230c:	ee 0c       	add	r14, r14
    230e:	e8 0e       	add	r14, r24
    2310:	e3 0e       	add	r14, r19
    2312:	15 c0       	rjmp	.+42     	; 0x233e <vfprintf+0xd8>
    2314:	8f 2d       	mov	r24, r15
    2316:	88 0f       	add	r24, r24
    2318:	f8 2e       	mov	r15, r24
    231a:	ff 0c       	add	r15, r15
    231c:	ff 0c       	add	r15, r15
    231e:	f8 0e       	add	r15, r24
    2320:	f3 0e       	add	r15, r19
    2322:	20 62       	ori	r18, 0x20	; 32
    2324:	0c c0       	rjmp	.+24     	; 0x233e <vfprintf+0xd8>
    2326:	8e 32       	cpi	r24, 0x2E	; 46
    2328:	21 f4       	brne	.+8      	; 0x2332 <vfprintf+0xcc>
    232a:	26 fd       	sbrc	r18, 6
    232c:	78 c1       	rjmp	.+752    	; 0x261e <vfprintf+0x3b8>
    232e:	20 64       	ori	r18, 0x40	; 64
    2330:	06 c0       	rjmp	.+12     	; 0x233e <vfprintf+0xd8>
    2332:	8c 36       	cpi	r24, 0x6C	; 108
    2334:	11 f4       	brne	.+4      	; 0x233a <vfprintf+0xd4>
    2336:	20 68       	ori	r18, 0x80	; 128
    2338:	02 c0       	rjmp	.+4      	; 0x233e <vfprintf+0xd8>
    233a:	88 36       	cpi	r24, 0x68	; 104
    233c:	49 f4       	brne	.+18     	; 0x2350 <vfprintf+0xea>
    233e:	f1 01       	movw	r30, r2
    2340:	93 fd       	sbrc	r25, 3
    2342:	85 91       	lpm	r24, Z+
    2344:	93 ff       	sbrs	r25, 3
    2346:	81 91       	ld	r24, Z+
    2348:	1f 01       	movw	r2, r30
    234a:	88 23       	and	r24, r24
    234c:	09 f0       	breq	.+2      	; 0x2350 <vfprintf+0xea>
    234e:	ba cf       	rjmp	.-140    	; 0x22c4 <vfprintf+0x5e>
    2350:	98 2f       	mov	r25, r24
    2352:	95 54       	subi	r25, 0x45	; 69
    2354:	93 30       	cpi	r25, 0x03	; 3
    2356:	18 f0       	brcs	.+6      	; 0x235e <vfprintf+0xf8>
    2358:	90 52       	subi	r25, 0x20	; 32
    235a:	93 30       	cpi	r25, 0x03	; 3
    235c:	28 f4       	brcc	.+10     	; 0x2368 <vfprintf+0x102>
    235e:	0c 5f       	subi	r16, 0xFC	; 252
    2360:	1f 4f       	sbci	r17, 0xFF	; 255
    2362:	ff e3       	ldi	r31, 0x3F	; 63
    2364:	f9 83       	std	Y+1, r31	; 0x01
    2366:	0d c0       	rjmp	.+26     	; 0x2382 <vfprintf+0x11c>
    2368:	83 36       	cpi	r24, 0x63	; 99
    236a:	31 f0       	breq	.+12     	; 0x2378 <vfprintf+0x112>
    236c:	83 37       	cpi	r24, 0x73	; 115
    236e:	71 f0       	breq	.+28     	; 0x238c <vfprintf+0x126>
    2370:	83 35       	cpi	r24, 0x53	; 83
    2372:	09 f0       	breq	.+2      	; 0x2376 <vfprintf+0x110>
    2374:	60 c0       	rjmp	.+192    	; 0x2436 <vfprintf+0x1d0>
    2376:	22 c0       	rjmp	.+68     	; 0x23bc <vfprintf+0x156>
    2378:	f8 01       	movw	r30, r16
    237a:	80 81       	ld	r24, Z
    237c:	89 83       	std	Y+1, r24	; 0x01
    237e:	0e 5f       	subi	r16, 0xFE	; 254
    2380:	1f 4f       	sbci	r17, 0xFF	; 255
    2382:	42 01       	movw	r8, r4
    2384:	71 e0       	ldi	r23, 0x01	; 1
    2386:	a7 2e       	mov	r10, r23
    2388:	b1 2c       	mov	r11, r1
    238a:	16 c0       	rjmp	.+44     	; 0x23b8 <vfprintf+0x152>
    238c:	62 e0       	ldi	r22, 0x02	; 2
    238e:	66 2e       	mov	r6, r22
    2390:	71 2c       	mov	r7, r1
    2392:	60 0e       	add	r6, r16
    2394:	71 1e       	adc	r7, r17
    2396:	f8 01       	movw	r30, r16
    2398:	80 80       	ld	r8, Z
    239a:	91 80       	ldd	r9, Z+1	; 0x01
    239c:	26 ff       	sbrs	r18, 6
    239e:	03 c0       	rjmp	.+6      	; 0x23a6 <vfprintf+0x140>
    23a0:	6e 2d       	mov	r22, r14
    23a2:	70 e0       	ldi	r23, 0x00	; 0
    23a4:	02 c0       	rjmp	.+4      	; 0x23aa <vfprintf+0x144>
    23a6:	6f ef       	ldi	r22, 0xFF	; 255
    23a8:	7f ef       	ldi	r23, 0xFF	; 255
    23aa:	c4 01       	movw	r24, r8
    23ac:	2c 87       	std	Y+12, r18	; 0x0c
    23ae:	0e 94 55 13 	call	0x26aa	; 0x26aa <strnlen>
    23b2:	5c 01       	movw	r10, r24
    23b4:	83 01       	movw	r16, r6
    23b6:	2c 85       	ldd	r18, Y+12	; 0x0c
    23b8:	2f 77       	andi	r18, 0x7F	; 127
    23ba:	17 c0       	rjmp	.+46     	; 0x23ea <vfprintf+0x184>
    23bc:	52 e0       	ldi	r21, 0x02	; 2
    23be:	65 2e       	mov	r6, r21
    23c0:	71 2c       	mov	r7, r1
    23c2:	60 0e       	add	r6, r16
    23c4:	71 1e       	adc	r7, r17
    23c6:	f8 01       	movw	r30, r16
    23c8:	80 80       	ld	r8, Z
    23ca:	91 80       	ldd	r9, Z+1	; 0x01
    23cc:	26 ff       	sbrs	r18, 6
    23ce:	03 c0       	rjmp	.+6      	; 0x23d6 <vfprintf+0x170>
    23d0:	6e 2d       	mov	r22, r14
    23d2:	70 e0       	ldi	r23, 0x00	; 0
    23d4:	02 c0       	rjmp	.+4      	; 0x23da <vfprintf+0x174>
    23d6:	6f ef       	ldi	r22, 0xFF	; 255
    23d8:	7f ef       	ldi	r23, 0xFF	; 255
    23da:	c4 01       	movw	r24, r8
    23dc:	2c 87       	std	Y+12, r18	; 0x0c
    23de:	0e 94 4a 13 	call	0x2694	; 0x2694 <strnlen_P>
    23e2:	5c 01       	movw	r10, r24
    23e4:	2c 85       	ldd	r18, Y+12	; 0x0c
    23e6:	20 68       	ori	r18, 0x80	; 128
    23e8:	83 01       	movw	r16, r6
    23ea:	23 fd       	sbrc	r18, 3
    23ec:	20 c0       	rjmp	.+64     	; 0x242e <vfprintf+0x1c8>
    23ee:	08 c0       	rjmp	.+16     	; 0x2400 <vfprintf+0x19a>
    23f0:	80 e2       	ldi	r24, 0x20	; 32
    23f2:	90 e0       	ldi	r25, 0x00	; 0
    23f4:	b6 01       	movw	r22, r12
    23f6:	2c 87       	std	Y+12, r18	; 0x0c
    23f8:	0e 94 60 13 	call	0x26c0	; 0x26c0 <fputc>
    23fc:	fa 94       	dec	r15
    23fe:	2c 85       	ldd	r18, Y+12	; 0x0c
    2400:	8f 2d       	mov	r24, r15
    2402:	90 e0       	ldi	r25, 0x00	; 0
    2404:	a8 16       	cp	r10, r24
    2406:	b9 06       	cpc	r11, r25
    2408:	98 f3       	brcs	.-26     	; 0x23f0 <vfprintf+0x18a>
    240a:	11 c0       	rjmp	.+34     	; 0x242e <vfprintf+0x1c8>
    240c:	f4 01       	movw	r30, r8
    240e:	27 fd       	sbrc	r18, 7
    2410:	85 91       	lpm	r24, Z+
    2412:	27 ff       	sbrs	r18, 7
    2414:	81 91       	ld	r24, Z+
    2416:	4f 01       	movw	r8, r30
    2418:	90 e0       	ldi	r25, 0x00	; 0
    241a:	b6 01       	movw	r22, r12
    241c:	2c 87       	std	Y+12, r18	; 0x0c
    241e:	0e 94 60 13 	call	0x26c0	; 0x26c0 <fputc>
    2422:	2c 85       	ldd	r18, Y+12	; 0x0c
    2424:	f1 10       	cpse	r15, r1
    2426:	fa 94       	dec	r15
    2428:	08 94       	sec
    242a:	a1 08       	sbc	r10, r1
    242c:	b1 08       	sbc	r11, r1
    242e:	a1 14       	cp	r10, r1
    2430:	b1 04       	cpc	r11, r1
    2432:	61 f7       	brne	.-40     	; 0x240c <vfprintf+0x1a6>
    2434:	f1 c0       	rjmp	.+482    	; 0x2618 <vfprintf+0x3b2>
    2436:	84 36       	cpi	r24, 0x64	; 100
    2438:	11 f0       	breq	.+4      	; 0x243e <vfprintf+0x1d8>
    243a:	89 36       	cpi	r24, 0x69	; 105
    243c:	49 f5       	brne	.+82     	; 0x2490 <vfprintf+0x22a>
    243e:	27 ff       	sbrs	r18, 7
    2440:	08 c0       	rjmp	.+16     	; 0x2452 <vfprintf+0x1ec>
    2442:	f8 01       	movw	r30, r16
    2444:	60 81       	ld	r22, Z
    2446:	71 81       	ldd	r23, Z+1	; 0x01
    2448:	82 81       	ldd	r24, Z+2	; 0x02
    244a:	93 81       	ldd	r25, Z+3	; 0x03
    244c:	0c 5f       	subi	r16, 0xFC	; 252
    244e:	1f 4f       	sbci	r17, 0xFF	; 255
    2450:	09 c0       	rjmp	.+18     	; 0x2464 <vfprintf+0x1fe>
    2452:	f8 01       	movw	r30, r16
    2454:	60 81       	ld	r22, Z
    2456:	71 81       	ldd	r23, Z+1	; 0x01
    2458:	88 27       	eor	r24, r24
    245a:	77 fd       	sbrc	r23, 7
    245c:	80 95       	com	r24
    245e:	98 2f       	mov	r25, r24
    2460:	0e 5f       	subi	r16, 0xFE	; 254
    2462:	1f 4f       	sbci	r17, 0xFF	; 255
    2464:	4f e6       	ldi	r20, 0x6F	; 111
    2466:	b4 2e       	mov	r11, r20
    2468:	b2 22       	and	r11, r18
    246a:	97 ff       	sbrs	r25, 7
    246c:	09 c0       	rjmp	.+18     	; 0x2480 <vfprintf+0x21a>
    246e:	90 95       	com	r25
    2470:	80 95       	com	r24
    2472:	70 95       	com	r23
    2474:	61 95       	neg	r22
    2476:	7f 4f       	sbci	r23, 0xFF	; 255
    2478:	8f 4f       	sbci	r24, 0xFF	; 255
    247a:	9f 4f       	sbci	r25, 0xFF	; 255
    247c:	f0 e8       	ldi	r31, 0x80	; 128
    247e:	bf 2a       	or	r11, r31
    2480:	a2 01       	movw	r20, r4
    2482:	2a e0       	ldi	r18, 0x0A	; 10
    2484:	30 e0       	ldi	r19, 0x00	; 0
    2486:	0e 94 8c 13 	call	0x2718	; 0x2718 <__ultoa_invert>
    248a:	78 2e       	mov	r7, r24
    248c:	74 18       	sub	r7, r4
    248e:	45 c0       	rjmp	.+138    	; 0x251a <vfprintf+0x2b4>
    2490:	85 37       	cpi	r24, 0x75	; 117
    2492:	31 f4       	brne	.+12     	; 0x24a0 <vfprintf+0x23a>
    2494:	3f ee       	ldi	r19, 0xEF	; 239
    2496:	b3 2e       	mov	r11, r19
    2498:	b2 22       	and	r11, r18
    249a:	2a e0       	ldi	r18, 0x0A	; 10
    249c:	30 e0       	ldi	r19, 0x00	; 0
    249e:	25 c0       	rjmp	.+74     	; 0x24ea <vfprintf+0x284>
    24a0:	99 ef       	ldi	r25, 0xF9	; 249
    24a2:	b9 2e       	mov	r11, r25
    24a4:	b2 22       	and	r11, r18
    24a6:	8f 36       	cpi	r24, 0x6F	; 111
    24a8:	c1 f0       	breq	.+48     	; 0x24da <vfprintf+0x274>
    24aa:	80 37       	cpi	r24, 0x70	; 112
    24ac:	20 f4       	brcc	.+8      	; 0x24b6 <vfprintf+0x250>
    24ae:	88 35       	cpi	r24, 0x58	; 88
    24b0:	09 f0       	breq	.+2      	; 0x24b4 <vfprintf+0x24e>
    24b2:	b5 c0       	rjmp	.+362    	; 0x261e <vfprintf+0x3b8>
    24b4:	0d c0       	rjmp	.+26     	; 0x24d0 <vfprintf+0x26a>
    24b6:	80 37       	cpi	r24, 0x70	; 112
    24b8:	21 f0       	breq	.+8      	; 0x24c2 <vfprintf+0x25c>
    24ba:	88 37       	cpi	r24, 0x78	; 120
    24bc:	09 f0       	breq	.+2      	; 0x24c0 <vfprintf+0x25a>
    24be:	af c0       	rjmp	.+350    	; 0x261e <vfprintf+0x3b8>
    24c0:	02 c0       	rjmp	.+4      	; 0x24c6 <vfprintf+0x260>
    24c2:	20 e1       	ldi	r18, 0x10	; 16
    24c4:	b2 2a       	or	r11, r18
    24c6:	b4 fe       	sbrs	r11, 4
    24c8:	0b c0       	rjmp	.+22     	; 0x24e0 <vfprintf+0x27a>
    24ca:	84 e0       	ldi	r24, 0x04	; 4
    24cc:	b8 2a       	or	r11, r24
    24ce:	08 c0       	rjmp	.+16     	; 0x24e0 <vfprintf+0x27a>
    24d0:	b4 fe       	sbrs	r11, 4
    24d2:	09 c0       	rjmp	.+18     	; 0x24e6 <vfprintf+0x280>
    24d4:	e6 e0       	ldi	r30, 0x06	; 6
    24d6:	be 2a       	or	r11, r30
    24d8:	06 c0       	rjmp	.+12     	; 0x24e6 <vfprintf+0x280>
    24da:	28 e0       	ldi	r18, 0x08	; 8
    24dc:	30 e0       	ldi	r19, 0x00	; 0
    24de:	05 c0       	rjmp	.+10     	; 0x24ea <vfprintf+0x284>
    24e0:	20 e1       	ldi	r18, 0x10	; 16
    24e2:	30 e0       	ldi	r19, 0x00	; 0
    24e4:	02 c0       	rjmp	.+4      	; 0x24ea <vfprintf+0x284>
    24e6:	20 e1       	ldi	r18, 0x10	; 16
    24e8:	32 e0       	ldi	r19, 0x02	; 2
    24ea:	b7 fe       	sbrs	r11, 7
    24ec:	08 c0       	rjmp	.+16     	; 0x24fe <vfprintf+0x298>
    24ee:	f8 01       	movw	r30, r16
    24f0:	60 81       	ld	r22, Z
    24f2:	71 81       	ldd	r23, Z+1	; 0x01
    24f4:	82 81       	ldd	r24, Z+2	; 0x02
    24f6:	93 81       	ldd	r25, Z+3	; 0x03
    24f8:	0c 5f       	subi	r16, 0xFC	; 252
    24fa:	1f 4f       	sbci	r17, 0xFF	; 255
    24fc:	07 c0       	rjmp	.+14     	; 0x250c <vfprintf+0x2a6>
    24fe:	f8 01       	movw	r30, r16
    2500:	60 81       	ld	r22, Z
    2502:	71 81       	ldd	r23, Z+1	; 0x01
    2504:	80 e0       	ldi	r24, 0x00	; 0
    2506:	90 e0       	ldi	r25, 0x00	; 0
    2508:	0e 5f       	subi	r16, 0xFE	; 254
    250a:	1f 4f       	sbci	r17, 0xFF	; 255
    250c:	a2 01       	movw	r20, r4
    250e:	0e 94 8c 13 	call	0x2718	; 0x2718 <__ultoa_invert>
    2512:	78 2e       	mov	r7, r24
    2514:	74 18       	sub	r7, r4
    2516:	ff e7       	ldi	r31, 0x7F	; 127
    2518:	bf 22       	and	r11, r31
    251a:	b6 fe       	sbrs	r11, 6
    251c:	0b c0       	rjmp	.+22     	; 0x2534 <vfprintf+0x2ce>
    251e:	2e ef       	ldi	r18, 0xFE	; 254
    2520:	b2 22       	and	r11, r18
    2522:	7e 14       	cp	r7, r14
    2524:	38 f4       	brcc	.+14     	; 0x2534 <vfprintf+0x2ce>
    2526:	b4 fe       	sbrs	r11, 4
    2528:	07 c0       	rjmp	.+14     	; 0x2538 <vfprintf+0x2d2>
    252a:	b2 fc       	sbrc	r11, 2
    252c:	05 c0       	rjmp	.+10     	; 0x2538 <vfprintf+0x2d2>
    252e:	8f ee       	ldi	r24, 0xEF	; 239
    2530:	b8 22       	and	r11, r24
    2532:	02 c0       	rjmp	.+4      	; 0x2538 <vfprintf+0x2d2>
    2534:	a7 2c       	mov	r10, r7
    2536:	01 c0       	rjmp	.+2      	; 0x253a <vfprintf+0x2d4>
    2538:	ae 2c       	mov	r10, r14
    253a:	8b 2d       	mov	r24, r11
    253c:	90 e0       	ldi	r25, 0x00	; 0
    253e:	b4 fe       	sbrs	r11, 4
    2540:	0d c0       	rjmp	.+26     	; 0x255c <vfprintf+0x2f6>
    2542:	fe 01       	movw	r30, r28
    2544:	e7 0d       	add	r30, r7
    2546:	f1 1d       	adc	r31, r1
    2548:	20 81       	ld	r18, Z
    254a:	20 33       	cpi	r18, 0x30	; 48
    254c:	19 f4       	brne	.+6      	; 0x2554 <vfprintf+0x2ee>
    254e:	e9 ee       	ldi	r30, 0xE9	; 233
    2550:	be 22       	and	r11, r30
    2552:	09 c0       	rjmp	.+18     	; 0x2566 <vfprintf+0x300>
    2554:	a3 94       	inc	r10
    2556:	b2 fe       	sbrs	r11, 2
    2558:	06 c0       	rjmp	.+12     	; 0x2566 <vfprintf+0x300>
    255a:	04 c0       	rjmp	.+8      	; 0x2564 <vfprintf+0x2fe>
    255c:	86 78       	andi	r24, 0x86	; 134
    255e:	90 70       	andi	r25, 0x00	; 0
    2560:	00 97       	sbiw	r24, 0x00	; 0
    2562:	09 f0       	breq	.+2      	; 0x2566 <vfprintf+0x300>
    2564:	a3 94       	inc	r10
    2566:	8b 2c       	mov	r8, r11
    2568:	99 24       	eor	r9, r9
    256a:	b3 fc       	sbrc	r11, 3
    256c:	14 c0       	rjmp	.+40     	; 0x2596 <vfprintf+0x330>
    256e:	b0 fe       	sbrs	r11, 0
    2570:	0f c0       	rjmp	.+30     	; 0x2590 <vfprintf+0x32a>
    2572:	af 14       	cp	r10, r15
    2574:	28 f4       	brcc	.+10     	; 0x2580 <vfprintf+0x31a>
    2576:	e7 2c       	mov	r14, r7
    2578:	ef 0c       	add	r14, r15
    257a:	ea 18       	sub	r14, r10
    257c:	af 2c       	mov	r10, r15
    257e:	08 c0       	rjmp	.+16     	; 0x2590 <vfprintf+0x32a>
    2580:	e7 2c       	mov	r14, r7
    2582:	06 c0       	rjmp	.+12     	; 0x2590 <vfprintf+0x32a>
    2584:	80 e2       	ldi	r24, 0x20	; 32
    2586:	90 e0       	ldi	r25, 0x00	; 0
    2588:	b6 01       	movw	r22, r12
    258a:	0e 94 60 13 	call	0x26c0	; 0x26c0 <fputc>
    258e:	a3 94       	inc	r10
    2590:	af 14       	cp	r10, r15
    2592:	c0 f3       	brcs	.-16     	; 0x2584 <vfprintf+0x31e>
    2594:	04 c0       	rjmp	.+8      	; 0x259e <vfprintf+0x338>
    2596:	af 14       	cp	r10, r15
    2598:	10 f4       	brcc	.+4      	; 0x259e <vfprintf+0x338>
    259a:	fa 18       	sub	r15, r10
    259c:	01 c0       	rjmp	.+2      	; 0x25a0 <vfprintf+0x33a>
    259e:	ff 24       	eor	r15, r15
    25a0:	84 fe       	sbrs	r8, 4
    25a2:	0f c0       	rjmp	.+30     	; 0x25c2 <vfprintf+0x35c>
    25a4:	80 e3       	ldi	r24, 0x30	; 48
    25a6:	90 e0       	ldi	r25, 0x00	; 0
    25a8:	b6 01       	movw	r22, r12
    25aa:	0e 94 60 13 	call	0x26c0	; 0x26c0 <fputc>
    25ae:	82 fe       	sbrs	r8, 2
    25b0:	1f c0       	rjmp	.+62     	; 0x25f0 <vfprintf+0x38a>
    25b2:	81 fe       	sbrs	r8, 1
    25b4:	03 c0       	rjmp	.+6      	; 0x25bc <vfprintf+0x356>
    25b6:	88 e5       	ldi	r24, 0x58	; 88
    25b8:	90 e0       	ldi	r25, 0x00	; 0
    25ba:	10 c0       	rjmp	.+32     	; 0x25dc <vfprintf+0x376>
    25bc:	88 e7       	ldi	r24, 0x78	; 120
    25be:	90 e0       	ldi	r25, 0x00	; 0
    25c0:	0d c0       	rjmp	.+26     	; 0x25dc <vfprintf+0x376>
    25c2:	c4 01       	movw	r24, r8
    25c4:	86 78       	andi	r24, 0x86	; 134
    25c6:	90 70       	andi	r25, 0x00	; 0
    25c8:	00 97       	sbiw	r24, 0x00	; 0
    25ca:	91 f0       	breq	.+36     	; 0x25f0 <vfprintf+0x38a>
    25cc:	81 fc       	sbrc	r8, 1
    25ce:	02 c0       	rjmp	.+4      	; 0x25d4 <vfprintf+0x36e>
    25d0:	80 e2       	ldi	r24, 0x20	; 32
    25d2:	01 c0       	rjmp	.+2      	; 0x25d6 <vfprintf+0x370>
    25d4:	8b e2       	ldi	r24, 0x2B	; 43
    25d6:	b7 fc       	sbrc	r11, 7
    25d8:	8d e2       	ldi	r24, 0x2D	; 45
    25da:	90 e0       	ldi	r25, 0x00	; 0
    25dc:	b6 01       	movw	r22, r12
    25de:	0e 94 60 13 	call	0x26c0	; 0x26c0 <fputc>
    25e2:	06 c0       	rjmp	.+12     	; 0x25f0 <vfprintf+0x38a>
    25e4:	80 e3       	ldi	r24, 0x30	; 48
    25e6:	90 e0       	ldi	r25, 0x00	; 0
    25e8:	b6 01       	movw	r22, r12
    25ea:	0e 94 60 13 	call	0x26c0	; 0x26c0 <fputc>
    25ee:	ea 94       	dec	r14
    25f0:	7e 14       	cp	r7, r14
    25f2:	c0 f3       	brcs	.-16     	; 0x25e4 <vfprintf+0x37e>
    25f4:	7a 94       	dec	r7
    25f6:	f2 01       	movw	r30, r4
    25f8:	e7 0d       	add	r30, r7
    25fa:	f1 1d       	adc	r31, r1
    25fc:	80 81       	ld	r24, Z
    25fe:	90 e0       	ldi	r25, 0x00	; 0
    2600:	b6 01       	movw	r22, r12
    2602:	0e 94 60 13 	call	0x26c0	; 0x26c0 <fputc>
    2606:	77 20       	and	r7, r7
    2608:	a9 f7       	brne	.-22     	; 0x25f4 <vfprintf+0x38e>
    260a:	06 c0       	rjmp	.+12     	; 0x2618 <vfprintf+0x3b2>
    260c:	80 e2       	ldi	r24, 0x20	; 32
    260e:	90 e0       	ldi	r25, 0x00	; 0
    2610:	b6 01       	movw	r22, r12
    2612:	0e 94 60 13 	call	0x26c0	; 0x26c0 <fputc>
    2616:	fa 94       	dec	r15
    2618:	ff 20       	and	r15, r15
    261a:	c1 f7       	brne	.-16     	; 0x260c <vfprintf+0x3a6>
    261c:	37 ce       	rjmp	.-914    	; 0x228c <vfprintf+0x26>
    261e:	f6 01       	movw	r30, r12
    2620:	26 81       	ldd	r18, Z+6	; 0x06
    2622:	37 81       	ldd	r19, Z+7	; 0x07
    2624:	02 c0       	rjmp	.+4      	; 0x262a <vfprintf+0x3c4>
    2626:	2f ef       	ldi	r18, 0xFF	; 255
    2628:	3f ef       	ldi	r19, 0xFF	; 255
    262a:	c9 01       	movw	r24, r18
    262c:	2c 96       	adiw	r28, 0x0c	; 12
    262e:	e2 e1       	ldi	r30, 0x12	; 18
    2630:	0c 94 06 14 	jmp	0x280c	; 0x280c <__epilogue_restores__>

00002634 <__eerd_block_m644p>:
    2634:	dc 01       	movw	r26, r24
    2636:	cb 01       	movw	r24, r22

00002638 <__eerd_blraw_m644p>:
    2638:	fc 01       	movw	r30, r24
    263a:	f9 99       	sbic	0x1f, 1	; 31
    263c:	fe cf       	rjmp	.-4      	; 0x263a <__eerd_blraw_m644p+0x2>
    263e:	06 c0       	rjmp	.+12     	; 0x264c <__eerd_blraw_m644p+0x14>
    2640:	f2 bd       	out	0x22, r31	; 34
    2642:	e1 bd       	out	0x21, r30	; 33
    2644:	f8 9a       	sbi	0x1f, 0	; 31
    2646:	31 96       	adiw	r30, 0x01	; 1
    2648:	00 b4       	in	r0, 0x20	; 32
    264a:	0d 92       	st	X+, r0
    264c:	41 50       	subi	r20, 0x01	; 1
    264e:	50 40       	sbci	r21, 0x00	; 0
    2650:	b8 f7       	brcc	.-18     	; 0x2640 <__eerd_blraw_m644p+0x8>
    2652:	08 95       	ret

00002654 <__eerd_byte_m644p>:
    2654:	f9 99       	sbic	0x1f, 1	; 31
    2656:	fe cf       	rjmp	.-4      	; 0x2654 <__eerd_byte_m644p>
    2658:	92 bd       	out	0x22, r25	; 34
    265a:	81 bd       	out	0x21, r24	; 33
    265c:	f8 9a       	sbi	0x1f, 0	; 31
    265e:	99 27       	eor	r25, r25
    2660:	80 b5       	in	r24, 0x20	; 32
    2662:	08 95       	ret

00002664 <__eewr_block_m644p>:
    2664:	dc 01       	movw	r26, r24
    2666:	cb 01       	movw	r24, r22
    2668:	03 c0       	rjmp	.+6      	; 0x2670 <__eewr_block_m644p+0xc>
    266a:	2d 91       	ld	r18, X+
    266c:	0e 94 3d 13 	call	0x267a	; 0x267a <__eewr_r18_m644p>
    2670:	41 50       	subi	r20, 0x01	; 1
    2672:	50 40       	sbci	r21, 0x00	; 0
    2674:	d0 f7       	brcc	.-12     	; 0x266a <__eewr_block_m644p+0x6>
    2676:	08 95       	ret

00002678 <__eewr_byte_m644p>:
    2678:	26 2f       	mov	r18, r22

0000267a <__eewr_r18_m644p>:
    267a:	f9 99       	sbic	0x1f, 1	; 31
    267c:	fe cf       	rjmp	.-4      	; 0x267a <__eewr_r18_m644p>
    267e:	1f ba       	out	0x1f, r1	; 31
    2680:	92 bd       	out	0x22, r25	; 34
    2682:	81 bd       	out	0x21, r24	; 33
    2684:	20 bd       	out	0x20, r18	; 32
    2686:	0f b6       	in	r0, 0x3f	; 63
    2688:	f8 94       	cli
    268a:	fa 9a       	sbi	0x1f, 2	; 31
    268c:	f9 9a       	sbi	0x1f, 1	; 31
    268e:	0f be       	out	0x3f, r0	; 63
    2690:	01 96       	adiw	r24, 0x01	; 1
    2692:	08 95       	ret

00002694 <strnlen_P>:
    2694:	fc 01       	movw	r30, r24
    2696:	05 90       	lpm	r0, Z+
    2698:	61 50       	subi	r22, 0x01	; 1
    269a:	70 40       	sbci	r23, 0x00	; 0
    269c:	01 10       	cpse	r0, r1
    269e:	d8 f7       	brcc	.-10     	; 0x2696 <strnlen_P+0x2>
    26a0:	80 95       	com	r24
    26a2:	90 95       	com	r25
    26a4:	8e 0f       	add	r24, r30
    26a6:	9f 1f       	adc	r25, r31
    26a8:	08 95       	ret

000026aa <strnlen>:
    26aa:	fc 01       	movw	r30, r24
    26ac:	61 50       	subi	r22, 0x01	; 1
    26ae:	70 40       	sbci	r23, 0x00	; 0
    26b0:	01 90       	ld	r0, Z+
    26b2:	01 10       	cpse	r0, r1
    26b4:	d8 f7       	brcc	.-10     	; 0x26ac <strnlen+0x2>
    26b6:	80 95       	com	r24
    26b8:	90 95       	com	r25
    26ba:	8e 0f       	add	r24, r30
    26bc:	9f 1f       	adc	r25, r31
    26be:	08 95       	ret

000026c0 <fputc>:
    26c0:	0f 93       	push	r16
    26c2:	1f 93       	push	r17
    26c4:	cf 93       	push	r28
    26c6:	df 93       	push	r29
    26c8:	8c 01       	movw	r16, r24
    26ca:	eb 01       	movw	r28, r22
    26cc:	8b 81       	ldd	r24, Y+3	; 0x03
    26ce:	81 ff       	sbrs	r24, 1
    26d0:	1b c0       	rjmp	.+54     	; 0x2708 <fputc+0x48>
    26d2:	82 ff       	sbrs	r24, 2
    26d4:	0d c0       	rjmp	.+26     	; 0x26f0 <fputc+0x30>
    26d6:	2e 81       	ldd	r18, Y+6	; 0x06
    26d8:	3f 81       	ldd	r19, Y+7	; 0x07
    26da:	8c 81       	ldd	r24, Y+4	; 0x04
    26dc:	9d 81       	ldd	r25, Y+5	; 0x05
    26de:	28 17       	cp	r18, r24
    26e0:	39 07       	cpc	r19, r25
    26e2:	64 f4       	brge	.+24     	; 0x26fc <fputc+0x3c>
    26e4:	e8 81       	ld	r30, Y
    26e6:	f9 81       	ldd	r31, Y+1	; 0x01
    26e8:	01 93       	st	Z+, r16
    26ea:	f9 83       	std	Y+1, r31	; 0x01
    26ec:	e8 83       	st	Y, r30
    26ee:	06 c0       	rjmp	.+12     	; 0x26fc <fputc+0x3c>
    26f0:	e8 85       	ldd	r30, Y+8	; 0x08
    26f2:	f9 85       	ldd	r31, Y+9	; 0x09
    26f4:	80 2f       	mov	r24, r16
    26f6:	09 95       	icall
    26f8:	00 97       	sbiw	r24, 0x00	; 0
    26fa:	31 f4       	brne	.+12     	; 0x2708 <fputc+0x48>
    26fc:	8e 81       	ldd	r24, Y+6	; 0x06
    26fe:	9f 81       	ldd	r25, Y+7	; 0x07
    2700:	01 96       	adiw	r24, 0x01	; 1
    2702:	9f 83       	std	Y+7, r25	; 0x07
    2704:	8e 83       	std	Y+6, r24	; 0x06
    2706:	02 c0       	rjmp	.+4      	; 0x270c <fputc+0x4c>
    2708:	0f ef       	ldi	r16, 0xFF	; 255
    270a:	1f ef       	ldi	r17, 0xFF	; 255
    270c:	c8 01       	movw	r24, r16
    270e:	df 91       	pop	r29
    2710:	cf 91       	pop	r28
    2712:	1f 91       	pop	r17
    2714:	0f 91       	pop	r16
    2716:	08 95       	ret

00002718 <__ultoa_invert>:
    2718:	fa 01       	movw	r30, r20
    271a:	aa 27       	eor	r26, r26
    271c:	28 30       	cpi	r18, 0x08	; 8
    271e:	51 f1       	breq	.+84     	; 0x2774 <__ultoa_invert+0x5c>
    2720:	20 31       	cpi	r18, 0x10	; 16
    2722:	81 f1       	breq	.+96     	; 0x2784 <__ultoa_invert+0x6c>
    2724:	e8 94       	clt
    2726:	6f 93       	push	r22
    2728:	6e 7f       	andi	r22, 0xFE	; 254
    272a:	6e 5f       	subi	r22, 0xFE	; 254
    272c:	7f 4f       	sbci	r23, 0xFF	; 255
    272e:	8f 4f       	sbci	r24, 0xFF	; 255
    2730:	9f 4f       	sbci	r25, 0xFF	; 255
    2732:	af 4f       	sbci	r26, 0xFF	; 255
    2734:	b1 e0       	ldi	r27, 0x01	; 1
    2736:	3e d0       	rcall	.+124    	; 0x27b4 <__ultoa_invert+0x9c>
    2738:	b4 e0       	ldi	r27, 0x04	; 4
    273a:	3c d0       	rcall	.+120    	; 0x27b4 <__ultoa_invert+0x9c>
    273c:	67 0f       	add	r22, r23
    273e:	78 1f       	adc	r23, r24
    2740:	89 1f       	adc	r24, r25
    2742:	9a 1f       	adc	r25, r26
    2744:	a1 1d       	adc	r26, r1
    2746:	68 0f       	add	r22, r24
    2748:	79 1f       	adc	r23, r25
    274a:	8a 1f       	adc	r24, r26
    274c:	91 1d       	adc	r25, r1
    274e:	a1 1d       	adc	r26, r1
    2750:	6a 0f       	add	r22, r26
    2752:	71 1d       	adc	r23, r1
    2754:	81 1d       	adc	r24, r1
    2756:	91 1d       	adc	r25, r1
    2758:	a1 1d       	adc	r26, r1
    275a:	20 d0       	rcall	.+64     	; 0x279c <__ultoa_invert+0x84>
    275c:	09 f4       	brne	.+2      	; 0x2760 <__ultoa_invert+0x48>
    275e:	68 94       	set
    2760:	3f 91       	pop	r19
    2762:	2a e0       	ldi	r18, 0x0A	; 10
    2764:	26 9f       	mul	r18, r22
    2766:	11 24       	eor	r1, r1
    2768:	30 19       	sub	r19, r0
    276a:	30 5d       	subi	r19, 0xD0	; 208
    276c:	31 93       	st	Z+, r19
    276e:	de f6       	brtc	.-74     	; 0x2726 <__ultoa_invert+0xe>
    2770:	cf 01       	movw	r24, r30
    2772:	08 95       	ret
    2774:	46 2f       	mov	r20, r22
    2776:	47 70       	andi	r20, 0x07	; 7
    2778:	40 5d       	subi	r20, 0xD0	; 208
    277a:	41 93       	st	Z+, r20
    277c:	b3 e0       	ldi	r27, 0x03	; 3
    277e:	0f d0       	rcall	.+30     	; 0x279e <__ultoa_invert+0x86>
    2780:	c9 f7       	brne	.-14     	; 0x2774 <__ultoa_invert+0x5c>
    2782:	f6 cf       	rjmp	.-20     	; 0x2770 <__ultoa_invert+0x58>
    2784:	46 2f       	mov	r20, r22
    2786:	4f 70       	andi	r20, 0x0F	; 15
    2788:	40 5d       	subi	r20, 0xD0	; 208
    278a:	4a 33       	cpi	r20, 0x3A	; 58
    278c:	18 f0       	brcs	.+6      	; 0x2794 <__ultoa_invert+0x7c>
    278e:	49 5d       	subi	r20, 0xD9	; 217
    2790:	31 fd       	sbrc	r19, 1
    2792:	40 52       	subi	r20, 0x20	; 32
    2794:	41 93       	st	Z+, r20
    2796:	02 d0       	rcall	.+4      	; 0x279c <__ultoa_invert+0x84>
    2798:	a9 f7       	brne	.-22     	; 0x2784 <__ultoa_invert+0x6c>
    279a:	ea cf       	rjmp	.-44     	; 0x2770 <__ultoa_invert+0x58>
    279c:	b4 e0       	ldi	r27, 0x04	; 4
    279e:	a6 95       	lsr	r26
    27a0:	97 95       	ror	r25
    27a2:	87 95       	ror	r24
    27a4:	77 95       	ror	r23
    27a6:	67 95       	ror	r22
    27a8:	ba 95       	dec	r27
    27aa:	c9 f7       	brne	.-14     	; 0x279e <__ultoa_invert+0x86>
    27ac:	00 97       	sbiw	r24, 0x00	; 0
    27ae:	61 05       	cpc	r22, r1
    27b0:	71 05       	cpc	r23, r1
    27b2:	08 95       	ret
    27b4:	9b 01       	movw	r18, r22
    27b6:	ac 01       	movw	r20, r24
    27b8:	0a 2e       	mov	r0, r26
    27ba:	06 94       	lsr	r0
    27bc:	57 95       	ror	r21
    27be:	47 95       	ror	r20
    27c0:	37 95       	ror	r19
    27c2:	27 95       	ror	r18
    27c4:	ba 95       	dec	r27
    27c6:	c9 f7       	brne	.-14     	; 0x27ba <__ultoa_invert+0xa2>
    27c8:	62 0f       	add	r22, r18
    27ca:	73 1f       	adc	r23, r19
    27cc:	84 1f       	adc	r24, r20
    27ce:	95 1f       	adc	r25, r21
    27d0:	a0 1d       	adc	r26, r0
    27d2:	08 95       	ret

000027d4 <__prologue_saves__>:
    27d4:	2f 92       	push	r2
    27d6:	3f 92       	push	r3
    27d8:	4f 92       	push	r4
    27da:	5f 92       	push	r5
    27dc:	6f 92       	push	r6
    27de:	7f 92       	push	r7
    27e0:	8f 92       	push	r8
    27e2:	9f 92       	push	r9
    27e4:	af 92       	push	r10
    27e6:	bf 92       	push	r11
    27e8:	cf 92       	push	r12
    27ea:	df 92       	push	r13
    27ec:	ef 92       	push	r14
    27ee:	ff 92       	push	r15
    27f0:	0f 93       	push	r16
    27f2:	1f 93       	push	r17
    27f4:	cf 93       	push	r28
    27f6:	df 93       	push	r29
    27f8:	cd b7       	in	r28, 0x3d	; 61
    27fa:	de b7       	in	r29, 0x3e	; 62
    27fc:	ca 1b       	sub	r28, r26
    27fe:	db 0b       	sbc	r29, r27
    2800:	0f b6       	in	r0, 0x3f	; 63
    2802:	f8 94       	cli
    2804:	de bf       	out	0x3e, r29	; 62
    2806:	0f be       	out	0x3f, r0	; 63
    2808:	cd bf       	out	0x3d, r28	; 61
    280a:	09 94       	ijmp

0000280c <__epilogue_restores__>:
    280c:	2a 88       	ldd	r2, Y+18	; 0x12
    280e:	39 88       	ldd	r3, Y+17	; 0x11
    2810:	48 88       	ldd	r4, Y+16	; 0x10
    2812:	5f 84       	ldd	r5, Y+15	; 0x0f
    2814:	6e 84       	ldd	r6, Y+14	; 0x0e
    2816:	7d 84       	ldd	r7, Y+13	; 0x0d
    2818:	8c 84       	ldd	r8, Y+12	; 0x0c
    281a:	9b 84       	ldd	r9, Y+11	; 0x0b
    281c:	aa 84       	ldd	r10, Y+10	; 0x0a
    281e:	b9 84       	ldd	r11, Y+9	; 0x09
    2820:	c8 84       	ldd	r12, Y+8	; 0x08
    2822:	df 80       	ldd	r13, Y+7	; 0x07
    2824:	ee 80       	ldd	r14, Y+6	; 0x06
    2826:	fd 80       	ldd	r15, Y+5	; 0x05
    2828:	0c 81       	ldd	r16, Y+4	; 0x04
    282a:	1b 81       	ldd	r17, Y+3	; 0x03
    282c:	aa 81       	ldd	r26, Y+2	; 0x02
    282e:	b9 81       	ldd	r27, Y+1	; 0x01
    2830:	ce 0f       	add	r28, r30
    2832:	d1 1d       	adc	r29, r1
    2834:	0f b6       	in	r0, 0x3f	; 63
    2836:	f8 94       	cli
    2838:	de bf       	out	0x3e, r29	; 62
    283a:	0f be       	out	0x3f, r0	; 63
    283c:	cd bf       	out	0x3d, r28	; 61
    283e:	ed 01       	movw	r28, r26
    2840:	08 95       	ret

00002842 <_exit>:
    2842:	f8 94       	cli

00002844 <__stop_program>:
    2844:	ff cf       	rjmp	.-2      	; 0x2844 <__stop_program>
