
uQuarium.elf:     file format elf32-avr

Sections:
Idx Name          Size      VMA       LMA       File off  Algn
  0 .data         000001d4  00800100  00003686  0000373a  2**0
                  CONTENTS, ALLOC, LOAD, DATA
  1 .text         00003686  00000000  00000000  000000b4  2**1
                  CONTENTS, ALLOC, LOAD, READONLY, CODE
  2 .bss          000001be  008002d4  008002d4  0000390e  2**0
                  ALLOC
  3 .eeprom       00000079  00810000  00810000  0000390e  2**0
                  CONTENTS, ALLOC, LOAD, DATA
  4 .comment      0000005c  00000000  00000000  00003987  2**0
                  CONTENTS, READONLY
  5 .note.gnu.avr.deviceinfo 00000040  00000000  00000000  000039e4  2**2
                  CONTENTS, READONLY
  6 .debug_aranges 00000500  00000000  00000000  00003a28  2**3
                  CONTENTS, READONLY, DEBUGGING
  7 .debug_info   00007126  00000000  00000000  00003f28  2**0
                  CONTENTS, READONLY, DEBUGGING
  8 .debug_abbrev 000018b4  00000000  00000000  0000b04e  2**0
                  CONTENTS, READONLY, DEBUGGING
  9 .debug_line   00004839  00000000  00000000  0000c902  2**0
                  CONTENTS, READONLY, DEBUGGING
 10 .debug_frame  00000fb8  00000000  00000000  0001113c  2**2
                  CONTENTS, READONLY, DEBUGGING
 11 .debug_str    0000aeef  00000000  00000000  000120f4  2**0
                  CONTENTS, READONLY, DEBUGGING
 12 .debug_loc    00004226  00000000  00000000  0001cfe3  2**0
                  CONTENTS, READONLY, DEBUGGING
 13 .debug_ranges 00000460  00000000  00000000  00021209  2**0
                  CONTENTS, READONLY, DEBUGGING
 14 .debug_macro  00003e38  00000000  00000000  00021669  2**0
                  CONTENTS, READONLY, DEBUGGING

Disassembly of section .text:

00000000 <__vectors>:
       0:	0c 94 46 02 	jmp	0x48c	; 0x48c <__ctors_end>
       4:	0c 94 6b 02 	jmp	0x4d6	; 0x4d6 <__bad_interrupt>
       8:	0c 94 6b 02 	jmp	0x4d6	; 0x4d6 <__bad_interrupt>
       c:	0c 94 6b 02 	jmp	0x4d6	; 0x4d6 <__bad_interrupt>
      10:	0c 94 6b 02 	jmp	0x4d6	; 0x4d6 <__bad_interrupt>
      14:	0c 94 6b 02 	jmp	0x4d6	; 0x4d6 <__bad_interrupt>
      18:	0c 94 6b 02 	jmp	0x4d6	; 0x4d6 <__bad_interrupt>
      1c:	0c 94 6b 02 	jmp	0x4d6	; 0x4d6 <__bad_interrupt>
      20:	0c 94 6b 02 	jmp	0x4d6	; 0x4d6 <__bad_interrupt>
      24:	0c 94 6b 02 	jmp	0x4d6	; 0x4d6 <__bad_interrupt>
      28:	0c 94 6b 02 	jmp	0x4d6	; 0x4d6 <__bad_interrupt>
      2c:	0c 94 6b 02 	jmp	0x4d6	; 0x4d6 <__bad_interrupt>
      30:	0c 94 6b 02 	jmp	0x4d6	; 0x4d6 <__bad_interrupt>
      34:	0c 94 6b 02 	jmp	0x4d6	; 0x4d6 <__bad_interrupt>
      38:	0c 94 6b 02 	jmp	0x4d6	; 0x4d6 <__bad_interrupt>
      3c:	0c 94 6b 02 	jmp	0x4d6	; 0x4d6 <__bad_interrupt>
      40:	0c 94 6b 02 	jmp	0x4d6	; 0x4d6 <__bad_interrupt>
      44:	0c 94 6b 02 	jmp	0x4d6	; 0x4d6 <__bad_interrupt>
      48:	0c 94 f8 15 	jmp	0x2bf0	; 0x2bf0 <__vector_18>
      4c:	0c 94 6b 02 	jmp	0x4d6	; 0x4d6 <__bad_interrupt>
      50:	0c 94 ab 16 	jmp	0x2d56	; 0x2d56 <__vector_20>
      54:	0c 94 6b 02 	jmp	0x4d6	; 0x4d6 <__bad_interrupt>
      58:	0c 94 d6 16 	jmp	0x2dac	; 0x2dac <__vector_22>
      5c:	0c 94 6b 02 	jmp	0x4d6	; 0x4d6 <__bad_interrupt>
      60:	0c 94 6b 02 	jmp	0x4d6	; 0x4d6 <__bad_interrupt>
      64:	0c 94 6b 02 	jmp	0x4d6	; 0x4d6 <__bad_interrupt>
      68:	0c 94 6b 02 	jmp	0x4d6	; 0x4d6 <__bad_interrupt>
      6c:	0c 94 6b 02 	jmp	0x4d6	; 0x4d6 <__bad_interrupt>
      70:	0c 94 00 17 	jmp	0x2e00	; 0x2e00 <__vector_28>
      74:	0c 94 6b 02 	jmp	0x4d6	; 0x4d6 <__bad_interrupt>
      78:	0c 94 2b 17 	jmp	0x2e56	; 0x2e56 <__vector_30>

0000007c <__trampolines_end>:
      7c:	34 2d       	mov	r19, r4
      7e:	37 20       	and	r3, r7
      80:	52 65       	ori	r21, 0x52	; 82
      82:	67 65       	ori	r22, 0x57	; 87
      84:	6e 7a       	andi	r22, 0xAE	; 174
      86:	65 69       	ori	r22, 0x95	; 149
      88:	74 20       	and	r7, r4
      8a:	35 00       	.word	0x0035	; ????

0000008c <str45>:
      8c:	34 2d 36 20 52 65 67 65 6e 7a 65 69 74 20 34 00     4-6 Regenzeit 4.

0000009c <str44>:
      9c:	34 2d 35 20 52 65 67 65 6e 7a 65 69 74 20 33 00     4-5 Regenzeit 3.

000000ac <str43>:
      ac:	34 2d 34 20 52 65 67 65 6e 7a 65 69 74 20 32 00     4-4 Regenzeit 2.

000000bc <str42>:
      bc:	34 2d 33 20 52 65 67 65 6e 7a 65 69 74 20 31 00     4-3 Regenzeit 1.

000000cc <str41>:
      cc:	34 2d 32 20 41 6e 7a 61 68 6c 20 52 65 67 65 6e     4-2 Anzahl Regen
      dc:	7a 00                                               z.

000000de <str40>:
      de:	34 2d 31 20 52 65 67 65 6e 7a 65 69 74 20 45 69     4-1 Regenzeit Ei
      ee:	6e 00                                               n.

000000f0 <str34>:
      f0:	33 2d 35 20 4d 4c 20 48 65 6c 6c 69 67 6b 65 69     3-5 ML Helligkei
     100:	74 00                                               t.

00000102 <str33>:
     102:	33 2d 34 20 4d 4c 20 61 75 73 00                    3-4 ML aus.

0000010d <str32>:
     10d:	33 2d 33 20 4d 4c 20 65 69 6e 00                    3-3 ML ein.

00000118 <str31>:
     118:	33 2d 32 20 4c 61 6d 70 65 20 61 75 73 00           3-2 Lampe aus.

00000126 <str30>:
     126:	33 2d 31 20 4c 61 6d 70 65 20 65 69 6e 00           3-1 Lampe ein.

00000134 <str21>:
     134:	32 2d 32 20 44 61 74 75 6d 20 65 69 6e 73 74 2e     2-2 Datum einst.
	...

00000145 <str20>:
     145:	32 2d 31 20 5a 65 69 74 20 65 69 6e 73 74 2e 00     2-1 Zeit einst..

00000155 <str13>:
     155:	31 2d 34 20 41 6c 61 72 6d 20 00                    1-4 Alarm .

00000160 <str12>:
     160:	31 2d 33 20 4c 75 65 66 74 65 72 00                 1-3 Luefter.

0000016c <str11>:
     16c:	31 2d 32 20 48 65 69 7a 65 72 00                    1-2 Heizer.

00000177 <str10>:
     177:	31 2d 31 20 54 65 6d 70 20 4f 66 66 73 65 74 00     1-1 Temp Offset.

00000187 <str5>:
     187:	36 20 41 62 6f 75 74 20 20 20 20 20 20 00           6 About      .

00000195 <str4>:
     195:	35 20 54 61 67 65 73 77 65 72 74 65 20 00           5 Tageswerte .

000001a3 <str3>:
     1a3:	34 20 52 65 67 65 6e 7a 65 69 74 65 6e 00           4 Regenzeiten.

000001b1 <str2>:
     1b1:	33 20 4c 69 63 68 74 20 20 20 20 20 20 00           3 Licht      .

000001bf <str1>:
     1bf:	32 20 5a 65 69 74 20 20 20 20 20 20 20 00           2 Zeit       .

000001cd <str0>:
     1cd:	31 20 54 65 6d 70 65 72 61 74 75 72 00              1 Temperatur.

000001da <__c.2818>:
     1da:	48 75 2d 4d 69 6e 3a 00                             Hu-Min:.

000001e2 <__c.2816>:
     1e2:	48 75 2d 4d 61 78 3a 00                             Hu-Max:.

000001ea <__c.2814>:
     1ea:	2d 4d 69 6e 3a 00                                   -Min:.

000001f0 <__c.2812>:
     1f0:	2d 4d 61 78 3a 00                                   -Max:.

000001f6 <__c.2805>:
     1f6:	53 57 3a 56 31 2e 32 00                             SW:V1.2.

000001fe <__c.2803>:
     1fe:	48 57 20 4d 3a 56 31 2e 30 20 46 3a 56 31 2e 30     HW M:V1.0 F:V1.0
	...

0000020f <__c.2801>:
     20f:	53 74 65 66 61 6e 20 4b 65 6c 6c 65 72 00           Stefan Keller.

0000021d <__c.2799>:
     21d:	75 54 65 72 72 61 72 69 75 6d 2e 00                 uTerrarium..

00000229 <__c.2791>:
     229:	61 6e 70 61 73 73 65 6e 3a 20 00                    anpassen: .

00000234 <__c.2789>:
     234:	4d 6f 6e 64 6c 69 63 68 74 20 48 65 6c 6c 69 67     Mondlicht Hellig
     244:	6b 65 69 74 00                                      keit.

00000249 <__c.2784>:
     249:	5a 65 69 74 20 45 69 6e 73 74 65 6c 6c 75 6e 67     Zeit Einstellung
     259:	65 6e 20 20 4d 6f 6e 64 6c 69 63 68 74 20 61 75     en  Mondlicht au
     269:	73 73 63 68 61 6c 74 65 6e 3a 00                    sschalten:.

00000274 <__c.2779>:
     274:	5a 65 69 74 20 45 69 6e 73 74 65 6c 6c 75 6e 67     Zeit Einstellung
     284:	65 6e 20 20 4d 6f 6e 64 6c 69 63 68 74 20 65 69     en  Mondlicht ei
     294:	6e 73 74 65 6c 6c 65 6e 3a 00                       nstellen:.

0000029e <__c.2767>:
     29e:	52 65 67 65 6e 7a 65 69 74 20 35 3a 00              Regenzeit 5:.

000002ab <__c.2762>:
     2ab:	52 65 67 65 6e 7a 65 69 74 20 34 3a 00              Regenzeit 4:.

000002b8 <__c.2757>:
     2b8:	52 65 67 65 6e 7a 65 69 74 20 33 3a 00              Regenzeit 3:.

000002c5 <__c.2752>:
     2c5:	52 65 67 65 6e 7a 65 69 74 20 32 3a 00              Regenzeit 2:.

000002d2 <__c.2747>:
     2d2:	52 65 67 65 6e 7a 65 69 74 20 31 3a 00              Regenzeit 1:.

000002df <__c.2742>:
     2df:	45 69 6e 73 63 68 61 6c 74 64 61 75 65 72 20 64     Einschaltdauer d
     2ef:	65 72 20 52 65 67 65 6e 70 75 6d 70 65 3a 00        er Regenpumpe:.

000002fe <__c.2737>:
     2fe:	5a 65 69 74 20 45 69 6e 73 74 65 6c 6c 75 6e 67     Zeit Einstellung
     30e:	65 6e 20 20 4c 61 6d 70 65 20 61 75 73 73 63 68     en  Lampe aussch
     31e:	61 6c 74 65 6e 3a 00                                alten:.

00000325 <__c.2732>:
     325:	5a 65 69 74 20 45 69 6e 73 74 65 6c 6c 75 6e 67     Zeit Einstellung
     335:	65 6e 20 20 4c 61 6d 70 65 20 65 69 6e 73 63 68     en  Lampe einsch
     345:	61 6c 74 65 6e 3a 00                                alten:.

0000034c <__c.2727>:
     34c:	41 6b 74 75 65 6c 6c 65 20 55 68 72 7a 65 69 74     Aktuelle Uhrzeit
     35c:	20 20 20 20 65 69 6e 67 65 62 65 6e 00                  eingeben.

00000369 <__c.2722>:
     369:	41 6b 74 75 65 6c 6c 65 73 20 44 61 74 75 6d 20     Aktuelles Datum 
     379:	20 20 20 20 65 69 6e 67 65 62 65 6e 00                  eingeben.

00000386 <__c.2713>:
     386:	54 65 6d 70 2e 20 4d 61 78 3a 00                    Temp. Max:.

00000391 <__c.2715>:
     391:	54 65 6d 70 2e 20 4d 69 6e 3a 00                    Temp. Min:.

0000039c <__c.2717>:
     39c:	48 79 73 74 65 72 65 73 65 3a 00                    Hysterese:.

000003a7 <__c.2711>:
     3a7:	54 65 6d 70 65 72 61 74 75 72 20 4d 69 6e 2f 4d     Temperatur Min/M
     3b7:	61 78 3a 00                                         ax:.

000003bb <__c.2702>:
     3bb:	4c 75 65 66 74 65 72 20 65 69 6e 3a 00              Luefter ein:.

000003c8 <__c.2704>:
     3c8:	4c 75 65 66 74 65 72 20 61 75 73 3a 00              Luefter aus:.

000003d5 <__c.2706>:
     3d5:	48 79 73 74 65 72 65 73 65 3a 00                    Hysterese:.

000003e0 <__c.2700>:
     3e0:	4c 75 65 66 74 65 72 20 65 69 6e 73 74 65 6c 6c     Luefter einstell
     3f0:	75 6e 67 00                                         ung.

000003f4 <__c.2691>:
     3f4:	48 65 69 7a 65 72 20 65 69 6e 3a 00                 Heizer ein:.

00000400 <__c.2693>:
     400:	48 65 69 7a 65 72 20 61 75 73 3a 00                 Heizer aus:.

0000040c <__c.2695>:
     40c:	48 79 73 74 65 72 65 73 65 3a 00                    Hysterese:.

00000417 <__c.2689>:
     417:	48 65 69 7a 65 72 20 42 6f 64 65 6e 20 45 69 6e     Heizer Boden Ein
     427:	73 74 2e 00                                         st..

0000042b <alarm_strings>:
     42b:	41 6c 6c 65 73 20 4f 4b 00 49 32 43 20 45 52 52     Alles OK.I2C ERR
     43b:	21 00 54 65 6d 70 20 2b 2b 21 00 54 65 6d 70 20     !.Temp ++!.Temp 
     44b:	2d 2d 21 00 70 48 20 2b 2b 21 00 00 00 70 48 20     --!.pH ++!...pH 
     45b:	2d 2d 21 00 00 00 57 44 54 20 45 52 52 21 00        --!...WDT ERR!.

0000046a <LM76_NAME>:
     46a:	42 00 00 4d 00 00 48 00 00                          B..M..H..

00000473 <wochentagname>:
     473:	20 20 00 4d 6f 00 44 69 00 4d 69 00 44 6f 00 46       .Mo.Di.Mi.Do.F
     483:	72 00 53 61 00 53 6f 00 00                          r.Sa.So..

0000048c <__ctors_end>:
     48c:	11 24       	eor	r1, r1
     48e:	1f be       	out	0x3f, r1	; 63
     490:	c0 e0       	ldi	r28, 0x00	; 0
     492:	d8 e0       	ldi	r29, 0x08	; 8
     494:	de bf       	out	0x3e, r29	; 62
     496:	cd bf       	out	0x3d, r28	; 61

00000498 <init_mem>:
// !!! Never call this function, it is part of .init-Code
void __attribute__ ((naked, used, section(".init3"))) init_mem (void);
void init_mem (void)
{
   //  Use inline assembler so it works even with optimization turned off
   __asm volatile (
     498:	e2 e9       	ldi	r30, 0x92	; 146
     49a:	f4 e0       	ldi	r31, 0x04	; 4
     49c:	8a ea       	ldi	r24, 0xAA	; 170
     49e:	91 e1       	ldi	r25, 0x11	; 17
     4a0:	81 93       	st	Z+, r24
     4a2:	e0 30       	cpi	r30, 0x00	; 0
     4a4:	f9 07       	cpc	r31, r25
     4a6:	e0 f3       	brcs	.-8      	; 0x4a0 <init_mem+0x8>

000004a8 <__do_copy_data>:
     4a8:	12 e0       	ldi	r17, 0x02	; 2
     4aa:	a0 e0       	ldi	r26, 0x00	; 0
     4ac:	b1 e0       	ldi	r27, 0x01	; 1
     4ae:	e6 e8       	ldi	r30, 0x86	; 134
     4b0:	f6 e3       	ldi	r31, 0x36	; 54
     4b2:	02 c0       	rjmp	.+4      	; 0x4b8 <__do_copy_data+0x10>
     4b4:	05 90       	lpm	r0, Z+
     4b6:	0d 92       	st	X+, r0
     4b8:	a4 3d       	cpi	r26, 0xD4	; 212
     4ba:	b1 07       	cpc	r27, r17
     4bc:	d9 f7       	brne	.-10     	; 0x4b4 <__do_copy_data+0xc>

000004be <__do_clear_bss>:
     4be:	24 e0       	ldi	r18, 0x04	; 4
     4c0:	a4 ed       	ldi	r26, 0xD4	; 212
     4c2:	b2 e0       	ldi	r27, 0x02	; 2
     4c4:	01 c0       	rjmp	.+2      	; 0x4c8 <.do_clear_bss_start>

000004c6 <.do_clear_bss_loop>:
     4c6:	1d 92       	st	X+, r1

000004c8 <.do_clear_bss_start>:
     4c8:	a2 39       	cpi	r26, 0x92	; 146
     4ca:	b2 07       	cpc	r27, r18
     4cc:	e1 f7       	brne	.-8      	; 0x4c6 <.do_clear_bss_loop>
     4ce:	0e 94 5e 14 	call	0x28bc	; 0x28bc <main>
     4d2:	0c 94 41 1b 	jmp	0x3682	; 0x3682 <_exit>

000004d6 <__bad_interrupt>:
     4d6:	0c 94 00 00 	jmp	0	; 0x0 <__vectors>

000004da <ds_1307_init>:
 * ds_1307_init(..) - Initialisiert den DS1307 und aktiviert den Oszillator
 * PE:void
 * PA:void
*************************************************************************/
void ds_1307_init(void)
{
     4da:	cf 93       	push	r28
    uint8_t ret,			// Returnwert für Fehlererkennung
			tmp;			// temporäre Variable
    ret = i2c_start(DS1307_ADRESSE + I2C_WRITE); // write start auf DS1307 schreiben
     4dc:	80 ed       	ldi	r24, 0xD0	; 208
     4de:	0e 94 43 05 	call	0xa86	; 0xa86 <i2c_start>
    if (ret)				// Wenn I2C Fehler aufgetreten
     4e2:	88 23       	and	r24, r24
     4e4:	39 f0       	breq	.+14     	; 0x4f4 <ds_1307_init+0x1a>
    {
        i2c_stop();			// Bus stoppen
     4e6:	0e 94 8e 05 	call	0xb1c	; 0xb1c <i2c_stop>
        alarm_vektor = 1;	// Alarm I2C Bus Fehler
     4ea:	81 e0       	ldi	r24, 0x01	; 1
     4ec:	80 93 ef 02 	sts	0x02EF, r24	; 0x8002ef <alarm_vektor>
        ret = i2c_start(DS1307_ADRESSE + I2C_WRITE);// Restart senden
        i2c_write(0x00);							// Pointer Register auf Sekunden
        i2c_write(tmp);								// Sekunden mit gelöschtem CH-Bit zurückschreiben
        i2c_stop();									// Bus stoppen
    }
}
     4f0:	cf 91       	pop	r28
     4f2:	08 95       	ret
        i2c_stop();			// Bus stoppen
        alarm_vektor = 1;	// Alarm I2C Bus Fehler
    }
    else
    {
        i2c_write(0x00);	// Register Pointer auf Sekunden
     4f4:	80 e0       	ldi	r24, 0x00	; 0
     4f6:	0e 94 96 05 	call	0xb2c	; 0xb2c <i2c_write>
        i2c_rep_start(DS1307_ADRESSE + I2C_READ);	// Restart mit write senden
     4fa:	81 ed       	ldi	r24, 0xD1	; 209
     4fc:	0e 94 8c 05 	call	0xb18	; 0xb18 <i2c_rep_start>
        tmp = i2c_readNak();						// Sekunden Register auslesen
     500:	0e 94 b1 05 	call	0xb62	; 0xb62 <i2c_readNak>
     504:	c8 2f       	mov	r28, r24
        i2c_stop();									// Bus stoppen
     506:	0e 94 8e 05 	call	0xb1c	; 0xb1c <i2c_stop>
        tmp &= ~0x80;								// Bit 7 (CH-BIT) löschen -> aktiviert den RTC Oszillator
        ret = i2c_start(DS1307_ADRESSE + I2C_WRITE);// Restart senden
     50a:	80 ed       	ldi	r24, 0xD0	; 208
     50c:	0e 94 43 05 	call	0xa86	; 0xa86 <i2c_start>
        i2c_write(0x00);							// Pointer Register auf Sekunden
     510:	80 e0       	ldi	r24, 0x00	; 0
     512:	0e 94 96 05 	call	0xb2c	; 0xb2c <i2c_write>
        i2c_write(tmp);								// Sekunden mit gelöschtem CH-Bit zurückschreiben
     516:	8c 2f       	mov	r24, r28
     518:	8f 77       	andi	r24, 0x7F	; 127
     51a:	0e 94 96 05 	call	0xb2c	; 0xb2c <i2c_write>
        i2c_stop();									// Bus stoppen
    }
}
     51e:	cf 91       	pop	r28
        i2c_stop();									// Bus stoppen
        tmp &= ~0x80;								// Bit 7 (CH-BIT) löschen -> aktiviert den RTC Oszillator
        ret = i2c_start(DS1307_ADRESSE + I2C_WRITE);// Restart senden
        i2c_write(0x00);							// Pointer Register auf Sekunden
        i2c_write(tmp);								// Sekunden mit gelöschtem CH-Bit zurückschreiben
        i2c_stop();									// Bus stoppen
     520:	0c 94 8e 05 	jmp	0xb1c	; 0xb1c <i2c_stop>

00000524 <get_ds1307_zeit_datum>:
 * get_ds1307_zeit_datum(..) - Aktuelle Zeit und Datum vom DS1307 einlesen
 * PE:Pointer auf struct vom Typ uhr
 * PA:--
************************************************************************/
void get_ds1307_zeit_datum(uhr *zeit_pointer)   // DS1307 Datum setzen  Pointer auf Zeit struct wird übergeben
{
     524:	cf 92       	push	r12
     526:	df 92       	push	r13
     528:	ef 92       	push	r14
     52a:	ff 92       	push	r15
     52c:	0f 93       	push	r16
     52e:	1f 93       	push	r17
     530:	cf 93       	push	r28
     532:	df 93       	push	r29
     534:	ec 01       	movw	r28, r24
    uint8_t ret;
    uhr get_zeit;			// Hilfsstruct um BCD Code vom DS1307 zu holen und dann die Zeit und Dezimale umzurechnen
    ret = i2c_start(DS1307_ADRESSE + I2C_WRITE); // write start auf DS1307 schreiben
     536:	80 ed       	ldi	r24, 0xD0	; 208
     538:	0e 94 43 05 	call	0xa86	; 0xa86 <i2c_start>
    if (ret)				// Wenn I2C Fehler aufgetreten
     53c:	88 23       	and	r24, r24
     53e:	31 f0       	breq	.+12     	; 0x54c <get_ds1307_zeit_datum+0x28>
    {
        i2c_stop();			// Bus stoppen
     540:	0e 94 8e 05 	call	0xb1c	; 0xb1c <i2c_stop>
        alarm_vektor = 1;	// Alarm I2C Bus Fehler
     544:	81 e0       	ldi	r24, 0x01	; 1
     546:	80 93 ef 02 	sts	0x02EF, r24	; 0x8002ef <alarm_vektor>
     54a:	57 c0       	rjmp	.+174    	; 0x5fa <get_ds1307_zeit_datum+0xd6>
    }
    else
    {
        i2c_write(0x00);							// Register Pointer auf Sekunde
     54c:	80 e0       	ldi	r24, 0x00	; 0
     54e:	0e 94 96 05 	call	0xb2c	; 0xb2c <i2c_write>
        i2c_rep_start(DS1307_ADRESSE + I2C_READ);	// Restart mit write senden
     552:	81 ed       	ldi	r24, 0xD1	; 209
     554:	0e 94 8c 05 	call	0xb18	; 0xb18 <i2c_rep_start>
        get_zeit.sekunde = i2c_readAck();			// Sekunden einlesen
     558:	0e 94 a7 05 	call	0xb4e	; 0xb4e <i2c_readAck>
     55c:	d8 2e       	mov	r13, r24
        get_zeit.minute = i2c_readAck();			// Minuten einlesen
     55e:	0e 94 a7 05 	call	0xb4e	; 0xb4e <i2c_readAck>
     562:	e8 2e       	mov	r14, r24
        get_zeit.stunde = i2c_readAck();			// Stunden einlesen
     564:	0e 94 a7 05 	call	0xb4e	; 0xb4e <i2c_readAck>
     568:	f8 2e       	mov	r15, r24
        get_zeit.wochentag = i2c_readAck();			// Wochentag einlesen
     56a:	0e 94 a7 05 	call	0xb4e	; 0xb4e <i2c_readAck>
     56e:	c8 2e       	mov	r12, r24
        get_zeit.tag = i2c_readAck();				// Tag einlesen
     570:	0e 94 a7 05 	call	0xb4e	; 0xb4e <i2c_readAck>
     574:	08 2f       	mov	r16, r24
        get_zeit.monat = i2c_readAck();				// Monat einlesen
     576:	0e 94 a7 05 	call	0xb4e	; 0xb4e <i2c_readAck>
     57a:	18 2f       	mov	r17, r24
        get_zeit.jahr = i2c_readNak();				// Jahr einlesen
     57c:	0e 94 b1 05 	call	0xb62	; 0xb62 <i2c_readNak>

        zeit_pointer->sekunde = (get_zeit.sekunde & 0x0F) + ((get_zeit.sekunde >> 4) * 10); // BCD-Code ins Dezimale umrechnen
     580:	9d 2d       	mov	r25, r13
     582:	92 95       	swap	r25
     584:	9f 70       	andi	r25, 0x0F	; 15
     586:	2d 2d       	mov	r18, r13
     588:	2f 70       	andi	r18, 0x0F	; 15
     58a:	d2 2e       	mov	r13, r18
     58c:	3a e0       	ldi	r19, 0x0A	; 10
     58e:	93 9f       	mul	r25, r19
     590:	d0 0c       	add	r13, r0
     592:	11 24       	eor	r1, r1
     594:	d9 82       	std	Y+1, r13	; 0x01
        zeit_pointer->minute = (get_zeit.minute & 0x0F) + ((get_zeit.minute >> 4) * 10);
     596:	9e 2d       	mov	r25, r14
     598:	92 95       	swap	r25
     59a:	9f 70       	andi	r25, 0x0F	; 15
     59c:	2e 2d       	mov	r18, r14
     59e:	2f 70       	andi	r18, 0x0F	; 15
     5a0:	e2 2e       	mov	r14, r18
     5a2:	3a e0       	ldi	r19, 0x0A	; 10
     5a4:	93 9f       	mul	r25, r19
     5a6:	e0 0c       	add	r14, r0
     5a8:	11 24       	eor	r1, r1
     5aa:	e8 82       	st	Y, r14
        zeit_pointer->stunde = (get_zeit.stunde & 0x0F) + ((get_zeit.stunde >> 4)* 10);
     5ac:	9f 2d       	mov	r25, r15
     5ae:	92 95       	swap	r25
     5b0:	9f 70       	andi	r25, 0x0F	; 15
     5b2:	2f 2d       	mov	r18, r15
     5b4:	2f 70       	andi	r18, 0x0F	; 15
     5b6:	f2 2e       	mov	r15, r18
     5b8:	3a e0       	ldi	r19, 0x0A	; 10
     5ba:	93 9f       	mul	r25, r19
     5bc:	f0 0c       	add	r15, r0
     5be:	11 24       	eor	r1, r1
     5c0:	fa 82       	std	Y+2, r15	; 0x02
        zeit_pointer->tag = (get_zeit.tag & 0x0F) + ((get_zeit.tag >> 4) * 10);
     5c2:	90 2f       	mov	r25, r16
     5c4:	92 95       	swap	r25
     5c6:	9f 70       	andi	r25, 0x0F	; 15
     5c8:	0f 70       	andi	r16, 0x0F	; 15
     5ca:	2a e0       	ldi	r18, 0x0A	; 10
     5cc:	92 9f       	mul	r25, r18
     5ce:	00 0d       	add	r16, r0
     5d0:	11 24       	eor	r1, r1
     5d2:	0b 83       	std	Y+3, r16	; 0x03
        zeit_pointer->wochentag = get_zeit.wochentag;										// Wochentag kann direkt übernommen werden
     5d4:	cc 82       	std	Y+4, r12	; 0x04
        zeit_pointer->monat = (get_zeit.monat & 0x0F) + ((get_zeit.monat >> 4) * 10);
     5d6:	91 2f       	mov	r25, r17
     5d8:	92 95       	swap	r25
     5da:	9f 70       	andi	r25, 0x0F	; 15
     5dc:	1f 70       	andi	r17, 0x0F	; 15
     5de:	3a e0       	ldi	r19, 0x0A	; 10
     5e0:	93 9f       	mul	r25, r19
     5e2:	10 0d       	add	r17, r0
     5e4:	11 24       	eor	r1, r1
     5e6:	1d 83       	std	Y+5, r17	; 0x05
        zeit_pointer->jahr = (get_zeit.jahr & 0x0F) + ((get_zeit.jahr >> 4) * 10);
     5e8:	98 2f       	mov	r25, r24
     5ea:	92 95       	swap	r25
     5ec:	9f 70       	andi	r25, 0x0F	; 15
     5ee:	8f 70       	andi	r24, 0x0F	; 15
     5f0:	2a e0       	ldi	r18, 0x0A	; 10
     5f2:	92 9f       	mul	r25, r18
     5f4:	80 0d       	add	r24, r0
     5f6:	11 24       	eor	r1, r1
     5f8:	8e 83       	std	Y+6, r24	; 0x06
    }
}
     5fa:	df 91       	pop	r29
     5fc:	cf 91       	pop	r28
     5fe:	1f 91       	pop	r17
     600:	0f 91       	pop	r16
     602:	ff 90       	pop	r15
     604:	ef 90       	pop	r14
     606:	df 90       	pop	r13
     608:	cf 90       	pop	r12
     60a:	08 95       	ret

0000060c <set_ds1307_zeit>:
 * set_ds1307_zeit(..) - Uhrzeit auf DS1307 schreiben
 * PE:Pointer auf struct uhr
 * PA:--
************************************************************************/
void set_ds1307_zeit(uhr *zeit_pointer)   
{
     60c:	0f 93       	push	r16
     60e:	1f 93       	push	r17
     610:	cf 93       	push	r28
     612:	8c 01       	movw	r16, r24
    uint8_t  ret;
    ret = i2c_start(DS1307_ADRESSE + I2C_WRITE); // write start auf DS1307 schreiben
     614:	80 ed       	ldi	r24, 0xD0	; 208
     616:	0e 94 43 05 	call	0xa86	; 0xa86 <i2c_start>
    if (ret)				// Wenn I2C Fehler aufgetreten	
     61a:	88 23       	and	r24, r24
     61c:	49 f0       	breq	.+18     	; 0x630 <set_ds1307_zeit+0x24>
    {
        i2c_stop();			// Bus stoppen
     61e:	0e 94 8e 05 	call	0xb1c	; 0xb1c <i2c_stop>
        alarm_vektor = 1;	// Alarm I2C Bus Fehler
     622:	81 e0       	ldi	r24, 0x01	; 1
     624:	80 93 ef 02 	sts	0x02EF, r24	; 0x8002ef <alarm_vektor>
        i2c_write(0x00 |(zeit_pointer->sekunde % 10) | ((zeit_pointer->sekunde / 10) << 4)); // Timer einschalten Bit7 ->0 Sekunden in BCD umrechnen und auf DS1307 senden
        i2c_write((zeit_pointer->minute % 10) | ((zeit_pointer->minute / 10) << 4));// Minuten in BCD umrechnen und an DS 1307 senden
        i2c_write((zeit_pointer->stunde % 10) | ((zeit_pointer->stunde / 10) << 4));// Stunden in BCD umrechnen und an DS 1307 senden
        i2c_stop();																	// Bus stoppen
    }
}
     628:	cf 91       	pop	r28
     62a:	1f 91       	pop	r17
     62c:	0f 91       	pop	r16
     62e:	08 95       	ret
        i2c_stop();			// Bus stoppen
        alarm_vektor = 1;	// Alarm I2C Bus Fehler
    }
    else
    {
        i2c_write(0x00);															// Register Pointer auf Sekunden
     630:	80 e0       	ldi	r24, 0x00	; 0
     632:	0e 94 96 05 	call	0xb2c	; 0xb2c <i2c_write>
        i2c_write(0x00 |(zeit_pointer->sekunde % 10) | ((zeit_pointer->sekunde / 10) << 4)); // Timer einschalten Bit7 ->0 Sekunden in BCD umrechnen und auf DS1307 senden
     636:	f8 01       	movw	r30, r16
     638:	81 81       	ldd	r24, Z+1	; 0x01
     63a:	ca e0       	ldi	r28, 0x0A	; 10
     63c:	6c 2f       	mov	r22, r28
     63e:	0e 94 55 17 	call	0x2eaa	; 0x2eaa <__udivmodqi4>
     642:	29 2f       	mov	r18, r25
     644:	f0 e1       	ldi	r31, 0x10	; 16
     646:	8f 9f       	mul	r24, r31
     648:	c0 01       	movw	r24, r0
     64a:	11 24       	eor	r1, r1
     64c:	82 2b       	or	r24, r18
     64e:	0e 94 96 05 	call	0xb2c	; 0xb2c <i2c_write>
        i2c_write((zeit_pointer->minute % 10) | ((zeit_pointer->minute / 10) << 4));// Minuten in BCD umrechnen und an DS 1307 senden
     652:	f8 01       	movw	r30, r16
     654:	80 81       	ld	r24, Z
     656:	6c 2f       	mov	r22, r28
     658:	0e 94 55 17 	call	0x2eaa	; 0x2eaa <__udivmodqi4>
     65c:	29 2f       	mov	r18, r25
     65e:	f0 e1       	ldi	r31, 0x10	; 16
     660:	8f 9f       	mul	r24, r31
     662:	c0 01       	movw	r24, r0
     664:	11 24       	eor	r1, r1
     666:	82 2b       	or	r24, r18
     668:	0e 94 96 05 	call	0xb2c	; 0xb2c <i2c_write>
        i2c_write((zeit_pointer->stunde % 10) | ((zeit_pointer->stunde / 10) << 4));// Stunden in BCD umrechnen und an DS 1307 senden
     66c:	f8 01       	movw	r30, r16
     66e:	82 81       	ldd	r24, Z+2	; 0x02
     670:	6c 2f       	mov	r22, r28
     672:	0e 94 55 17 	call	0x2eaa	; 0x2eaa <__udivmodqi4>
     676:	29 2f       	mov	r18, r25
     678:	f0 e1       	ldi	r31, 0x10	; 16
     67a:	8f 9f       	mul	r24, r31
     67c:	c0 01       	movw	r24, r0
     67e:	11 24       	eor	r1, r1
     680:	82 2b       	or	r24, r18
     682:	0e 94 96 05 	call	0xb2c	; 0xb2c <i2c_write>
        i2c_stop();																	// Bus stoppen
    }
}
     686:	cf 91       	pop	r28
     688:	1f 91       	pop	r17
     68a:	0f 91       	pop	r16
    {
        i2c_write(0x00);															// Register Pointer auf Sekunden
        i2c_write(0x00 |(zeit_pointer->sekunde % 10) | ((zeit_pointer->sekunde / 10) << 4)); // Timer einschalten Bit7 ->0 Sekunden in BCD umrechnen und auf DS1307 senden
        i2c_write((zeit_pointer->minute % 10) | ((zeit_pointer->minute / 10) << 4));// Minuten in BCD umrechnen und an DS 1307 senden
        i2c_write((zeit_pointer->stunde % 10) | ((zeit_pointer->stunde / 10) << 4));// Stunden in BCD umrechnen und an DS 1307 senden
        i2c_stop();																	// Bus stoppen
     68c:	0c 94 8e 05 	jmp	0xb1c	; 0xb1c <i2c_stop>

00000690 <set_ds1307_datum>:
 * set_ds1307_datum(..) - Datum auf den DS1307 schreiben
 * PE:Pointer auf struct uhr
 * PA:--
************************************************************************/
void set_ds1307_datum(uhr *datum_pointer) // Datum auf DS1307 schreiben
{
     690:	1f 93       	push	r17
     692:	cf 93       	push	r28
     694:	df 93       	push	r29
     696:	ec 01       	movw	r28, r24
    uint8_t ret;
    ret = i2c_start(DS1307_ADRESSE + I2C_WRITE); // write start auf DS1307 schreiben
     698:	80 ed       	ldi	r24, 0xD0	; 208
     69a:	0e 94 43 05 	call	0xa86	; 0xa86 <i2c_start>
    if (ret)	// Wenn I2C Fehler aufgetreten
     69e:	88 23       	and	r24, r24
     6a0:	49 f0       	breq	.+18     	; 0x6b4 <set_ds1307_datum+0x24>
    {
        i2c_stop(); // Bus stoppen
     6a2:	0e 94 8e 05 	call	0xb1c	; 0xb1c <i2c_stop>
        alarm_vektor = 1; // Alarm I2C Bus Fehler
     6a6:	81 e0       	ldi	r24, 0x01	; 1
     6a8:	80 93 ef 02 	sts	0x02EF, r24	; 0x8002ef <alarm_vektor>
        i2c_write((datum_pointer->jahr % 10) | ((datum_pointer->jahr / 10) << 4));
        i2c_stop();																// Buss stoppen

    }

}
     6ac:	df 91       	pop	r29
     6ae:	cf 91       	pop	r28
     6b0:	1f 91       	pop	r17
     6b2:	08 95       	ret
        i2c_stop(); // Bus stoppen
        alarm_vektor = 1; // Alarm I2C Bus Fehler
    }
    else
    {
        i2c_write(0x03); //Pointer auf Wochentag Register
     6b4:	83 e0       	ldi	r24, 0x03	; 3
     6b6:	0e 94 96 05 	call	0xb2c	; 0xb2c <i2c_write>
        i2c_write(datum_pointer->wochentag);									// Wochentag schreiben
     6ba:	8c 81       	ldd	r24, Y+4	; 0x04
     6bc:	0e 94 96 05 	call	0xb2c	; 0xb2c <i2c_write>
        i2c_write((datum_pointer->tag % 10) | (datum_pointer->tag / 10) << 4);	// BCD-Code in BCD für DS1307 umrechnen und schreiben
     6c0:	8b 81       	ldd	r24, Y+3	; 0x03
     6c2:	1a e0       	ldi	r17, 0x0A	; 10
     6c4:	61 2f       	mov	r22, r17
     6c6:	0e 94 55 17 	call	0x2eaa	; 0x2eaa <__udivmodqi4>
     6ca:	29 2f       	mov	r18, r25
     6cc:	30 e1       	ldi	r19, 0x10	; 16
     6ce:	83 9f       	mul	r24, r19
     6d0:	c0 01       	movw	r24, r0
     6d2:	11 24       	eor	r1, r1
     6d4:	82 2b       	or	r24, r18
     6d6:	0e 94 96 05 	call	0xb2c	; 0xb2c <i2c_write>
        i2c_write((datum_pointer->monat % 10) | ((datum_pointer->monat / 10) << 4));
     6da:	8d 81       	ldd	r24, Y+5	; 0x05
     6dc:	61 2f       	mov	r22, r17
     6de:	0e 94 55 17 	call	0x2eaa	; 0x2eaa <__udivmodqi4>
     6e2:	29 2f       	mov	r18, r25
     6e4:	30 e1       	ldi	r19, 0x10	; 16
     6e6:	83 9f       	mul	r24, r19
     6e8:	c0 01       	movw	r24, r0
     6ea:	11 24       	eor	r1, r1
     6ec:	82 2b       	or	r24, r18
     6ee:	0e 94 96 05 	call	0xb2c	; 0xb2c <i2c_write>
        i2c_write((datum_pointer->jahr % 10) | ((datum_pointer->jahr / 10) << 4));
     6f2:	8e 81       	ldd	r24, Y+6	; 0x06
     6f4:	61 2f       	mov	r22, r17
     6f6:	0e 94 55 17 	call	0x2eaa	; 0x2eaa <__udivmodqi4>
     6fa:	29 2f       	mov	r18, r25
     6fc:	30 e1       	ldi	r19, 0x10	; 16
     6fe:	83 9f       	mul	r24, r19
     700:	c0 01       	movw	r24, r0
     702:	11 24       	eor	r1, r1
     704:	82 2b       	or	r24, r18
     706:	0e 94 96 05 	call	0xb2c	; 0xb2c <i2c_write>
        i2c_stop();																// Buss stoppen

    }

}
     70a:	df 91       	pop	r29
     70c:	cf 91       	pop	r28
     70e:	1f 91       	pop	r17
        i2c_write(0x03); //Pointer auf Wochentag Register
        i2c_write(datum_pointer->wochentag);									// Wochentag schreiben
        i2c_write((datum_pointer->tag % 10) | (datum_pointer->tag / 10) << 4);	// BCD-Code in BCD für DS1307 umrechnen und schreiben
        i2c_write((datum_pointer->monat % 10) | ((datum_pointer->monat / 10) << 4));
        i2c_write((datum_pointer->jahr % 10) | ((datum_pointer->jahr / 10) << 4));
        i2c_stop();																// Buss stoppen
     710:	0c 94 8e 05 	jmp	0xb1c	; 0xb1c <i2c_stop>

00000714 <get_hih6131_data>:
 * PE:uint16_t * huminity
 * PE:int16_t * temperatur
 * PA:int16_t
*************************************************************************/
void get_hih6131_data( uint8_t adresse, uint16_t *huminity_local, int16_t *temperatur_local) // 16Bit vom I2C Slave einlesen
{
     714:	af 92       	push	r10
     716:	bf 92       	push	r11
     718:	cf 92       	push	r12
     71a:	df 92       	push	r13
     71c:	ef 92       	push	r14
     71e:	ff 92       	push	r15
     720:	0f 93       	push	r16
     722:	1f 93       	push	r17
     724:	cf 93       	push	r28
     726:	df 93       	push	r29
     728:	18 2f       	mov	r17, r24
     72a:	5b 01       	movw	r10, r22
     72c:	ea 01       	movw	r28, r20
    int32_t high_temp, low_temp;
    int32_t high_hum, low_hum;
    uint8_t ret;

    ret = i2c_start(adresse + I2C_WRITE); // write start auf LM76 schreiben
     72e:	0e 94 43 05 	call	0xa86	; 0xa86 <i2c_start>
    if (ret)		// Keine Antwort vom Sensor?
     732:	88 23       	and	r24, r24
     734:	59 f0       	breq	.+22     	; 0x74c <get_hih6131_data+0x38>
    {
        i2c_stop(); // Bus stoppen
     736:	0e 94 8e 05 	call	0xb1c	; 0xb1c <i2c_stop>
        alarm_vektor = 1; // I2C Alarm auslösen
     73a:	81 e0       	ldi	r24, 0x01	; 1
     73c:	80 93 ef 02 	sts	0x02EF, r24	; 0x8002ef <alarm_vektor>
		*huminity_local = 0;
     740:	f5 01       	movw	r30, r10
     742:	11 82       	std	Z+1, r1	; 0x01
     744:	10 82       	st	Z, r1
		*temperatur_local = 0;
     746:	19 82       	std	Y+1, r1	; 0x01
     748:	18 82       	st	Y, r1
     74a:	4f c0       	rjmp	.+158    	; 0x7ea <get_hih6131_data+0xd6>
	#else
		//round up by default
		__ticks_dc = (uint32_t)(ceil(fabs(__tmp)));
	#endif

	__builtin_avr_delay_cycles(__ticks_dc);
     74c:	ff ef       	ldi	r31, 0xFF	; 255
     74e:	23 ef       	ldi	r18, 0xF3	; 243
     750:	81 e0       	ldi	r24, 0x01	; 1
     752:	f1 50       	subi	r31, 0x01	; 1
     754:	20 40       	sbci	r18, 0x00	; 0
     756:	80 40       	sbci	r24, 0x00	; 0
     758:	e1 f7       	brne	.-8      	; 0x752 <get_hih6131_data+0x3e>
     75a:	00 c0       	rjmp	.+0      	; 0x75c <get_hih6131_data+0x48>
     75c:	00 00       	nop
    }
    else			// Sensor antwortet
    {
		_delay_ms(40);
		i2c_start(adresse + I2C_READ);
     75e:	81 e0       	ldi	r24, 0x01	; 1
     760:	81 0f       	add	r24, r17
     762:	0e 94 43 05 	call	0xa86	; 0xa86 <i2c_start>
        high_hum= i2c_readAck(); // Oberes Temperatur Nibble einlesen
     766:	0e 94 a7 05 	call	0xb4e	; 0xb4e <i2c_readAck>
     76a:	e8 2e       	mov	r14, r24
        low_hum = i2c_readAck(); // Unteres Temperatur Nibble einlesen
     76c:	0e 94 a7 05 	call	0xb4e	; 0xb4e <i2c_readAck>
     770:	f8 2e       	mov	r15, r24
		high_temp = i2c_readAck(); // Oberes Temperatur Nibble einlesen
     772:	0e 94 a7 05 	call	0xb4e	; 0xb4e <i2c_readAck>
     776:	08 2f       	mov	r16, r24
		low_temp = i2c_readNak(); // Unteres Temperatur Nibble einlesen
     778:	0e 94 b1 05 	call	0xb62	; 0xb62 <i2c_readNak>
     77c:	18 2f       	mov	r17, r24
        i2c_stop();
     77e:	0e 94 8e 05 	call	0xb1c	; 0xb1c <i2c_stop>

        *huminity_local =((((high_hum & 0x3f) << 8) | (low_hum))*100)/16383;
     782:	8e 2d       	mov	r24, r14
     784:	8f 73       	andi	r24, 0x3F	; 63
     786:	4f 2d       	mov	r20, r15
     788:	50 e0       	ldi	r21, 0x00	; 0
     78a:	60 e0       	ldi	r22, 0x00	; 0
     78c:	70 e0       	ldi	r23, 0x00	; 0
     78e:	9a 01       	movw	r18, r20
     790:	ab 01       	movw	r20, r22
     792:	38 2b       	or	r19, r24
     794:	a4 e6       	ldi	r26, 0x64	; 100
     796:	b0 e0       	ldi	r27, 0x00	; 0
     798:	0e 94 cc 17 	call	0x2f98	; 0x2f98 <__muluhisi3>
     79c:	cc 24       	eor	r12, r12
     79e:	ca 94       	dec	r12
     7a0:	2f e3       	ldi	r18, 0x3F	; 63
     7a2:	d2 2e       	mov	r13, r18
     7a4:	e1 2c       	mov	r14, r1
     7a6:	f1 2c       	mov	r15, r1
     7a8:	a7 01       	movw	r20, r14
     7aa:	96 01       	movw	r18, r12
     7ac:	0e 94 97 17 	call	0x2f2e	; 0x2f2e <__divmodsi4>
     7b0:	f5 01       	movw	r30, r10
     7b2:	31 83       	std	Z+1, r19	; 0x01
     7b4:	20 83       	st	Z, r18
		*temperatur_local = (((((high_temp << 8) | low_temp)>>2)*165)/16383)-40; 
     7b6:	81 2f       	mov	r24, r17
     7b8:	90 e0       	ldi	r25, 0x00	; 0
     7ba:	a0 e0       	ldi	r26, 0x00	; 0
     7bc:	b0 e0       	ldi	r27, 0x00	; 0
     7be:	90 2b       	or	r25, r16
     7c0:	9c 01       	movw	r18, r24
     7c2:	ad 01       	movw	r20, r26
     7c4:	62 e0       	ldi	r22, 0x02	; 2
     7c6:	55 95       	asr	r21
     7c8:	47 95       	ror	r20
     7ca:	37 95       	ror	r19
     7cc:	27 95       	ror	r18
     7ce:	6a 95       	dec	r22
     7d0:	d1 f7       	brne	.-12     	; 0x7c6 <get_hih6131_data+0xb2>
     7d2:	a5 ea       	ldi	r26, 0xA5	; 165
     7d4:	b0 e0       	ldi	r27, 0x00	; 0
     7d6:	0e 94 cc 17 	call	0x2f98	; 0x2f98 <__muluhisi3>
     7da:	a7 01       	movw	r20, r14
     7dc:	96 01       	movw	r18, r12
     7de:	0e 94 97 17 	call	0x2f2e	; 0x2f2e <__divmodsi4>
     7e2:	28 52       	subi	r18, 0x28	; 40
     7e4:	31 09       	sbc	r19, r1
     7e6:	39 83       	std	Y+1, r19	; 0x01
     7e8:	28 83       	st	Y, r18

    }
  
}
     7ea:	df 91       	pop	r29
     7ec:	cf 91       	pop	r28
     7ee:	1f 91       	pop	r17
     7f0:	0f 91       	pop	r16
     7f2:	ff 90       	pop	r15
     7f4:	ef 90       	pop	r14
     7f6:	df 90       	pop	r13
     7f8:	cf 90       	pop	r12
     7fa:	bf 90       	pop	r11
     7fc:	af 90       	pop	r10
     7fe:	08 95       	ret

00000800 <lcd_write_i2c>:
bool lcd_busy(void)
{
    unsigned char state = lcd_getbyte(LCD_ADDRESS);
    if (state & (1 << 7)) return true;
    else return false;
}
     800:	cf 93       	push	r28
     802:	c8 2f       	mov	r28, r24
     804:	80 e7       	ldi	r24, 0x70	; 112
     806:	0e 94 65 05 	call	0xaca	; 0xaca <i2c_start_wait>
     80a:	80 91 00 01 	lds	r24, 0x0100	; 0x800100 <__data_start>
     80e:	90 91 01 01 	lds	r25, 0x0101	; 0x800101 <__data_start+0x1>
     812:	89 2b       	or	r24, r25
     814:	19 f0       	breq	.+6      	; 0x81c <lcd_write_i2c+0x1c>
     816:	8c 2f       	mov	r24, r28
     818:	80 64       	ori	r24, 0x40	; 64
     81a:	02 c0       	rjmp	.+4      	; 0x820 <lcd_write_i2c+0x20>
     81c:	8c 2f       	mov	r24, r28
     81e:	8f 7b       	andi	r24, 0xBF	; 191
     820:	0e 94 96 05 	call	0xb2c	; 0xb2c <i2c_write>
     824:	cf 91       	pop	r28
     826:	0c 94 8e 05 	jmp	0xb1c	; 0xb1c <i2c_stop>

0000082a <lcd_write>:
     82a:	cf 93       	push	r28
     82c:	c8 2f       	mov	r28, r24
     82e:	c0 68       	ori	r28, 0x80	; 128
     830:	8c 2f       	mov	r24, r28
     832:	0e 94 00 04 	call	0x800	; 0x800 <lcd_write_i2c>
     836:	8c 2f       	mov	r24, r28
     838:	0e 94 00 04 	call	0x800	; 0x800 <lcd_write_i2c>
     83c:	80 e0       	ldi	r24, 0x00	; 0
     83e:	cf 91       	pop	r28
     840:	0c 94 00 04 	jmp	0x800	; 0x800 <lcd_write_i2c>

00000844 <lcd_putchar>:
     844:	cf 93       	push	r28
     846:	c8 2f       	mov	r28, r24
     848:	82 95       	swap	r24
     84a:	8f 70       	andi	r24, 0x0F	; 15
     84c:	80 61       	ori	r24, 0x10	; 16
     84e:	0e 94 15 04 	call	0x82a	; 0x82a <lcd_write>
     852:	8c 2f       	mov	r24, r28
     854:	8f 70       	andi	r24, 0x0F	; 15
     856:	80 61       	ori	r24, 0x10	; 16
     858:	cf 91       	pop	r28
     85a:	0c 94 15 04 	jmp	0x82a	; 0x82a <lcd_write>

0000085e <lcd_print_progmem>:
     85e:	cf 93       	push	r28
     860:	bc 01       	movw	r22, r24
     862:	84 ed       	ldi	r24, 0xD4	; 212
     864:	92 e0       	ldi	r25, 0x02	; 2
     866:	0e 94 d7 17 	call	0x2fae	; 0x2fae <strcpy_P>
     86a:	c0 e0       	ldi	r28, 0x00	; 0
     86c:	ec 2f       	mov	r30, r28
     86e:	f0 e0       	ldi	r31, 0x00	; 0
     870:	ec 52       	subi	r30, 0x2C	; 44
     872:	fd 4f       	sbci	r31, 0xFD	; 253
     874:	80 81       	ld	r24, Z
     876:	88 23       	and	r24, r24
     878:	29 f0       	breq	.+10     	; 0x884 <lcd_print_progmem+0x26>
     87a:	80 81       	ld	r24, Z
     87c:	0e 94 22 04 	call	0x844	; 0x844 <lcd_putchar>
     880:	cf 5f       	subi	r28, 0xFF	; 255
     882:	f4 cf       	rjmp	.-24     	; 0x86c <lcd_print_progmem+0xe>
     884:	cf 91       	pop	r28
     886:	08 95       	ret

00000888 <lcd_print>:
     888:	0f 93       	push	r16
     88a:	1f 93       	push	r17
     88c:	cf 93       	push	r28
     88e:	8c 01       	movw	r16, r24
     890:	c0 e0       	ldi	r28, 0x00	; 0
     892:	f8 01       	movw	r30, r16
     894:	ec 0f       	add	r30, r28
     896:	f1 1d       	adc	r31, r1
     898:	80 81       	ld	r24, Z
     89a:	88 23       	and	r24, r24
     89c:	21 f0       	breq	.+8      	; 0x8a6 <lcd_print+0x1e>
     89e:	0e 94 22 04 	call	0x844	; 0x844 <lcd_putchar>
     8a2:	cf 5f       	subi	r28, 0xFF	; 255
     8a4:	f6 cf       	rjmp	.-20     	; 0x892 <lcd_print+0xa>
     8a6:	cf 91       	pop	r28
     8a8:	1f 91       	pop	r17
     8aa:	0f 91       	pop	r16
     8ac:	08 95       	ret

000008ae <lcd_gotolr>:
     8ae:	cf 93       	push	r28
     8b0:	9f ef       	ldi	r25, 0xFF	; 255
     8b2:	98 0f       	add	r25, r24
     8b4:	94 30       	cpi	r25, 0x04	; 4
     8b6:	f8 f4       	brcc	.+62     	; 0x8f6 <lcd_gotolr+0x48>
     8b8:	9f ef       	ldi	r25, 0xFF	; 255
     8ba:	96 0f       	add	r25, r22
     8bc:	94 31       	cpi	r25, 0x14	; 20
     8be:	d8 f4       	brcc	.+54     	; 0x8f6 <lcd_gotolr+0x48>
     8c0:	83 30       	cpi	r24, 0x03	; 3
     8c2:	41 f0       	breq	.+16     	; 0x8d4 <lcd_gotolr+0x26>
     8c4:	84 30       	cpi	r24, 0x04	; 4
     8c6:	41 f0       	breq	.+16     	; 0x8d8 <lcd_gotolr+0x2a>
     8c8:	82 30       	cpi	r24, 0x02	; 2
     8ca:	11 f0       	breq	.+4      	; 0x8d0 <lcd_gotolr+0x22>
     8cc:	cf e7       	ldi	r28, 0x7F	; 127
     8ce:	05 c0       	rjmp	.+10     	; 0x8da <lcd_gotolr+0x2c>
     8d0:	cf eb       	ldi	r28, 0xBF	; 191
     8d2:	03 c0       	rjmp	.+6      	; 0x8da <lcd_gotolr+0x2c>
     8d4:	c3 e9       	ldi	r28, 0x93	; 147
     8d6:	01 c0       	rjmp	.+2      	; 0x8da <lcd_gotolr+0x2c>
     8d8:	c3 ed       	ldi	r28, 0xD3	; 211
     8da:	c6 0f       	add	r28, r22
     8dc:	8c 2f       	mov	r24, r28
     8de:	82 95       	swap	r24
     8e0:	8f 70       	andi	r24, 0x0F	; 15
     8e2:	80 68       	ori	r24, 0x80	; 128
     8e4:	0e 94 15 04 	call	0x82a	; 0x82a <lcd_write>
     8e8:	8c 2f       	mov	r24, r28
     8ea:	8f 70       	andi	r24, 0x0F	; 15
     8ec:	80 68       	ori	r24, 0x80	; 128
     8ee:	0e 94 15 04 	call	0x82a	; 0x82a <lcd_write>
     8f2:	81 e0       	ldi	r24, 0x01	; 1
     8f4:	01 c0       	rjmp	.+2      	; 0x8f8 <lcd_gotolr+0x4a>
     8f6:	80 e0       	ldi	r24, 0x00	; 0
     8f8:	cf 91       	pop	r28
     8fa:	08 95       	ret

000008fc <lcd_putcharlr>:
     8fc:	cf 93       	push	r28
     8fe:	df 93       	push	r29
     900:	d4 2f       	mov	r29, r20
     902:	0e 94 57 04 	call	0x8ae	; 0x8ae <lcd_gotolr>
     906:	c8 2f       	mov	r28, r24
     908:	88 23       	and	r24, r24
     90a:	19 f0       	breq	.+6      	; 0x912 <lcd_putcharlr+0x16>
     90c:	8d 2f       	mov	r24, r29
     90e:	0e 94 22 04 	call	0x844	; 0x844 <lcd_putchar>
     912:	8c 2f       	mov	r24, r28
     914:	df 91       	pop	r29
     916:	cf 91       	pop	r28
     918:	08 95       	ret

0000091a <lcd_printlc>:
     91a:	ff 92       	push	r15
     91c:	0f 93       	push	r16
     91e:	1f 93       	push	r17
     920:	cf 93       	push	r28
     922:	df 93       	push	r29
     924:	f8 2e       	mov	r15, r24
     926:	c6 2f       	mov	r28, r22
     928:	8a 01       	movw	r16, r20
     92a:	d0 e0       	ldi	r29, 0x00	; 0
     92c:	f8 01       	movw	r30, r16
     92e:	ed 0f       	add	r30, r29
     930:	f1 1d       	adc	r31, r1
     932:	40 81       	ld	r20, Z
     934:	44 23       	and	r20, r20
     936:	61 f0       	breq	.+24     	; 0x950 <lcd_printlc+0x36>
     938:	6c 2f       	mov	r22, r28
     93a:	8f 2d       	mov	r24, r15
     93c:	0e 94 7e 04 	call	0x8fc	; 0x8fc <lcd_putcharlr>
     940:	88 23       	and	r24, r24
     942:	39 f0       	breq	.+14     	; 0x952 <lcd_printlc+0x38>
     944:	cf 5f       	subi	r28, 0xFF	; 255
     946:	c5 31       	cpi	r28, 0x15	; 21
     948:	08 f0       	brcs	.+2      	; 0x94c <lcd_printlc+0x32>
     94a:	c1 e0       	ldi	r28, 0x01	; 1
     94c:	df 5f       	subi	r29, 0xFF	; 255
     94e:	ee cf       	rjmp	.-36     	; 0x92c <lcd_printlc+0x12>
     950:	81 e0       	ldi	r24, 0x01	; 1
     952:	df 91       	pop	r29
     954:	cf 91       	pop	r28
     956:	1f 91       	pop	r17
     958:	0f 91       	pop	r16
     95a:	ff 90       	pop	r15
     95c:	08 95       	ret

0000095e <lcd_printlrc>:
     95e:	ef 92       	push	r14
     960:	ff 92       	push	r15
     962:	1f 93       	push	r17
     964:	cf 93       	push	r28
     966:	df 93       	push	r29
     968:	c8 2f       	mov	r28, r24
     96a:	d6 2f       	mov	r29, r22
     96c:	7a 01       	movw	r14, r20
     96e:	10 e0       	ldi	r17, 0x00	; 0
     970:	f7 01       	movw	r30, r14
     972:	e1 0f       	add	r30, r17
     974:	f1 1d       	adc	r31, r1
     976:	40 81       	ld	r20, Z
     978:	44 23       	and	r20, r20
     97a:	81 f0       	breq	.+32     	; 0x99c <lcd_printlrc+0x3e>
     97c:	6d 2f       	mov	r22, r29
     97e:	8c 2f       	mov	r24, r28
     980:	0e 94 7e 04 	call	0x8fc	; 0x8fc <lcd_putcharlr>
     984:	88 23       	and	r24, r24
     986:	59 f0       	breq	.+22     	; 0x99e <lcd_printlrc+0x40>
     988:	df 5f       	subi	r29, 0xFF	; 255
     98a:	d5 31       	cpi	r29, 0x15	; 21
     98c:	10 f0       	brcs	.+4      	; 0x992 <lcd_printlrc+0x34>
     98e:	cf 5f       	subi	r28, 0xFF	; 255
     990:	d1 e0       	ldi	r29, 0x01	; 1
     992:	c5 30       	cpi	r28, 0x05	; 5
     994:	08 f0       	brcs	.+2      	; 0x998 <lcd_printlrc+0x3a>
     996:	c1 e0       	ldi	r28, 0x01	; 1
     998:	1f 5f       	subi	r17, 0xFF	; 255
     99a:	ea cf       	rjmp	.-44     	; 0x970 <lcd_printlrc+0x12>
     99c:	81 e0       	ldi	r24, 0x01	; 1
     99e:	df 91       	pop	r29
     9a0:	cf 91       	pop	r28
     9a2:	1f 91       	pop	r17
     9a4:	ff 90       	pop	r15
     9a6:	ef 90       	pop	r14
     9a8:	08 95       	ret

000009aa <lcd_printlr>:
     9aa:	0f 93       	push	r16
     9ac:	1f 93       	push	r17
     9ae:	cf 93       	push	r28
     9b0:	8a 01       	movw	r16, r20
     9b2:	0e 94 57 04 	call	0x8ae	; 0x8ae <lcd_gotolr>
     9b6:	c8 2f       	mov	r28, r24
     9b8:	88 23       	and	r24, r24
     9ba:	19 f0       	breq	.+6      	; 0x9c2 <lcd_printlr+0x18>
     9bc:	c8 01       	movw	r24, r16
     9be:	0e 94 44 04 	call	0x888	; 0x888 <lcd_print>
     9c2:	8c 2f       	mov	r24, r28
     9c4:	cf 91       	pop	r28
     9c6:	1f 91       	pop	r17
     9c8:	0f 91       	pop	r16
     9ca:	08 95       	ret

000009cc <lcd_wait_us>:

//-	Wait some microseconds
void lcd_wait_us(unsigned short us)
{
     9cc:	ac 01       	movw	r20, r24
    unsigned short i;
    for(i = 0; i < us; i++)
     9ce:	20 e0       	ldi	r18, 0x00	; 0
     9d0:	30 e0       	ldi	r19, 0x00	; 0
    can be achieved.
*/
void
_delay_loop_1(uint8_t __count)
{
	__asm__ volatile (
     9d2:	85 e0       	ldi	r24, 0x05	; 5
     9d4:	24 17       	cp	r18, r20
     9d6:	35 07       	cpc	r19, r21
     9d8:	31 f0       	breq	.+12     	; 0x9e6 <lcd_wait_us+0x1a>
     9da:	98 2f       	mov	r25, r24
     9dc:	9a 95       	dec	r25
     9de:	f1 f7       	brne	.-4      	; 0x9dc <lcd_wait_us+0x10>
     9e0:	2f 5f       	subi	r18, 0xFF	; 255
     9e2:	3f 4f       	sbci	r19, 0xFF	; 255
     9e4:	f7 cf       	rjmp	.-18     	; 0x9d4 <lcd_wait_us+0x8>
    {
        wait1us;
    }
}
     9e6:	08 95       	ret

000009e8 <lcd_wait_ms>:

//-	Wait some milliseconds
void lcd_wait_ms(unsigned short ms)
{
    unsigned short i;
    for(i = 0; i < ms; i++)
     9e8:	20 e0       	ldi	r18, 0x00	; 0
     9ea:	30 e0       	ldi	r19, 0x00	; 0
    milliseconds can be achieved.
 */
void
_delay_loop_2(uint16_t __count)
{
	__asm__ volatile (
     9ec:	40 ea       	ldi	r20, 0xA0	; 160
     9ee:	5f e0       	ldi	r21, 0x0F	; 15
     9f0:	28 17       	cp	r18, r24
     9f2:	39 07       	cpc	r19, r25
     9f4:	31 f0       	breq	.+12     	; 0xa02 <lcd_wait_ms+0x1a>
     9f6:	fa 01       	movw	r30, r20
     9f8:	31 97       	sbiw	r30, 0x01	; 1
     9fa:	f1 f7       	brne	.-4      	; 0x9f8 <lcd_wait_ms+0x10>
     9fc:	2f 5f       	subi	r18, 0xFF	; 255
     9fe:	3f 4f       	sbci	r19, 0xFF	; 255
     a00:	f7 cf       	rjmp	.-18     	; 0x9f0 <lcd_wait_ms+0x8>
    {
        wait1ms;
    }
}
     a02:	08 95       	ret

00000a04 <lcd_command>:
    return true;
}

//-	Issue a command to the display (use the defined commands above)
void lcd_command(unsigned char command)
{
     a04:	cf 93       	push	r28
     a06:	c8 2f       	mov	r28, r24
    unsigned char lcddata;
    lcddata = command;
    lcddata >>=  4;
    lcd_write(lcddata);
     a08:	82 95       	swap	r24
     a0a:	8f 70       	andi	r24, 0x0F	; 15
     a0c:	0e 94 15 04 	call	0x82a	; 0x82a <lcd_write>
    lcddata = command;
    lcddata &= 0x0F;
    lcd_write(lcddata);
     a10:	8c 2f       	mov	r24, r28
     a12:	8f 70       	andi	r24, 0x0F	; 15
     a14:	0e 94 15 04 	call	0x82a	; 0x82a <lcd_write>
    lcd_wait_ms(1);			// bei einigen Kommandos scheint eine kleine Pause notwendig zu sein...
     a18:	81 e0       	ldi	r24, 0x01	; 1
     a1a:	90 e0       	ldi	r25, 0x00	; 0
}
     a1c:	cf 91       	pop	r28
    lcddata >>=  4;
    lcd_write(lcddata);
    lcddata = command;
    lcddata &= 0x0F;
    lcd_write(lcddata);
    lcd_wait_ms(1);			// bei einigen Kommandos scheint eine kleine Pause notwendig zu sein...
     a1e:	0c 94 f4 04 	jmp	0x9e8	; 0x9e8 <lcd_wait_ms>

00000a22 <lcd_init>:
static volatile char     TextBuffer[20] = {};

//-	Display initialization sequence
void lcd_init(void)
{
    lcd_wait_ms(16);			//-	Wait for more than 15ms after VDD rises to 4.5V
     a22:	80 e1       	ldi	r24, 0x10	; 16
     a24:	90 e0       	ldi	r25, 0x00	; 0
     a26:	0e 94 f4 04 	call	0x9e8	; 0x9e8 <lcd_wait_ms>
    lcd_write(LCD_D5 | LCD_D4);	//-	Set interface to 8-bit
     a2a:	83 e0       	ldi	r24, 0x03	; 3
     a2c:	0e 94 15 04 	call	0x82a	; 0x82a <lcd_write>
    lcd_wait_ms(5);				//-	Wait for more than 4.1ms
     a30:	85 e0       	ldi	r24, 0x05	; 5
     a32:	90 e0       	ldi	r25, 0x00	; 0
     a34:	0e 94 f4 04 	call	0x9e8	; 0x9e8 <lcd_wait_ms>
    lcd_write(LCD_D5 | LCD_D4);	//-	Set interface to 8-bit
     a38:	83 e0       	ldi	r24, 0x03	; 3
     a3a:	0e 94 15 04 	call	0x82a	; 0x82a <lcd_write>
    lcd_wait_us(101);			//-	Wait for more than 100us
     a3e:	85 e6       	ldi	r24, 0x65	; 101
     a40:	90 e0       	ldi	r25, 0x00	; 0
     a42:	0e 94 e6 04 	call	0x9cc	; 0x9cc <lcd_wait_us>
    lcd_write(LCD_D5 | LCD_D4);	//-	Set interface to 8-bit
     a46:	83 e0       	ldi	r24, 0x03	; 3
     a48:	0e 94 15 04 	call	0x82a	; 0x82a <lcd_write>
    lcd_write(LCD_D5);			//-	Set interface to 4-bit
     a4c:	82 e0       	ldi	r24, 0x02	; 2
     a4e:	0e 94 15 04 	call	0x82a	; 0x82a <lcd_write>

    //- From now on in 4-bit-Mode
    lcd_command(LCD_4BIT | LCD_2LINE | LCD_5X7);		//-	2-Lines, 5x7-Matrix
     a52:	88 e2       	ldi	r24, 0x28	; 40
     a54:	0e 94 02 05 	call	0xa04	; 0xa04 <lcd_command>
    lcd_command(LCD_DISPLAYOFF);						//-	Display off
     a58:	88 e0       	ldi	r24, 0x08	; 8
     a5a:	0e 94 02 05 	call	0xa04	; 0xa04 <lcd_command>
    lcd_command(LCD_CLEAR);								//-	Clear Screen
     a5e:	81 e0       	ldi	r24, 0x01	; 1
     a60:	0e 94 02 05 	call	0xa04	; 0xa04 <lcd_command>
    lcd_command(LCD_INCREASE | LCD_DISPLAYSHIFTOFF);	//-	Entrymode (Display Shift: off, Increment Address Counter)
     a64:	86 e0       	ldi	r24, 0x06	; 6
     a66:	0e 94 02 05 	call	0xa04	; 0xa04 <lcd_command>
    lcd_command(LCD_DISPLAYON);							//-	Display on
     a6a:	8c e0       	ldi	r24, 0x0C	; 12
     a6c:	0c 94 02 05 	jmp	0xa04	; 0xa04 <lcd_command>

00000a70 <lcd_backlight>:
    }
}
//- Backlight ein/aus
void lcd_backlight(int bl)
{
    backlight = bl;
     a70:	90 93 01 01 	sts	0x0101, r25	; 0x800101 <__data_start+0x1>
     a74:	80 93 00 01 	sts	0x0100, r24	; 0x800100 <__data_start>
     a78:	08 95       	ret

00000a7a <i2c_init>:
*************************************************************************/
void i2c_init(void)
{
    /* initialize TWI clock: 100 kHz clock, TWPS = 0 => prescaler = 1 */

    TWSR = 0;                         /* no prescaler */
     a7a:	10 92 b9 00 	sts	0x00B9, r1	; 0x8000b9 <__DATA_REGION_ORIGIN__+0x59>
    TWBR = ((F_CPU/SCL_CLOCK)-16)/2;  /* must be > 10 for stable operation */
     a7e:	88 e4       	ldi	r24, 0x48	; 72
     a80:	80 93 b8 00 	sts	0x00B8, r24	; 0x8000b8 <__DATA_REGION_ORIGIN__+0x58>
     a84:	08 95       	ret

00000a86 <i2c_start>:
unsigned char i2c_start(unsigned char address)
{
    uint8_t   twst;

    // send START condition
    TWCR = (1<<TWINT) | (1<<TWSTA) | (1<<TWEN);
     a86:	94 ea       	ldi	r25, 0xA4	; 164
     a88:	90 93 bc 00 	sts	0x00BC, r25	; 0x8000bc <__DATA_REGION_ORIGIN__+0x5c>

    // wait until transmission completed
    while(!(TWCR & (1<<TWINT)));
     a8c:	90 91 bc 00 	lds	r25, 0x00BC	; 0x8000bc <__DATA_REGION_ORIGIN__+0x5c>
     a90:	97 ff       	sbrs	r25, 7
     a92:	fc cf       	rjmp	.-8      	; 0xa8c <i2c_start+0x6>

    // check value of TWI Status Register. Mask prescaler bits.
    twst = TW_STATUS & 0xF8;
     a94:	90 91 b9 00 	lds	r25, 0x00B9	; 0x8000b9 <__DATA_REGION_ORIGIN__+0x59>
     a98:	98 7f       	andi	r25, 0xF8	; 248
    if ( (twst != TW_START) && (twst != TW_REP_START)) return 1;
     a9a:	98 30       	cpi	r25, 0x08	; 8
     a9c:	21 f0       	breq	.+8      	; 0xaa6 <i2c_start+0x20>
     a9e:	90 31       	cpi	r25, 0x10	; 16
     aa0:	11 f0       	breq	.+4      	; 0xaa6 <i2c_start+0x20>
     aa2:	81 e0       	ldi	r24, 0x01	; 1
     aa4:	08 95       	ret

    // send device address
    TWDR = address;
     aa6:	80 93 bb 00 	sts	0x00BB, r24	; 0x8000bb <__DATA_REGION_ORIGIN__+0x5b>
    TWCR = (1<<TWINT) | (1<<TWEN);
     aaa:	84 e8       	ldi	r24, 0x84	; 132
     aac:	80 93 bc 00 	sts	0x00BC, r24	; 0x8000bc <__DATA_REGION_ORIGIN__+0x5c>

    // wail until transmission completed and ACK/NACK has been received
    while(!(TWCR & (1<<TWINT)));
     ab0:	80 91 bc 00 	lds	r24, 0x00BC	; 0x8000bc <__DATA_REGION_ORIGIN__+0x5c>
     ab4:	87 ff       	sbrs	r24, 7
     ab6:	fc cf       	rjmp	.-8      	; 0xab0 <i2c_start+0x2a>

    // check value of TWI Status Register. Mask prescaler bits.
    twst = TW_STATUS & 0xF8;
     ab8:	80 91 b9 00 	lds	r24, 0x00B9	; 0x8000b9 <__DATA_REGION_ORIGIN__+0x59>
     abc:	88 7f       	andi	r24, 0xF8	; 248
    if ( (twst != TW_MT_SLA_ACK) && (twst != TW_MR_SLA_ACK) ) return 1;
     abe:	88 31       	cpi	r24, 0x18	; 24
     ac0:	11 f0       	breq	.+4      	; 0xac6 <i2c_start+0x40>
     ac2:	80 34       	cpi	r24, 0x40	; 64
     ac4:	71 f7       	brne	.-36     	; 0xaa2 <i2c_start+0x1c>

    return 0;
     ac6:	80 e0       	ldi	r24, 0x00	; 0

}/* i2c_start */
     ac8:	08 95       	ret

00000aca <i2c_start_wait>:
{
    uint8_t   twst;
    while ( 1 )
    {
        // send START condition
        TWCR = (1<<TWINT) | (1<<TWSTA) | (1<<TWEN);
     aca:	24 ea       	ldi	r18, 0xA4	; 164
        twst = TW_STATUS & 0xF8;
        if ( (twst != TW_START) && (twst != TW_REP_START)) continue;

        // send device address
        TWDR = address;
        TWCR = (1<<TWINT) | (1<<TWEN);
     acc:	34 e8       	ldi	r19, 0x84	; 132
        // check value of TWI Status Register. Mask prescaler bits.
        twst = TW_STATUS & 0xF8;
        if ( (twst == TW_MT_SLA_NACK )||(twst ==TW_MR_DATA_NACK) )
        {
            /* device busy, send stop condition to terminate write operation */
            TWCR = (1<<TWINT) | (1<<TWEN) | (1<<TWSTO);
     ace:	44 e9       	ldi	r20, 0x94	; 148
{
    uint8_t   twst;
    while ( 1 )
    {
        // send START condition
        TWCR = (1<<TWINT) | (1<<TWSTA) | (1<<TWEN);
     ad0:	20 93 bc 00 	sts	0x00BC, r18	; 0x8000bc <__DATA_REGION_ORIGIN__+0x5c>

        // wait until transmission completed
        while(!(TWCR & (1<<TWINT)));
     ad4:	90 91 bc 00 	lds	r25, 0x00BC	; 0x8000bc <__DATA_REGION_ORIGIN__+0x5c>
     ad8:	97 ff       	sbrs	r25, 7
     ada:	fc cf       	rjmp	.-8      	; 0xad4 <i2c_start_wait+0xa>

        // check value of TWI Status Register. Mask prescaler bits.
        twst = TW_STATUS & 0xF8;
     adc:	90 91 b9 00 	lds	r25, 0x00B9	; 0x8000b9 <__DATA_REGION_ORIGIN__+0x59>
     ae0:	98 7f       	andi	r25, 0xF8	; 248
        if ( (twst != TW_START) && (twst != TW_REP_START)) continue;
     ae2:	98 30       	cpi	r25, 0x08	; 8
     ae4:	11 f0       	breq	.+4      	; 0xaea <i2c_start_wait+0x20>
     ae6:	90 31       	cpi	r25, 0x10	; 16
     ae8:	99 f7       	brne	.-26     	; 0xad0 <i2c_start_wait+0x6>

        // send device address
        TWDR = address;
     aea:	80 93 bb 00 	sts	0x00BB, r24	; 0x8000bb <__DATA_REGION_ORIGIN__+0x5b>
        TWCR = (1<<TWINT) | (1<<TWEN);
     aee:	30 93 bc 00 	sts	0x00BC, r19	; 0x8000bc <__DATA_REGION_ORIGIN__+0x5c>

        // wail until transmission completed
        while(!(TWCR & (1<<TWINT)));
     af2:	90 91 bc 00 	lds	r25, 0x00BC	; 0x8000bc <__DATA_REGION_ORIGIN__+0x5c>
     af6:	97 ff       	sbrs	r25, 7
     af8:	fc cf       	rjmp	.-8      	; 0xaf2 <i2c_start_wait+0x28>

        // check value of TWI Status Register. Mask prescaler bits.
        twst = TW_STATUS & 0xF8;
     afa:	90 91 b9 00 	lds	r25, 0x00B9	; 0x8000b9 <__DATA_REGION_ORIGIN__+0x59>
     afe:	98 7f       	andi	r25, 0xF8	; 248
        if ( (twst == TW_MT_SLA_NACK )||(twst ==TW_MR_DATA_NACK) )
     b00:	90 32       	cpi	r25, 0x20	; 32
     b02:	11 f0       	breq	.+4      	; 0xb08 <i2c_start_wait+0x3e>
     b04:	98 35       	cpi	r25, 0x58	; 88
     b06:	39 f4       	brne	.+14     	; 0xb16 <i2c_start_wait+0x4c>
        {
            /* device busy, send stop condition to terminate write operation */
            TWCR = (1<<TWINT) | (1<<TWEN) | (1<<TWSTO);
     b08:	40 93 bc 00 	sts	0x00BC, r20	; 0x8000bc <__DATA_REGION_ORIGIN__+0x5c>

            // wait until stop condition is executed and bus released
            while(TWCR & (1<<TWSTO));
     b0c:	90 91 bc 00 	lds	r25, 0x00BC	; 0x8000bc <__DATA_REGION_ORIGIN__+0x5c>
     b10:	94 fd       	sbrc	r25, 4
     b12:	fc cf       	rjmp	.-8      	; 0xb0c <i2c_start_wait+0x42>
     b14:	dd cf       	rjmp	.-70     	; 0xad0 <i2c_start_wait+0x6>
     b16:	08 95       	ret

00000b18 <i2c_rep_start>:
 Return:  0 device accessible
          1 failed to access device
*************************************************************************/
unsigned char i2c_rep_start(unsigned char address)
{
    return i2c_start( address );
     b18:	0c 94 43 05 	jmp	0xa86	; 0xa86 <i2c_start>

00000b1c <i2c_stop>:
 Terminates the data transfer and releases the I2C bus
*************************************************************************/
void i2c_stop(void)
{
    /* send stop condition */
    TWCR = (1<<TWINT) | (1<<TWEN) | (1<<TWSTO);
     b1c:	84 e9       	ldi	r24, 0x94	; 148
     b1e:	80 93 bc 00 	sts	0x00BC, r24	; 0x8000bc <__DATA_REGION_ORIGIN__+0x5c>

    // wait until stop condition is executed and bus released
    while(TWCR & (1<<TWSTO));
     b22:	80 91 bc 00 	lds	r24, 0x00BC	; 0x8000bc <__DATA_REGION_ORIGIN__+0x5c>
     b26:	84 fd       	sbrc	r24, 4
     b28:	fc cf       	rjmp	.-8      	; 0xb22 <i2c_stop+0x6>

}/* i2c_stop */
     b2a:	08 95       	ret

00000b2c <i2c_write>:
unsigned char i2c_write( unsigned char data )
{
    uint8_t   twst;

    // send data to the previously addressed device
    TWDR = data;
     b2c:	80 93 bb 00 	sts	0x00BB, r24	; 0x8000bb <__DATA_REGION_ORIGIN__+0x5b>
    TWCR = (1<<TWINT) | (1<<TWEN);
     b30:	84 e8       	ldi	r24, 0x84	; 132
     b32:	80 93 bc 00 	sts	0x00BC, r24	; 0x8000bc <__DATA_REGION_ORIGIN__+0x5c>

    // wait until transmission completed
    while(!(TWCR & (1<<TWINT)));
     b36:	80 91 bc 00 	lds	r24, 0x00BC	; 0x8000bc <__DATA_REGION_ORIGIN__+0x5c>
     b3a:	87 ff       	sbrs	r24, 7
     b3c:	fc cf       	rjmp	.-8      	; 0xb36 <i2c_write+0xa>

    // check value of TWI Status Register. Mask prescaler bits
    twst = TW_STATUS & 0xF8;
     b3e:	90 91 b9 00 	lds	r25, 0x00B9	; 0x8000b9 <__DATA_REGION_ORIGIN__+0x59>
     b42:	98 7f       	andi	r25, 0xF8	; 248
     b44:	81 e0       	ldi	r24, 0x01	; 1
     b46:	98 32       	cpi	r25, 0x28	; 40
     b48:	09 f4       	brne	.+2      	; 0xb4c <i2c_write+0x20>
     b4a:	80 e0       	ldi	r24, 0x00	; 0
    if( twst != TW_MT_DATA_ACK) return 1;
    return 0;

}/* i2c_write */
     b4c:	08 95       	ret

00000b4e <i2c_readAck>:

 Return:  byte read from I2C device
*************************************************************************/
unsigned char i2c_readAck(void)
{
    TWCR = (1<<TWINT) | (1<<TWEN) | (1<<TWEA);
     b4e:	84 ec       	ldi	r24, 0xC4	; 196
     b50:	80 93 bc 00 	sts	0x00BC, r24	; 0x8000bc <__DATA_REGION_ORIGIN__+0x5c>
    while(!(TWCR & (1<<TWINT)));
     b54:	80 91 bc 00 	lds	r24, 0x00BC	; 0x8000bc <__DATA_REGION_ORIGIN__+0x5c>
     b58:	87 ff       	sbrs	r24, 7
     b5a:	fc cf       	rjmp	.-8      	; 0xb54 <i2c_readAck+0x6>

    return TWDR;
     b5c:	80 91 bb 00 	lds	r24, 0x00BB	; 0x8000bb <__DATA_REGION_ORIGIN__+0x5b>

}/* i2c_readAck */
     b60:	08 95       	ret

00000b62 <i2c_readNak>:

 Return:  byte read from I2C device
*************************************************************************/
unsigned char i2c_readNak(void)
{
    TWCR = (1<<TWINT) | (1<<TWEN);
     b62:	84 e8       	ldi	r24, 0x84	; 132
     b64:	80 93 bc 00 	sts	0x00BC, r24	; 0x8000bc <__DATA_REGION_ORIGIN__+0x5c>
    while(!(TWCR & (1<<TWINT)));
     b68:	80 91 bc 00 	lds	r24, 0x00BC	; 0x8000bc <__DATA_REGION_ORIGIN__+0x5c>
     b6c:	87 ff       	sbrs	r24, 7
     b6e:	fc cf       	rjmp	.-8      	; 0xb68 <i2c_readNak+0x6>

    return TWDR;
     b70:	80 91 bb 00 	lds	r24, 0x00BB	; 0x8000bb <__DATA_REGION_ORIGIN__+0x5b>

}/* i2c_readNak */
     b74:	08 95       	ret

00000b76 <init_menu>:
    uint8_t     i = 0;

   /*************************************************************************
   *  Adresse für Rücksprung auf übergeordnetes Menü definieren
   *************************************************************************/
	Menu1[0].parent = MainMenu;
     b76:	ee ed       	ldi	r30, 0xDE	; 222
     b78:	f1 e0       	ldi	r31, 0x01	; 1
     b7a:	82 e0       	ldi	r24, 0x02	; 2
     b7c:	91 e0       	ldi	r25, 0x01	; 1
     b7e:	96 83       	std	Z+6, r25	; 0x06
     b80:	85 83       	std	Z+5, r24	; 0x05
	Menu1[1].parent = MainMenu;
     b82:	91 8b       	std	Z+17, r25	; 0x11
     b84:	80 8b       	std	Z+16, r24	; 0x10
	Menu1[2].parent = MainMenu;
     b86:	94 8f       	std	Z+28, r25	; 0x1c
     b88:	83 8f       	std	Z+27, r24	; 0x1b
	Menu1[3].parent = MainMenu;
     b8a:	97 a3       	std	Z+39, r25	; 0x27
     b8c:	86 a3       	std	Z+38, r24	; 0x26
	
    
	Menu2[0].parent = MainMenu;
     b8e:	e8 ec       	ldi	r30, 0xC8	; 200
     b90:	f1 e0       	ldi	r31, 0x01	; 1
     b92:	96 83       	std	Z+6, r25	; 0x06
     b94:	85 83       	std	Z+5, r24	; 0x05
	Menu2[1].parent = MainMenu;
     b96:	91 8b       	std	Z+17, r25	; 0x11
     b98:	80 8b       	std	Z+16, r24	; 0x10
	Menu2[2].parent = MainMenu;
     b9a:	94 8f       	std	Z+28, r25	; 0x1c
     b9c:	83 8f       	std	Z+27, r24	; 0x1b
	Menu2[3].parent = MainMenu;
     b9e:	97 a3       	std	Z+39, r25	; 0x27
     ba0:	86 a3       	std	Z+38, r24	; 0x26
	Menu2[4].parent = MainMenu;
     ba2:	92 ab       	std	Z+50, r25	; 0x32
     ba4:	81 ab       	std	Z+49, r24	; 0x31
	Menu2[5].parent = MainMenu;
     ba6:	95 af       	std	Z+61, r25	; 0x3d
     ba8:	84 af       	std	Z+60, r24	; 0x3c
	Menu2[6].parent = MainMenu;
     baa:	90 93 10 02 	sts	0x0210, r25	; 0x800210 <Menu1+0x32>
     bae:	80 93 0f 02 	sts	0x020F, r24	; 0x80020f <Menu1+0x31>
	Menu2[7].parent = MainMenu;
     bb2:	90 93 1b 02 	sts	0x021B, r25	; 0x80021b <Menu1+0x3d>
     bb6:	80 93 1a 02 	sts	0x021A, r24	; 0x80021a <Menu1+0x3c>
	
    Menu3[0].parent = MainMenu;
     bba:	e1 e9       	ldi	r30, 0x91	; 145
     bbc:	f1 e0       	ldi	r31, 0x01	; 1
     bbe:	96 83       	std	Z+6, r25	; 0x06
     bc0:	85 83       	std	Z+5, r24	; 0x05
	Menu3[1].parent = MainMenu;
     bc2:	91 8b       	std	Z+17, r25	; 0x11
     bc4:	80 8b       	std	Z+16, r24	; 0x10
	Menu3[2].parent = MainMenu;
     bc6:	94 8f       	std	Z+28, r25	; 0x1c
     bc8:	83 8f       	std	Z+27, r24	; 0x1b
	Menu3[3].parent = MainMenu;
     bca:	97 a3       	std	Z+39, r25	; 0x27
     bcc:	86 a3       	std	Z+38, r24	; 0x26
	Menu3[4].parent = MainMenu;
     bce:	92 ab       	std	Z+50, r25	; 0x32
     bd0:	81 ab       	std	Z+49, r24	; 0x31
	
	Menu4[0].parent = MainMenu;
     bd2:	90 93 4a 01 	sts	0x014A, r25	; 0x80014a <Menu4+0x6>
     bd6:	80 93 49 01 	sts	0x0149, r24	; 0x800149 <Menu4+0x5>

	ui_ActualMenu = MainMenu;
     bda:	90 93 ad 03 	sts	0x03AD, r25	; 0x8003ad <ui_ActualMenu+0x1>
     bde:	80 93 ac 03 	sts	0x03AC, r24	; 0x8003ac <ui_ActualMenu>
    //ui_ActualMenu = ui_TopMenu;
    ui_MenuDepth = 0;           //Start in the topmost menu
     be2:	10 92 e8 02 	sts	0x02E8, r1	; 0x8002e8 <ui_MenuDepth>

    for(i = 0 ; i < ui_Max_Menu_Depth ; i++){
        ui_State[i] = 0;
     be6:	e9 ee       	ldi	r30, 0xE9	; 233
     be8:	f2 e0       	ldi	r31, 0x02	; 2
     bea:	10 82       	st	Z, r1
     bec:	11 82       	std	Z+1, r1	; 0x01
     bee:	12 82       	std	Z+2, r1	; 0x02
     bf0:	13 82       	std	Z+3, r1	; 0x03
     bf2:	08 95       	ret

00000bf4 <menu>:
void menu(uint8_t key){

    uint8_t     max_depth = 0, i = 0;
	

    max_depth = ui_ActualMenu[0].ItemsInMenu;
     bf4:	e0 91 ac 03 	lds	r30, 0x03AC	; 0x8003ac <ui_ActualMenu>
     bf8:	f0 91 ad 03 	lds	r31, 0x03AD	; 0x8003ad <ui_ActualMenu+0x1>
     bfc:	92 81       	ldd	r25, Z+2	; 0x02

    switch(key){
     bfe:	82 30       	cpi	r24, 0x02	; 2
     c00:	e9 f1       	breq	.+122    	; 0xc7c <menu+0x88>
     c02:	30 f4       	brcc	.+12     	; 0xc10 <menu+0x1c>
     c04:	88 23       	and	r24, r24
     c06:	59 f0       	breq	.+22     	; 0xc1e <menu+0x2a>
     c08:	81 30       	cpi	r24, 0x01	; 1
     c0a:	09 f4       	brne	.+2      	; 0xc0e <menu+0x1a>
     c0c:	69 c0       	rjmp	.+210    	; 0xce0 <menu+0xec>
     c0e:	08 95       	ret
     c10:	84 30       	cpi	r24, 0x04	; 4
     c12:	e9 f0       	breq	.+58     	; 0xc4e <menu+0x5a>
     c14:	98 f1       	brcs	.+102    	; 0xc7c <menu+0x88>
     c16:	85 30       	cpi	r24, 0x05	; 5
     c18:	09 f4       	brne	.+2      	; 0xc1c <menu+0x28>
     c1a:	62 c0       	rjmp	.+196    	; 0xce0 <menu+0xec>
     c1c:	08 95       	ret
        case KEY_UP:        //Go up the menu

            if(ui_State[ui_MenuDepth] == 0){
     c1e:	e0 91 e8 02 	lds	r30, 0x02E8	; 0x8002e8 <ui_MenuDepth>
     c22:	f0 e0       	ldi	r31, 0x00	; 0
     c24:	e7 51       	subi	r30, 0x17	; 23
     c26:	fd 4f       	sbci	r31, 0xFD	; 253
     c28:	80 81       	ld	r24, Z
                ui_State[ui_MenuDepth] = max_depth - 1;
     c2a:	e0 91 e8 02 	lds	r30, 0x02E8	; 0x8002e8 <ui_MenuDepth>
     c2e:	f0 e0       	ldi	r31, 0x00	; 0
    max_depth = ui_ActualMenu[0].ItemsInMenu;

    switch(key){
        case KEY_UP:        //Go up the menu

            if(ui_State[ui_MenuDepth] == 0){
     c30:	81 11       	cpse	r24, r1
     c32:	05 c0       	rjmp	.+10     	; 0xc3e <menu+0x4a>
                ui_State[ui_MenuDepth] = max_depth - 1;
     c34:	8f ef       	ldi	r24, 0xFF	; 255
     c36:	89 0f       	add	r24, r25
     c38:	e7 51       	subi	r30, 0x17	; 23
     c3a:	fd 4f       	sbci	r31, 0xFD	; 253
     c3c:	04 c0       	rjmp	.+8      	; 0xc46 <menu+0x52>
            }else{
                ui_State[ui_MenuDepth]--;
     c3e:	e7 51       	subi	r30, 0x17	; 23
     c40:	fd 4f       	sbci	r31, 0xFD	; 253
     c42:	80 81       	ld	r24, Z
     c44:	81 50       	subi	r24, 0x01	; 1
     c46:	80 83       	st	Z, r24
            }
			
			/*************************************************************************
			* Anpassung um Anzeige beim springen durchs Menü zu löschen
			*************************************************************************/
			lcd_command(LCD_CLEAR);
     c48:	81 e0       	ldi	r24, 0x01	; 1
     c4a:	0c 94 02 05 	jmp	0xa04	; 0xa04 <lcd_command>
            break;

        case KEY_DOWN:      //Go down the menu

            if(ui_State[ui_MenuDepth] == max_depth - 1){
     c4e:	e0 91 e8 02 	lds	r30, 0x02E8	; 0x8002e8 <ui_MenuDepth>
     c52:	f0 e0       	ldi	r31, 0x00	; 0
     c54:	e7 51       	subi	r30, 0x17	; 23
     c56:	fd 4f       	sbci	r31, 0xFD	; 253
     c58:	20 81       	ld	r18, Z
     c5a:	30 e0       	ldi	r19, 0x00	; 0
     c5c:	89 2f       	mov	r24, r25
     c5e:	90 e0       	ldi	r25, 0x00	; 0
     c60:	01 97       	sbiw	r24, 0x01	; 1
                ui_State[ui_MenuDepth] = 0;
     c62:	e0 91 e8 02 	lds	r30, 0x02E8	; 0x8002e8 <ui_MenuDepth>
     c66:	f0 e0       	ldi	r31, 0x00	; 0
     c68:	e7 51       	subi	r30, 0x17	; 23
     c6a:	fd 4f       	sbci	r31, 0xFD	; 253
			lcd_command(LCD_CLEAR);
            break;

        case KEY_DOWN:      //Go down the menu

            if(ui_State[ui_MenuDepth] == max_depth - 1){
     c6c:	28 17       	cp	r18, r24
     c6e:	39 07       	cpc	r19, r25
     c70:	11 f4       	brne	.+4      	; 0xc76 <menu+0x82>
                ui_State[ui_MenuDepth] = 0;
     c72:	10 82       	st	Z, r1
     c74:	e9 cf       	rjmp	.-46     	; 0xc48 <menu+0x54>
            }else{
                ui_State[ui_MenuDepth]++;
     c76:	80 81       	ld	r24, Z
     c78:	8f 5f       	subi	r24, 0xFF	; 255
     c7a:	e5 cf       	rjmp	.-54     	; 0xc46 <menu+0x52>
			lcd_command(LCD_CLEAR);
            break;
			
        case KEY_OK:

            if(ui_ActualMenu[ui_State[ui_MenuDepth]].menue_typ == menu_has_submenu)
     c7c:	a0 91 e8 02 	lds	r26, 0x02E8	; 0x8002e8 <ui_MenuDepth>
     c80:	b0 e0       	ldi	r27, 0x00	; 0
     c82:	a7 51       	subi	r26, 0x17	; 23
     c84:	bd 4f       	sbci	r27, 0xFD	; 253
     c86:	8c 91       	ld	r24, X
     c88:	df 01       	movw	r26, r30
     c8a:	9b e0       	ldi	r25, 0x0B	; 11
     c8c:	89 9f       	mul	r24, r25
     c8e:	a0 0d       	add	r26, r0
     c90:	b1 1d       	adc	r27, r1
     c92:	11 24       	eor	r1, r1
     c94:	11 96       	adiw	r26, 0x01	; 1
     c96:	8c 91       	ld	r24, X
			{
                ui_ActualMenu = ui_ActualMenu[ui_State[ui_MenuDepth]].sub;
     c98:	a0 91 e8 02 	lds	r26, 0x02E8	; 0x8002e8 <ui_MenuDepth>
     c9c:	b0 e0       	ldi	r27, 0x00	; 0
     c9e:	a7 51       	subi	r26, 0x17	; 23
     ca0:	bd 4f       	sbci	r27, 0xFD	; 253
			lcd_command(LCD_CLEAR);
            break;
			
        case KEY_OK:

            if(ui_ActualMenu[ui_State[ui_MenuDepth]].menue_typ == menu_has_submenu)
     ca2:	81 11       	cpse	r24, r1
     ca4:	12 c0       	rjmp	.+36     	; 0xcca <menu+0xd6>
			{
                ui_ActualMenu = ui_ActualMenu[ui_State[ui_MenuDepth]].sub;
     ca6:	8c 91       	ld	r24, X
     ca8:	9b e0       	ldi	r25, 0x0B	; 11
     caa:	89 9f       	mul	r24, r25
     cac:	e0 0d       	add	r30, r0
     cae:	f1 1d       	adc	r31, r1
     cb0:	11 24       	eor	r1, r1
     cb2:	83 81       	ldd	r24, Z+3	; 0x03
     cb4:	94 81       	ldd	r25, Z+4	; 0x04
     cb6:	90 93 ad 03 	sts	0x03AD, r25	; 0x8003ad <ui_ActualMenu+0x1>
     cba:	80 93 ac 03 	sts	0x03AC, r24	; 0x8003ac <ui_ActualMenu>
                ui_MenuDepth++;
     cbe:	80 91 e8 02 	lds	r24, 0x02E8	; 0x8002e8 <ui_MenuDepth>
     cc2:	8f 5f       	subi	r24, 0xFF	; 255
     cc4:	80 93 e8 02 	sts	0x02E8, r24	; 0x8002e8 <ui_MenuDepth>
     cc8:	bf cf       	rjmp	.-130    	; 0xc48 <menu+0x54>
            }else{
                ui_ActualMenu[ui_State[ui_MenuDepth]].CallMe();
     cca:	8c 91       	ld	r24, X
     ccc:	9b e0       	ldi	r25, 0x0B	; 11
     cce:	89 9f       	mul	r24, r25
     cd0:	e0 0d       	add	r30, r0
     cd2:	f1 1d       	adc	r31, r1
     cd4:	11 24       	eor	r1, r1
     cd6:	01 84       	ldd	r0, Z+9	; 0x09
     cd8:	f2 85       	ldd	r31, Z+10	; 0x0a
     cda:	e0 2d       	mov	r30, r0
     cdc:	09 95       	icall
     cde:	b4 cf       	rjmp	.-152    	; 0xc48 <menu+0x54>
		//ui_ActualMenu = ui_TopMenu;  
		/*************************************************************************
		* So stimmt dir Zuweisung, ui_ActualMenu erhält die richtige Adresse auf das
		* Top Menü, und wird im Display angezeigt
		*************************************************************************/
			ui_ActualMenu = MainMenu; // richtige Zuweisung
     ce0:	82 e0       	ldi	r24, 0x02	; 2
     ce2:	91 e0       	ldi	r25, 0x01	; 1
     ce4:	90 93 ad 03 	sts	0x03AD, r25	; 0x8003ad <ui_ActualMenu+0x1>
     ce8:	80 93 ac 03 	sts	0x03AC, r24	; 0x8003ac <ui_ActualMenu>
			lcd_command(LCD_CLEAR);
     cec:	81 e0       	ldi	r24, 0x01	; 1
     cee:	0e 94 02 05 	call	0xa04	; 0xa04 <lcd_command>
        
            ui_MenuDepth = 0;
     cf2:	10 92 e8 02 	sts	0x02E8, r1	; 0x8002e8 <ui_MenuDepth>

            for(i = 0 ; i < ui_Max_Menu_Depth ; i++){
                ui_State[i] = 0;
     cf6:	10 92 e9 02 	sts	0x02E9, r1	; 0x8002e9 <ui_State>
     cfa:	10 92 ea 02 	sts	0x02EA, r1	; 0x8002ea <ui_State+0x1>
     cfe:	10 92 eb 02 	sts	0x02EB, r1	; 0x8002eb <ui_State+0x2>
     d02:	10 92 ec 02 	sts	0x02EC, r1	; 0x8002ec <ui_State+0x3>
     d06:	08 95       	ret

00000d08 <displayMenu>:
        break;
    }
}


void displayMenu(void){                     //Displays the menu on the LCD
     d08:	1f 93       	push	r17
     d0a:	cf 93       	push	r28
     d0c:	df 93       	push	r29

    uint8_t     i = 0, j = 0, k = 1;

	lcd_gotolr(1,1); // Cursor auf erstes Zeichen oben links
     d0e:	61 e0       	ldi	r22, 0x01	; 1
     d10:	81 e0       	ldi	r24, 0x01	; 1
     d12:	0e 94 57 04 	call	0x8ae	; 0x8ae <lcd_gotolr>

    i = ui_State[ui_MenuDepth];             //The first line is always the "chosen one"
     d16:	e0 91 e8 02 	lds	r30, 0x02E8	; 0x8002e8 <ui_MenuDepth>
     d1a:	f0 e0       	ldi	r31, 0x00	; 0
     d1c:	e7 51       	subi	r30, 0x17	; 23
     d1e:	fd 4f       	sbci	r31, 0xFD	; 253
     d20:	10 81       	ld	r17, Z
     d22:	c1 2f       	mov	r28, r17
}


void displayMenu(void){                     //Displays the menu on the LCD

    uint8_t     i = 0, j = 0, k = 1;
     d24:	d1 e0       	ldi	r29, 0x01	; 1
*  Die Ausgeben des Menüs musste umgeschrieben werden, da die Zeilen und Spalten
*  über (Linie/Spalte) und nicht mit (Spalte/Zeile) adressiert werden 
*  und ausserdem nicht 0 terminiert sind wie in der original Routine. 
*  Die Anzeige der Strings funktioniert ausserdem direkt aus dem Flash
*************************************************************************/
        lcd_gotolr(k, 1); // Aus richtige Zeile springen
     d26:	61 e0       	ldi	r22, 0x01	; 1
     d28:	8d 2f       	mov	r24, r29
     d2a:	0e 94 57 04 	call	0x8ae	; 0x8ae <lcd_gotolr>

        if((i == j) && (k != 1)){  // Menü entsprechend der LCD grösse (4x20) anzeigen
     d2e:	1c 13       	cpse	r17, r28
     d30:	02 c0       	rjmp	.+4      	; 0xd36 <displayMenu+0x2e>
     d32:	d1 30       	cpi	r29, 0x01	; 1
     d34:	41 f5       	brne	.+80     	; 0xd86 <displayMenu+0x7e>
			 break;
        }

        if(i == ui_State[ui_MenuDepth]){    //Is this the actually selected Item?
     d36:	e0 91 e8 02 	lds	r30, 0x02E8	; 0x8002e8 <ui_MenuDepth>
     d3a:	f0 e0       	ldi	r31, 0x00	; 0
     d3c:	e7 51       	subi	r30, 0x17	; 23
     d3e:	fd 4f       	sbci	r31, 0xFD	; 253
     d40:	80 81       	ld	r24, Z
     d42:	8c 13       	cpse	r24, r28
     d44:	03 c0       	rjmp	.+6      	; 0xd4c <displayMenu+0x44>
            lcd_putchar('>');                  //Menüpfeil ausgeben
     d46:	8e e3       	ldi	r24, 0x3E	; 62
     d48:	0e 94 22 04 	call	0x844	; 0x844 <lcd_putchar>
        }

       lcd_gotolr( k,2);                    //rechts vom Menüpfeil
     d4c:	62 e0       	ldi	r22, 0x02	; 2
     d4e:	8d 2f       	mov	r24, r29
     d50:	0e 94 57 04 	call	0x8ae	; 0x8ae <lcd_gotolr>
	   
	   //String für das Menü aus dem Flash holen und anzeigen
        lcd_print_progmem(ui_ActualMenu[i].cText); 
     d54:	e0 91 ac 03 	lds	r30, 0x03AC	; 0x8003ac <ui_ActualMenu>
     d58:	f0 91 ad 03 	lds	r31, 0x03AD	; 0x8003ad <ui_ActualMenu+0x1>
     d5c:	8b e0       	ldi	r24, 0x0B	; 11
     d5e:	c8 9f       	mul	r28, r24
     d60:	e0 0d       	add	r30, r0
     d62:	f1 1d       	adc	r31, r1
     d64:	11 24       	eor	r1, r1
     d66:	87 81       	ldd	r24, Z+7	; 0x07
     d68:	90 85       	ldd	r25, Z+8	; 0x08
     d6a:	0e 94 2f 04 	call	0x85e	; 0x85e <lcd_print_progmem>
        i++;                                //nächster Menüeintrag
     d6e:	cf 5f       	subi	r28, 0xFF	; 255

        if( i >= ui_ActualMenu[0].ItemsInMenu ){ //run out of entries?
     d70:	e0 91 ac 03 	lds	r30, 0x03AC	; 0x8003ac <ui_ActualMenu>
     d74:	f0 91 ad 03 	lds	r31, 0x03AD	; 0x8003ad <ui_ActualMenu+0x1>
     d78:	82 81       	ldd	r24, Z+2	; 0x02
     d7a:	c8 17       	cp	r28, r24
     d7c:	08 f0       	brcs	.+2      	; 0xd80 <displayMenu+0x78>
            i = 0;
     d7e:	c0 e0       	ldi	r28, 0x00	; 0
        }
        k++;    //line counter
     d80:	df 5f       	subi	r29, 0xFF	; 255

    i = ui_State[ui_MenuDepth];             //The first line is always the "chosen one"

    j = i;

    while(k <= LCD_LINES){
     d82:	d5 30       	cpi	r29, 0x05	; 5
     d84:	81 f6       	brne	.-96     	; 0xd26 <displayMenu+0x1e>
            i = 0;
        }
        k++;    //line counter
    }

}
     d86:	df 91       	pop	r29
     d88:	cf 91       	pop	r28
     d8a:	1f 91       	pop	r17
     d8c:	08 95       	ret

00000d8e <get_lm76_temperatur>:
 * get_lm76_temperatur(..) - Temperatur Bytes vom LM76 holen und zusammensetzen
 * PE:uint8_t adresse // I2C Adresse LM 76
 * PA:int16_t		  // Temperatur als int Variable, 1 Bit entspricht 0.0625°C
*************************************************************************/
int16_t get_lm76_temperatur(uint8_t adresse) // 16Bit vom I2C Slave einlesen
{
     d8e:	cf 93       	push	r28
     d90:	df 93       	push	r29
     d92:	c8 2f       	mov	r28, r24
    int8_t oberes_nibble;
    int8_t unteres_nibble;
    int16_t data =0;
    uint8_t ret;

    ret = i2c_start(adresse + I2C_WRITE); // write start auf LM76 schreiben
     d94:	0e 94 43 05 	call	0xa86	; 0xa86 <i2c_start>
    if (ret)		// Keine Antwort vom Sensor?
     d98:	88 23       	and	r24, r24
     d9a:	41 f0       	breq	.+16     	; 0xdac <get_lm76_temperatur+0x1e>
    {
        i2c_stop(); // Bus stoppen
     d9c:	0e 94 8e 05 	call	0xb1c	; 0xb1c <i2c_stop>
        alarm_vektor = 1; // I2C Alarm auslösen
     da0:	81 e0       	ldi	r24, 0x01	; 1
     da2:	80 93 ef 02 	sts	0x02EF, r24	; 0x8002ef <alarm_vektor>

        data = (unteres_nibble & 0xff) + (oberes_nibble <<8); // Temperatur zusammensetzen
        data >>=3; //untere 3 Status Bits abschneiden
        return data; // Temperatur zurückgeben
    }
    return data;
     da6:	80 e0       	ldi	r24, 0x00	; 0
     da8:	90 e0       	ldi	r25, 0x00	; 0
     daa:	1b c0       	rjmp	.+54     	; 0xde2 <get_lm76_temperatur+0x54>
        i2c_stop(); // Bus stoppen
        alarm_vektor = 1; // I2C Alarm auslösen
    }
    else			// Sensor antwortet
    {
        i2c_write(0x00); // Register Pointer auf Temperatur
     dac:	80 e0       	ldi	r24, 0x00	; 0
     dae:	0e 94 96 05 	call	0xb2c	; 0xb2c <i2c_write>
        i2c_rep_start(adresse + I2C_READ);
     db2:	81 e0       	ldi	r24, 0x01	; 1
     db4:	8c 0f       	add	r24, r28
     db6:	0e 94 8c 05 	call	0xb18	; 0xb18 <i2c_rep_start>
        oberes_nibble= i2c_readAck(); // Oberes Temperatur Nibble einlesen
     dba:	0e 94 a7 05 	call	0xb4e	; 0xb4e <i2c_readAck>
     dbe:	c8 2f       	mov	r28, r24
        unteres_nibble = i2c_readNak(); // Unteres Temperatur Nibble einlesen
     dc0:	0e 94 b1 05 	call	0xb62	; 0xb62 <i2c_readNak>
     dc4:	d8 2f       	mov	r29, r24
        i2c_stop();
     dc6:	0e 94 8e 05 	call	0xb1c	; 0xb1c <i2c_stop>

        data = (unteres_nibble & 0xff) + (oberes_nibble <<8); // Temperatur zusammensetzen
     dca:	8c 2f       	mov	r24, r28
     dcc:	cc 0f       	add	r28, r28
     dce:	99 0b       	sbc	r25, r25
     dd0:	98 2f       	mov	r25, r24
     dd2:	88 27       	eor	r24, r24
     dd4:	8d 0f       	add	r24, r29
     dd6:	91 1d       	adc	r25, r1
        data >>=3; //untere 3 Status Bits abschneiden
     dd8:	33 e0       	ldi	r19, 0x03	; 3
     dda:	95 95       	asr	r25
     ddc:	87 95       	ror	r24
     dde:	3a 95       	dec	r19
     de0:	e1 f7       	brne	.-8      	; 0xdda <get_lm76_temperatur+0x4c>
        return data; // Temperatur zurückgeben
    }
    return data;
}
     de2:	df 91       	pop	r29
     de4:	cf 91       	pop	r28
     de6:	08 95       	ret

00000de8 <timer_init>:
	zeit_to_string(zeit, anzeigetext1);				// Zeit zu String
	uart_puts(anzeigetext1);						// Zeit über UART senden
    uart_putc('\r');								// New Line
	datum_to_string(zeit, anzeigetext1);			// Datum zu string
	uart_puts(anzeigetext1);						// Datum über UART senden
	uart_putc('\r');								// New Line
     de8:	85 b5       	in	r24, 0x25	; 37
     dea:	85 60       	ori	r24, 0x05	; 5
     dec:	85 bd       	out	0x25, r24	; 37
     dee:	ee e6       	ldi	r30, 0x6E	; 110
     df0:	f0 e0       	ldi	r31, 0x00	; 0
     df2:	10 82       	st	Z, r1
     df4:	80 81       	ld	r24, Z
     df6:	81 60       	ori	r24, 0x01	; 1
     df8:	80 83       	st	Z, r24
     dfa:	81 e2       	ldi	r24, 0x21	; 33
     dfc:	80 93 80 00 	sts	0x0080, r24	; 0x800080 <__DATA_REGION_ORIGIN__+0x20>
     e00:	83 e0       	ldi	r24, 0x03	; 3
     e02:	80 93 81 00 	sts	0x0081, r24	; 0x800081 <__DATA_REGION_ORIGIN__+0x21>
     e06:	78 94       	sei
     e08:	08 95       	ret

00000e0a <init_ports>:
     e0a:	8f e0       	ldi	r24, 0x0F	; 15
     e0c:	81 b9       	out	0x01, r24	; 1
     e0e:	80 e3       	ldi	r24, 0x30	; 48
     e10:	8a b9       	out	0x0a, r24	; 10
     e12:	87 b1       	in	r24, 0x07	; 7
     e14:	80 6c       	ori	r24, 0xC0	; 192
     e16:	87 b9       	out	0x07, r24	; 7
     e18:	08 95       	ret

00000e1a <temperatur_to_string>:
     e1a:	ef 92       	push	r14
     e1c:	ff 92       	push	r15
     e1e:	0f 93       	push	r16
     e20:	1f 93       	push	r17
     e22:	cf 93       	push	r28
     e24:	df 93       	push	r29
     e26:	16 2f       	mov	r17, r22
     e28:	07 2f       	mov	r16, r23
     e2a:	21 e7       	ldi	r18, 0x71	; 113
     e2c:	32 e0       	ldi	r19, 0x02	; 2
     e2e:	dc 01       	movw	r26, r24
     e30:	0e 94 c5 17 	call	0x2f8a	; 0x2f8a <__usmulhisi3>
     e34:	20 e1       	ldi	r18, 0x10	; 16
     e36:	37 e2       	ldi	r19, 0x27	; 39
     e38:	40 e0       	ldi	r20, 0x00	; 0
     e3a:	50 e0       	ldi	r21, 0x00	; 0
     e3c:	0e 94 97 17 	call	0x2f2e	; 0x2f2e <__divmodsi4>
     e40:	f2 2e       	mov	r15, r18
     e42:	e3 2e       	mov	r14, r19
     e44:	c2 2f       	mov	r28, r18
     e46:	d3 2f       	mov	r29, r19
     e48:	28 ee       	ldi	r18, 0xE8	; 232
     e4a:	33 e0       	ldi	r19, 0x03	; 3
     e4c:	40 e0       	ldi	r20, 0x00	; 0
     e4e:	50 e0       	ldi	r21, 0x00	; 0
     e50:	0e 94 97 17 	call	0x2f2e	; 0x2f2e <__divmodsi4>
     e54:	37 ff       	sbrs	r19, 7
     e56:	2f c0       	rjmp	.+94     	; 0xeb6 <temperatur_to_string+0x9c>
     e58:	31 95       	neg	r19
     e5a:	21 95       	neg	r18
     e5c:	31 09       	sbc	r19, r1
     e5e:	cd 2b       	or	r28, r29
     e60:	a9 f4       	brne	.+42     	; 0xe8c <temperatur_to_string+0x72>
     e62:	3f 93       	push	r19
     e64:	2f 93       	push	r18
     e66:	1f 92       	push	r1
     e68:	1f 92       	push	r1
     e6a:	8a e0       	ldi	r24, 0x0A	; 10
     e6c:	92 e0       	ldi	r25, 0x02	; 2
     e6e:	9f 93       	push	r25
     e70:	8f 93       	push	r24
     e72:	0f 93       	push	r16
     e74:	1f 93       	push	r17
     e76:	0e 94 17 18 	call	0x302e	; 0x302e <sprintf>
     e7a:	8d b7       	in	r24, 0x3d	; 61
     e7c:	9e b7       	in	r25, 0x3e	; 62
     e7e:	08 96       	adiw	r24, 0x08	; 8
     e80:	0f b6       	in	r0, 0x3f	; 63
     e82:	f8 94       	cli
     e84:	9e bf       	out	0x3e, r25	; 62
     e86:	0f be       	out	0x3f, r0	; 63
     e88:	8d bf       	out	0x3d, r24	; 61
     e8a:	29 c0       	rjmp	.+82     	; 0xede <temperatur_to_string+0xc4>
     e8c:	3f 93       	push	r19
     e8e:	2f 93       	push	r18
     e90:	ef 92       	push	r14
     e92:	ff 92       	push	r15
     e94:	8b e0       	ldi	r24, 0x0B	; 11
     e96:	92 e0       	ldi	r25, 0x02	; 2
     e98:	9f 93       	push	r25
     e9a:	8f 93       	push	r24
     e9c:	0f 93       	push	r16
     e9e:	1f 93       	push	r17
     ea0:	0e 94 17 18 	call	0x302e	; 0x302e <sprintf>
     ea4:	8d b7       	in	r24, 0x3d	; 61
     ea6:	9e b7       	in	r25, 0x3e	; 62
     ea8:	08 96       	adiw	r24, 0x08	; 8
     eaa:	0f b6       	in	r0, 0x3f	; 63
     eac:	f8 94       	cli
     eae:	9e bf       	out	0x3e, r25	; 62
     eb0:	0f be       	out	0x3f, r0	; 63
     eb2:	8d bf       	out	0x3d, r24	; 61
     eb4:	14 c0       	rjmp	.+40     	; 0xede <temperatur_to_string+0xc4>
     eb6:	3f 93       	push	r19
     eb8:	2f 93       	push	r18
     eba:	ef 92       	push	r14
     ebc:	ff 92       	push	r15
     ebe:	8b e0       	ldi	r24, 0x0B	; 11
     ec0:	92 e0       	ldi	r25, 0x02	; 2
     ec2:	9f 93       	push	r25
     ec4:	8f 93       	push	r24
     ec6:	0f 93       	push	r16
     ec8:	1f 93       	push	r17
     eca:	0e 94 17 18 	call	0x302e	; 0x302e <sprintf>
     ece:	8d b7       	in	r24, 0x3d	; 61
     ed0:	9e b7       	in	r25, 0x3e	; 62
     ed2:	08 96       	adiw	r24, 0x08	; 8
     ed4:	0f b6       	in	r0, 0x3f	; 63
     ed6:	f8 94       	cli
     ed8:	9e bf       	out	0x3e, r25	; 62
     eda:	0f be       	out	0x3f, r0	; 63
     edc:	8d bf       	out	0x3d, r24	; 61
     ede:	df 91       	pop	r29
     ee0:	cf 91       	pop	r28
     ee2:	1f 91       	pop	r17
     ee4:	0f 91       	pop	r16
     ee6:	ff 90       	pop	r15
     ee8:	ef 90       	pop	r14
     eea:	08 95       	ret

00000eec <menue_zeiten_einstellen>:
     eec:	8f 92       	push	r8
     eee:	9f 92       	push	r9
     ef0:	af 92       	push	r10
     ef2:	bf 92       	push	r11
     ef4:	cf 92       	push	r12
     ef6:	df 92       	push	r13
     ef8:	ef 92       	push	r14
     efa:	ff 92       	push	r15
     efc:	0f 93       	push	r16
     efe:	1f 93       	push	r17
     f00:	cf 93       	push	r28
     f02:	df 93       	push	r29
     f04:	ec 01       	movw	r28, r24
     f06:	7b 01       	movw	r14, r22
     f08:	10 e0       	ldi	r17, 0x00	; 0
     f0a:	01 e0       	ldi	r16, 0x01	; 1
     f0c:	8b e3       	ldi	r24, 0x3B	; 59
     f0e:	98 2e       	mov	r9, r24
     f10:	97 e1       	ldi	r25, 0x17	; 23
     f12:	89 2e       	mov	r8, r25
     f14:	22 e1       	ldi	r18, 0x12	; 18
     f16:	c2 2e       	mov	r12, r18
     f18:	22 e0       	ldi	r18, 0x02	; 2
     f1a:	d2 2e       	mov	r13, r18
     f1c:	39 e0       	ldi	r19, 0x09	; 9
     f1e:	a3 2e       	mov	r10, r19
     f20:	34 e0       	ldi	r19, 0x04	; 4
     f22:	b3 2e       	mov	r11, r19
     f24:	8f e0       	ldi	r24, 0x0F	; 15
     f26:	0e 94 02 05 	call	0xa04	; 0xa04 <lcd_command>
     f2a:	61 2f       	mov	r22, r17
     f2c:	66 0f       	add	r22, r22
     f2e:	61 0f       	add	r22, r17
     f30:	6e 5f       	subi	r22, 0xFE	; 254
     f32:	83 e0       	ldi	r24, 0x03	; 3
     f34:	0e 94 57 04 	call	0x8ae	; 0x8ae <lcd_gotolr>
     f38:	88 e0       	ldi	r24, 0x08	; 8
     f3a:	0e 94 96 16 	call	0x2d2c	; 0x2d2c <get_key_short>
     f3e:	88 23       	and	r24, r24
     f40:	29 f0       	breq	.+10     	; 0xf4c <menue_zeiten_einstellen+0x60>
     f42:	12 30       	cpi	r17, 0x02	; 2
     f44:	09 f4       	brne	.+2      	; 0xf48 <menue_zeiten_einstellen+0x5c>
     f46:	e3 c0       	rjmp	.+454    	; 0x110e <menue_zeiten_einstellen+0x222>
     f48:	1f 5f       	subi	r17, 0xFF	; 255
     f4a:	3b c0       	rjmp	.+118    	; 0xfc2 <menue_zeiten_einstellen+0xd6>
     f4c:	82 e0       	ldi	r24, 0x02	; 2
     f4e:	0e 94 96 16 	call	0x2d2c	; 0x2d2c <get_key_short>
     f52:	88 23       	and	r24, r24
     f54:	21 f0       	breq	.+8      	; 0xf5e <menue_zeiten_einstellen+0x72>
     f56:	11 23       	and	r17, r17
     f58:	b9 f1       	breq	.+110    	; 0xfc8 <menue_zeiten_einstellen+0xdc>
     f5a:	11 50       	subi	r17, 0x01	; 1
     f5c:	32 c0       	rjmp	.+100    	; 0xfc2 <menue_zeiten_einstellen+0xd6>
     f5e:	80 e2       	ldi	r24, 0x20	; 32
     f60:	0e 94 80 16 	call	0x2d00	; 0x2d00 <get_key_press>
     f64:	81 11       	cpse	r24, r1
     f66:	c4 c0       	rjmp	.+392    	; 0x10f0 <menue_zeiten_einstellen+0x204>
     f68:	84 e0       	ldi	r24, 0x04	; 4
     f6a:	0e 94 80 16 	call	0x2d00	; 0x2d00 <get_key_press>
     f6e:	88 23       	and	r24, r24
     f70:	41 f1       	breq	.+80     	; 0xfc2 <menue_zeiten_einstellen+0xd6>
     f72:	8c e0       	ldi	r24, 0x0C	; 12
     f74:	0e 94 02 05 	call	0xa04	; 0xa04 <lcd_command>
     f78:	81 e0       	ldi	r24, 0x01	; 1
     f7a:	0e 94 02 05 	call	0xa04	; 0xa04 <lcd_command>
     f7e:	e1 14       	cp	r14, r1
     f80:	f1 04       	cpc	r15, r1
     f82:	49 f0       	breq	.+18     	; 0xf96 <menue_zeiten_einstellen+0xaa>
     f84:	f8 94       	cli
     f86:	47 e0       	ldi	r20, 0x07	; 7
     f88:	50 e0       	ldi	r21, 0x00	; 0
     f8a:	b7 01       	movw	r22, r14
     f8c:	ce 01       	movw	r24, r28
     f8e:	0e 94 f2 1a 	call	0x35e4	; 0x35e4 <eeprom_write_block>
     f92:	78 94       	sei
     f94:	03 c0       	rjmp	.+6      	; 0xf9c <menue_zeiten_einstellen+0xb0>
     f96:	ce 01       	movw	r24, r28
     f98:	0e 94 06 03 	call	0x60c	; 0x60c <set_ds1307_zeit>
     f9c:	47 e3       	ldi	r20, 0x37	; 55
     f9e:	52 e0       	ldi	r21, 0x02	; 2
     fa0:	61 e0       	ldi	r22, 0x01	; 1
     fa2:	81 e0       	ldi	r24, 0x01	; 1
     fa4:	0e 94 8d 04 	call	0x91a	; 0x91a <lcd_printlc>
     fa8:	2f ef       	ldi	r18, 0xFF	; 255
     faa:	89 e6       	ldi	r24, 0x69	; 105
     fac:	98 e1       	ldi	r25, 0x18	; 24
     fae:	21 50       	subi	r18, 0x01	; 1
     fb0:	80 40       	sbci	r24, 0x00	; 0
     fb2:	90 40       	sbci	r25, 0x00	; 0
     fb4:	e1 f7       	brne	.-8      	; 0xfae <menue_zeiten_einstellen+0xc2>
     fb6:	00 c0       	rjmp	.+0      	; 0xfb8 <menue_zeiten_einstellen+0xcc>
     fb8:	00 00       	nop
     fba:	81 e0       	ldi	r24, 0x01	; 1
     fbc:	0e 94 02 05 	call	0xa04	; 0xa04 <lcd_command>
     fc0:	97 c0       	rjmp	.+302    	; 0x10f0 <menue_zeiten_einstellen+0x204>
     fc2:	00 23       	and	r16, r16
     fc4:	11 f1       	breq	.+68     	; 0x100a <menue_zeiten_einstellen+0x11e>
     fc6:	04 c0       	rjmp	.+8      	; 0xfd0 <menue_zeiten_einstellen+0xe4>
     fc8:	00 23       	and	r16, r16
     fca:	09 f4       	brne	.+2      	; 0xfce <menue_zeiten_einstellen+0xe2>
     fcc:	69 c0       	rjmp	.+210    	; 0x10a0 <menue_zeiten_einstellen+0x1b4>
     fce:	12 e0       	ldi	r17, 0x02	; 2
     fd0:	89 81       	ldd	r24, Y+1	; 0x01
     fd2:	1f 92       	push	r1
     fd4:	8f 93       	push	r24
     fd6:	88 81       	ld	r24, Y
     fd8:	1f 92       	push	r1
     fda:	8f 93       	push	r24
     fdc:	8a 81       	ldd	r24, Y+2	; 0x02
     fde:	1f 92       	push	r1
     fe0:	8f 93       	push	r24
     fe2:	df 92       	push	r13
     fe4:	cf 92       	push	r12
     fe6:	bf 92       	push	r11
     fe8:	af 92       	push	r10
     fea:	0e 94 17 18 	call	0x302e	; 0x302e <sprintf>
     fee:	49 e0       	ldi	r20, 0x09	; 9
     ff0:	54 e0       	ldi	r21, 0x04	; 4
     ff2:	61 e0       	ldi	r22, 0x01	; 1
     ff4:	83 e0       	ldi	r24, 0x03	; 3
     ff6:	0e 94 d5 04 	call	0x9aa	; 0x9aa <lcd_printlr>
     ffa:	8d b7       	in	r24, 0x3d	; 61
     ffc:	9e b7       	in	r25, 0x3e	; 62
     ffe:	0a 96       	adiw	r24, 0x0a	; 10
    1000:	0f b6       	in	r0, 0x3f	; 63
    1002:	f8 94       	cli
    1004:	9e bf       	out	0x3e, r25	; 62
    1006:	0f be       	out	0x3f, r0	; 63
    1008:	8d bf       	out	0x3d, r24	; 61
    100a:	11 30       	cpi	r17, 0x01	; 1
    100c:	41 f1       	breq	.+80     	; 0x105e <menue_zeiten_einstellen+0x172>
    100e:	12 30       	cpi	r17, 0x02	; 2
    1010:	09 f4       	brne	.+2      	; 0x1014 <menue_zeiten_einstellen+0x128>
    1012:	46 c0       	rjmp	.+140    	; 0x10a0 <menue_zeiten_einstellen+0x1b4>
    1014:	81 e0       	ldi	r24, 0x01	; 1
    1016:	0e 94 80 16 	call	0x2d00	; 0x2d00 <get_key_press>
    101a:	18 2f       	mov	r17, r24
    101c:	81 e0       	ldi	r24, 0x01	; 1
    101e:	0e 94 8b 16 	call	0x2d16	; 0x2d16 <get_key_rpt>
    1022:	81 2b       	or	r24, r17
    1024:	39 f0       	breq	.+14     	; 0x1034 <menue_zeiten_einstellen+0x148>
    1026:	8a 81       	ldd	r24, Y+2	; 0x02
    1028:	87 31       	cpi	r24, 0x17	; 23
    102a:	11 f4       	brne	.+4      	; 0x1030 <menue_zeiten_einstellen+0x144>
    102c:	1a 82       	std	Y+2, r1	; 0x02
    102e:	15 c0       	rjmp	.+42     	; 0x105a <menue_zeiten_einstellen+0x16e>
    1030:	8f 5f       	subi	r24, 0xFF	; 255
    1032:	12 c0       	rjmp	.+36     	; 0x1058 <menue_zeiten_einstellen+0x16c>
    1034:	80 e1       	ldi	r24, 0x10	; 16
    1036:	0e 94 80 16 	call	0x2d00	; 0x2d00 <get_key_press>
    103a:	18 2f       	mov	r17, r24
    103c:	80 e1       	ldi	r24, 0x10	; 16
    103e:	0e 94 8b 16 	call	0x2d16	; 0x2d16 <get_key_rpt>
    1042:	81 2b       	or	r24, r17
    1044:	19 f4       	brne	.+6      	; 0x104c <menue_zeiten_einstellen+0x160>
    1046:	10 e0       	ldi	r17, 0x00	; 0
    1048:	00 e0       	ldi	r16, 0x00	; 0
    104a:	6c cf       	rjmp	.-296    	; 0xf24 <menue_zeiten_einstellen+0x38>
    104c:	8a 81       	ldd	r24, Y+2	; 0x02
    104e:	81 11       	cpse	r24, r1
    1050:	02 c0       	rjmp	.+4      	; 0x1056 <menue_zeiten_einstellen+0x16a>
    1052:	8a 82       	std	Y+2, r8	; 0x02
    1054:	02 c0       	rjmp	.+4      	; 0x105a <menue_zeiten_einstellen+0x16e>
    1056:	81 50       	subi	r24, 0x01	; 1
    1058:	8a 83       	std	Y+2, r24	; 0x02
    105a:	10 e0       	ldi	r17, 0x00	; 0
    105c:	47 c0       	rjmp	.+142    	; 0x10ec <menue_zeiten_einstellen+0x200>
    105e:	81 e0       	ldi	r24, 0x01	; 1
    1060:	0e 94 80 16 	call	0x2d00	; 0x2d00 <get_key_press>
    1064:	08 2f       	mov	r16, r24
    1066:	81 e0       	ldi	r24, 0x01	; 1
    1068:	0e 94 8b 16 	call	0x2d16	; 0x2d16 <get_key_rpt>
    106c:	80 2b       	or	r24, r16
    106e:	39 f0       	breq	.+14     	; 0x107e <menue_zeiten_einstellen+0x192>
    1070:	88 81       	ld	r24, Y
    1072:	8b 33       	cpi	r24, 0x3B	; 59
    1074:	11 f4       	brne	.+4      	; 0x107a <menue_zeiten_einstellen+0x18e>
    1076:	18 82       	st	Y, r1
    1078:	39 c0       	rjmp	.+114    	; 0x10ec <menue_zeiten_einstellen+0x200>
    107a:	8f 5f       	subi	r24, 0xFF	; 255
    107c:	0f c0       	rjmp	.+30     	; 0x109c <menue_zeiten_einstellen+0x1b0>
    107e:	80 e1       	ldi	r24, 0x10	; 16
    1080:	0e 94 80 16 	call	0x2d00	; 0x2d00 <get_key_press>
    1084:	08 2f       	mov	r16, r24
    1086:	80 e1       	ldi	r24, 0x10	; 16
    1088:	0e 94 8b 16 	call	0x2d16	; 0x2d16 <get_key_rpt>
    108c:	80 2b       	or	r24, r16
    108e:	e1 f2       	breq	.-72     	; 0x1048 <menue_zeiten_einstellen+0x15c>
    1090:	88 81       	ld	r24, Y
    1092:	81 11       	cpse	r24, r1
    1094:	02 c0       	rjmp	.+4      	; 0x109a <menue_zeiten_einstellen+0x1ae>
    1096:	98 82       	st	Y, r9
    1098:	29 c0       	rjmp	.+82     	; 0x10ec <menue_zeiten_einstellen+0x200>
    109a:	81 50       	subi	r24, 0x01	; 1
    109c:	88 83       	st	Y, r24
    109e:	26 c0       	rjmp	.+76     	; 0x10ec <menue_zeiten_einstellen+0x200>
    10a0:	81 e0       	ldi	r24, 0x01	; 1
    10a2:	0e 94 80 16 	call	0x2d00	; 0x2d00 <get_key_press>
    10a6:	18 2f       	mov	r17, r24
    10a8:	81 e0       	ldi	r24, 0x01	; 1
    10aa:	0e 94 8b 16 	call	0x2d16	; 0x2d16 <get_key_rpt>
    10ae:	81 2b       	or	r24, r17
    10b0:	49 f0       	breq	.+18     	; 0x10c4 <menue_zeiten_einstellen+0x1d8>
    10b2:	89 81       	ldd	r24, Y+1	; 0x01
    10b4:	8b 33       	cpi	r24, 0x3B	; 59
    10b6:	11 f4       	brne	.+4      	; 0x10bc <menue_zeiten_einstellen+0x1d0>
    10b8:	19 82       	std	Y+1, r1	; 0x01
    10ba:	02 c0       	rjmp	.+4      	; 0x10c0 <menue_zeiten_einstellen+0x1d4>
    10bc:	8f 5f       	subi	r24, 0xFF	; 255
    10be:	89 83       	std	Y+1, r24	; 0x01
    10c0:	01 e0       	ldi	r16, 0x01	; 1
    10c2:	01 c0       	rjmp	.+2      	; 0x10c6 <menue_zeiten_einstellen+0x1da>
    10c4:	00 e0       	ldi	r16, 0x00	; 0
    10c6:	80 e1       	ldi	r24, 0x10	; 16
    10c8:	0e 94 80 16 	call	0x2d00	; 0x2d00 <get_key_press>
    10cc:	18 2f       	mov	r17, r24
    10ce:	80 e1       	ldi	r24, 0x10	; 16
    10d0:	0e 94 8b 16 	call	0x2d16	; 0x2d16 <get_key_rpt>
    10d4:	81 2b       	or	r24, r17
    10d6:	11 f4       	brne	.+4      	; 0x10dc <menue_zeiten_einstellen+0x1f0>
    10d8:	12 e0       	ldi	r17, 0x02	; 2
    10da:	24 cf       	rjmp	.-440    	; 0xf24 <menue_zeiten_einstellen+0x38>
    10dc:	89 81       	ldd	r24, Y+1	; 0x01
    10de:	81 11       	cpse	r24, r1
    10e0:	02 c0       	rjmp	.+4      	; 0x10e6 <menue_zeiten_einstellen+0x1fa>
    10e2:	99 82       	std	Y+1, r9	; 0x01
    10e4:	02 c0       	rjmp	.+4      	; 0x10ea <menue_zeiten_einstellen+0x1fe>
    10e6:	81 50       	subi	r24, 0x01	; 1
    10e8:	89 83       	std	Y+1, r24	; 0x01
    10ea:	12 e0       	ldi	r17, 0x02	; 2
    10ec:	01 e0       	ldi	r16, 0x01	; 1
    10ee:	1a cf       	rjmp	.-460    	; 0xf24 <menue_zeiten_einstellen+0x38>
    10f0:	81 e0       	ldi	r24, 0x01	; 1
    10f2:	df 91       	pop	r29
    10f4:	cf 91       	pop	r28
    10f6:	1f 91       	pop	r17
    10f8:	0f 91       	pop	r16
    10fa:	ff 90       	pop	r15
    10fc:	ef 90       	pop	r14
    10fe:	df 90       	pop	r13
    1100:	cf 90       	pop	r12
    1102:	bf 90       	pop	r11
    1104:	af 90       	pop	r10
    1106:	9f 90       	pop	r9
    1108:	8f 90       	pop	r8
    110a:	0c 94 02 05 	jmp	0xa04	; 0xa04 <lcd_command>
    110e:	00 23       	and	r16, r16
    1110:	09 f4       	brne	.+2      	; 0x1114 <menue_zeiten_einstellen+0x228>
    1112:	80 cf       	rjmp	.-256    	; 0x1014 <menue_zeiten_einstellen+0x128>
    1114:	10 e0       	ldi	r17, 0x00	; 0
    1116:	5c cf       	rjmp	.-328    	; 0xfd0 <menue_zeiten_einstellen+0xe4>

00001118 <menue_datum_einstellen>:
    1118:	7f 92       	push	r7
    111a:	8f 92       	push	r8
    111c:	9f 92       	push	r9
    111e:	af 92       	push	r10
    1120:	bf 92       	push	r11
    1122:	cf 92       	push	r12
    1124:	df 92       	push	r13
    1126:	ef 92       	push	r14
    1128:	ff 92       	push	r15
    112a:	0f 93       	push	r16
    112c:	1f 93       	push	r17
    112e:	cf 93       	push	r28
    1130:	df 93       	push	r29
    1132:	ec 01       	movw	r28, r24
    1134:	8f e0       	ldi	r24, 0x0F	; 15
    1136:	0e 94 02 05 	call	0xa04	; 0xa04 <lcd_command>
    113a:	00 e0       	ldi	r16, 0x00	; 0
    113c:	11 e0       	ldi	r17, 0x01	; 1
    113e:	31 e2       	ldi	r19, 0x21	; 33
    1140:	e3 2e       	mov	r14, r19
    1142:	32 e0       	ldi	r19, 0x02	; 2
    1144:	f3 2e       	mov	r15, r19
    1146:	49 e0       	ldi	r20, 0x09	; 9
    1148:	c4 2e       	mov	r12, r20
    114a:	44 e0       	ldi	r20, 0x04	; 4
    114c:	d4 2e       	mov	r13, r20
    114e:	5c e0       	ldi	r21, 0x0C	; 12
    1150:	b5 2e       	mov	r11, r21
    1152:	63 e6       	ldi	r22, 0x63	; 99
    1154:	a6 2e       	mov	r10, r22
    1156:	7f e1       	ldi	r23, 0x1F	; 31
    1158:	97 2e       	mov	r9, r23
    115a:	e7 e0       	ldi	r30, 0x07	; 7
    115c:	8e 2e       	mov	r8, r30
    115e:	60 2f       	mov	r22, r16
    1160:	66 0f       	add	r22, r22
    1162:	60 0f       	add	r22, r16
    1164:	6e 5f       	subi	r22, 0xFE	; 254
    1166:	83 e0       	ldi	r24, 0x03	; 3
    1168:	0e 94 57 04 	call	0x8ae	; 0x8ae <lcd_gotolr>
    116c:	88 e0       	ldi	r24, 0x08	; 8
    116e:	0e 94 96 16 	call	0x2d2c	; 0x2d2c <get_key_short>
    1172:	88 23       	and	r24, r24
    1174:	21 f0       	breq	.+8      	; 0x117e <menue_datum_einstellen+0x66>
    1176:	03 30       	cpi	r16, 0x03	; 3
    1178:	89 f1       	breq	.+98     	; 0x11dc <menue_datum_einstellen+0xc4>
    117a:	0f 5f       	subi	r16, 0xFF	; 255
    117c:	32 c0       	rjmp	.+100    	; 0x11e2 <menue_datum_einstellen+0xca>
    117e:	82 e0       	ldi	r24, 0x02	; 2
    1180:	0e 94 96 16 	call	0x2d2c	; 0x2d2c <get_key_short>
    1184:	88 23       	and	r24, r24
    1186:	21 f0       	breq	.+8      	; 0x1190 <menue_datum_einstellen+0x78>
    1188:	00 23       	and	r16, r16
    118a:	51 f1       	breq	.+84     	; 0x11e0 <menue_datum_einstellen+0xc8>
    118c:	01 50       	subi	r16, 0x01	; 1
    118e:	29 c0       	rjmp	.+82     	; 0x11e2 <menue_datum_einstellen+0xca>
    1190:	80 e2       	ldi	r24, 0x20	; 32
    1192:	0e 94 80 16 	call	0x2d00	; 0x2d00 <get_key_press>
    1196:	81 11       	cpse	r24, r1
    1198:	f2 c0       	rjmp	.+484    	; 0x137e <menue_datum_einstellen+0x266>
    119a:	84 e0       	ldi	r24, 0x04	; 4
    119c:	0e 94 80 16 	call	0x2d00	; 0x2d00 <get_key_press>
    11a0:	88 23       	and	r24, r24
    11a2:	f9 f0       	breq	.+62     	; 0x11e2 <menue_datum_einstellen+0xca>
    11a4:	8c e0       	ldi	r24, 0x0C	; 12
    11a6:	0e 94 02 05 	call	0xa04	; 0xa04 <lcd_command>
    11aa:	81 e0       	ldi	r24, 0x01	; 1
    11ac:	0e 94 02 05 	call	0xa04	; 0xa04 <lcd_command>
    11b0:	ce 01       	movw	r24, r28
    11b2:	0e 94 48 03 	call	0x690	; 0x690 <set_ds1307_datum>
    11b6:	47 e3       	ldi	r20, 0x37	; 55
    11b8:	52 e0       	ldi	r21, 0x02	; 2
    11ba:	61 e0       	ldi	r22, 0x01	; 1
    11bc:	81 e0       	ldi	r24, 0x01	; 1
    11be:	0e 94 8d 04 	call	0x91a	; 0x91a <lcd_printlc>
    11c2:	2f ef       	ldi	r18, 0xFF	; 255
    11c4:	89 e6       	ldi	r24, 0x69	; 105
    11c6:	98 e1       	ldi	r25, 0x18	; 24
    11c8:	21 50       	subi	r18, 0x01	; 1
    11ca:	80 40       	sbci	r24, 0x00	; 0
    11cc:	90 40       	sbci	r25, 0x00	; 0
    11ce:	e1 f7       	brne	.-8      	; 0x11c8 <menue_datum_einstellen+0xb0>
    11d0:	00 c0       	rjmp	.+0      	; 0x11d2 <menue_datum_einstellen+0xba>
    11d2:	00 00       	nop
    11d4:	81 e0       	ldi	r24, 0x01	; 1
    11d6:	0e 94 02 05 	call	0xa04	; 0xa04 <lcd_command>
    11da:	d1 c0       	rjmp	.+418    	; 0x137e <menue_datum_einstellen+0x266>
    11dc:	00 e0       	ldi	r16, 0x00	; 0
    11de:	01 c0       	rjmp	.+2      	; 0x11e2 <menue_datum_einstellen+0xca>
    11e0:	03 e0       	ldi	r16, 0x03	; 3
    11e2:	11 23       	and	r17, r17
    11e4:	b1 f1       	breq	.+108    	; 0x1252 <menue_datum_einstellen+0x13a>
    11e6:	6c 81       	ldd	r22, Y+4	; 0x04
    11e8:	70 e0       	ldi	r23, 0x00	; 0
    11ea:	cb 01       	movw	r24, r22
    11ec:	88 0f       	add	r24, r24
    11ee:	99 1f       	adc	r25, r25
    11f0:	68 0f       	add	r22, r24
    11f2:	79 1f       	adc	r23, r25
    11f4:	6d 58       	subi	r22, 0x8D	; 141
    11f6:	7b 4f       	sbci	r23, 0xFB	; 251
    11f8:	87 eb       	ldi	r24, 0xB7	; 183
    11fa:	93 e0       	ldi	r25, 0x03	; 3
    11fc:	0e 94 d7 17 	call	0x2fae	; 0x2fae <strcpy_P>
    1200:	0e 94 44 04 	call	0x888	; 0x888 <lcd_print>
    1204:	47 eb       	ldi	r20, 0xB7	; 183
    1206:	53 e0       	ldi	r21, 0x03	; 3
    1208:	61 e0       	ldi	r22, 0x01	; 1
    120a:	83 e0       	ldi	r24, 0x03	; 3
    120c:	0e 94 d5 04 	call	0x9aa	; 0x9aa <lcd_printlr>
    1210:	86 e6       	ldi	r24, 0x66	; 102
    1212:	92 e0       	ldi	r25, 0x02	; 2
    1214:	0e 94 44 04 	call	0x888	; 0x888 <lcd_print>
    1218:	8e 81       	ldd	r24, Y+6	; 0x06
    121a:	1f 92       	push	r1
    121c:	8f 93       	push	r24
    121e:	8d 81       	ldd	r24, Y+5	; 0x05
    1220:	1f 92       	push	r1
    1222:	8f 93       	push	r24
    1224:	8b 81       	ldd	r24, Y+3	; 0x03
    1226:	1f 92       	push	r1
    1228:	8f 93       	push	r24
    122a:	ff 92       	push	r15
    122c:	ef 92       	push	r14
    122e:	df 92       	push	r13
    1230:	cf 92       	push	r12
    1232:	0e 94 17 18 	call	0x302e	; 0x302e <sprintf>
    1236:	49 e0       	ldi	r20, 0x09	; 9
    1238:	54 e0       	ldi	r21, 0x04	; 4
    123a:	64 e0       	ldi	r22, 0x04	; 4
    123c:	83 e0       	ldi	r24, 0x03	; 3
    123e:	0e 94 d5 04 	call	0x9aa	; 0x9aa <lcd_printlr>
    1242:	8d b7       	in	r24, 0x3d	; 61
    1244:	9e b7       	in	r25, 0x3e	; 62
    1246:	0a 96       	adiw	r24, 0x0a	; 10
    1248:	0f b6       	in	r0, 0x3f	; 63
    124a:	f8 94       	cli
    124c:	9e bf       	out	0x3e, r25	; 62
    124e:	0f be       	out	0x3f, r0	; 63
    1250:	8d bf       	out	0x3d, r24	; 61
    1252:	81 e0       	ldi	r24, 0x01	; 1
    1254:	02 30       	cpi	r16, 0x02	; 2
    1256:	09 f4       	brne	.+2      	; 0x125a <menue_datum_einstellen+0x142>
    1258:	49 c0       	rjmp	.+146    	; 0x12ec <menue_datum_einstellen+0x1d4>
    125a:	03 30       	cpi	r16, 0x03	; 3
    125c:	09 f4       	brne	.+2      	; 0x1260 <menue_datum_einstellen+0x148>
    125e:	6a c0       	rjmp	.+212    	; 0x1334 <menue_datum_einstellen+0x21c>
    1260:	01 30       	cpi	r16, 0x01	; 1
    1262:	21 f1       	breq	.+72     	; 0x12ac <menue_datum_einstellen+0x194>
    1264:	0e 94 80 16 	call	0x2d00	; 0x2d00 <get_key_press>
    1268:	18 2f       	mov	r17, r24
    126a:	81 e0       	ldi	r24, 0x01	; 1
    126c:	0e 94 8b 16 	call	0x2d16	; 0x2d16 <get_key_rpt>
    1270:	81 2b       	or	r24, r17
    1272:	39 f0       	breq	.+14     	; 0x1282 <menue_datum_einstellen+0x16a>
    1274:	8c 81       	ldd	r24, Y+4	; 0x04
    1276:	87 30       	cpi	r24, 0x07	; 7
    1278:	11 f4       	brne	.+4      	; 0x127e <menue_datum_einstellen+0x166>
    127a:	81 e0       	ldi	r24, 0x01	; 1
    127c:	14 c0       	rjmp	.+40     	; 0x12a6 <menue_datum_einstellen+0x18e>
    127e:	8f 5f       	subi	r24, 0xFF	; 255
    1280:	12 c0       	rjmp	.+36     	; 0x12a6 <menue_datum_einstellen+0x18e>
    1282:	80 e1       	ldi	r24, 0x10	; 16
    1284:	0e 94 80 16 	call	0x2d00	; 0x2d00 <get_key_press>
    1288:	18 2f       	mov	r17, r24
    128a:	80 e1       	ldi	r24, 0x10	; 16
    128c:	0e 94 8b 16 	call	0x2d16	; 0x2d16 <get_key_rpt>
    1290:	81 2b       	or	r24, r17
    1292:	19 f4       	brne	.+6      	; 0x129a <menue_datum_einstellen+0x182>
    1294:	00 e0       	ldi	r16, 0x00	; 0
    1296:	10 e0       	ldi	r17, 0x00	; 0
    1298:	62 cf       	rjmp	.-316    	; 0x115e <menue_datum_einstellen+0x46>
    129a:	8c 81       	ldd	r24, Y+4	; 0x04
    129c:	81 30       	cpi	r24, 0x01	; 1
    129e:	11 f4       	brne	.+4      	; 0x12a4 <menue_datum_einstellen+0x18c>
    12a0:	8c 82       	std	Y+4, r8	; 0x04
    12a2:	02 c0       	rjmp	.+4      	; 0x12a8 <menue_datum_einstellen+0x190>
    12a4:	81 50       	subi	r24, 0x01	; 1
    12a6:	8c 83       	std	Y+4, r24	; 0x04
    12a8:	00 e0       	ldi	r16, 0x00	; 0
    12aa:	67 c0       	rjmp	.+206    	; 0x137a <menue_datum_einstellen+0x262>
    12ac:	0e 94 80 16 	call	0x2d00	; 0x2d00 <get_key_press>
    12b0:	18 2f       	mov	r17, r24
    12b2:	81 e0       	ldi	r24, 0x01	; 1
    12b4:	0e 94 8b 16 	call	0x2d16	; 0x2d16 <get_key_rpt>
    12b8:	81 2b       	or	r24, r17
    12ba:	39 f0       	breq	.+14     	; 0x12ca <menue_datum_einstellen+0x1b2>
    12bc:	8b 81       	ldd	r24, Y+3	; 0x03
    12be:	8f 31       	cpi	r24, 0x1F	; 31
    12c0:	11 f4       	brne	.+4      	; 0x12c6 <menue_datum_einstellen+0x1ae>
    12c2:	0b 83       	std	Y+3, r16	; 0x03
    12c4:	5a c0       	rjmp	.+180    	; 0x137a <menue_datum_einstellen+0x262>
    12c6:	8f 5f       	subi	r24, 0xFF	; 255
    12c8:	0f c0       	rjmp	.+30     	; 0x12e8 <menue_datum_einstellen+0x1d0>
    12ca:	80 e1       	ldi	r24, 0x10	; 16
    12cc:	0e 94 80 16 	call	0x2d00	; 0x2d00 <get_key_press>
    12d0:	18 2f       	mov	r17, r24
    12d2:	80 e1       	ldi	r24, 0x10	; 16
    12d4:	0e 94 8b 16 	call	0x2d16	; 0x2d16 <get_key_rpt>
    12d8:	81 2b       	or	r24, r17
    12da:	e9 f2       	breq	.-70     	; 0x1296 <menue_datum_einstellen+0x17e>
    12dc:	8b 81       	ldd	r24, Y+3	; 0x03
    12de:	81 30       	cpi	r24, 0x01	; 1
    12e0:	11 f4       	brne	.+4      	; 0x12e6 <menue_datum_einstellen+0x1ce>
    12e2:	9b 82       	std	Y+3, r9	; 0x03
    12e4:	4a c0       	rjmp	.+148    	; 0x137a <menue_datum_einstellen+0x262>
    12e6:	81 50       	subi	r24, 0x01	; 1
    12e8:	8b 83       	std	Y+3, r24	; 0x03
    12ea:	47 c0       	rjmp	.+142    	; 0x137a <menue_datum_einstellen+0x262>
    12ec:	0e 94 80 16 	call	0x2d00	; 0x2d00 <get_key_press>
    12f0:	18 2f       	mov	r17, r24
    12f2:	81 e0       	ldi	r24, 0x01	; 1
    12f4:	0e 94 8b 16 	call	0x2d16	; 0x2d16 <get_key_rpt>
    12f8:	81 2b       	or	r24, r17
    12fa:	49 f0       	breq	.+18     	; 0x130e <menue_datum_einstellen+0x1f6>
    12fc:	8d 81       	ldd	r24, Y+5	; 0x05
    12fe:	8c 30       	cpi	r24, 0x0C	; 12
    1300:	11 f4       	brne	.+4      	; 0x1306 <menue_datum_einstellen+0x1ee>
    1302:	81 e0       	ldi	r24, 0x01	; 1
    1304:	01 c0       	rjmp	.+2      	; 0x1308 <menue_datum_einstellen+0x1f0>
    1306:	8f 5f       	subi	r24, 0xFF	; 255
    1308:	8d 83       	std	Y+5, r24	; 0x05
    130a:	11 e0       	ldi	r17, 0x01	; 1
    130c:	01 c0       	rjmp	.+2      	; 0x1310 <menue_datum_einstellen+0x1f8>
    130e:	10 e0       	ldi	r17, 0x00	; 0
    1310:	80 e1       	ldi	r24, 0x10	; 16
    1312:	0e 94 80 16 	call	0x2d00	; 0x2d00 <get_key_press>
    1316:	78 2e       	mov	r7, r24
    1318:	80 e1       	ldi	r24, 0x10	; 16
    131a:	0e 94 8b 16 	call	0x2d16	; 0x2d16 <get_key_rpt>
    131e:	87 29       	or	r24, r7
    1320:	09 f4       	brne	.+2      	; 0x1324 <menue_datum_einstellen+0x20c>
    1322:	1d cf       	rjmp	.-454    	; 0x115e <menue_datum_einstellen+0x46>
    1324:	8d 81       	ldd	r24, Y+5	; 0x05
    1326:	81 30       	cpi	r24, 0x01	; 1
    1328:	11 f4       	brne	.+4      	; 0x132e <menue_datum_einstellen+0x216>
    132a:	bd 82       	std	Y+5, r11	; 0x05
    132c:	26 c0       	rjmp	.+76     	; 0x137a <menue_datum_einstellen+0x262>
    132e:	81 50       	subi	r24, 0x01	; 1
    1330:	8d 83       	std	Y+5, r24	; 0x05
    1332:	23 c0       	rjmp	.+70     	; 0x137a <menue_datum_einstellen+0x262>
    1334:	0e 94 80 16 	call	0x2d00	; 0x2d00 <get_key_press>
    1338:	18 2f       	mov	r17, r24
    133a:	81 e0       	ldi	r24, 0x01	; 1
    133c:	0e 94 8b 16 	call	0x2d16	; 0x2d16 <get_key_rpt>
    1340:	81 2b       	or	r24, r17
    1342:	49 f0       	breq	.+18     	; 0x1356 <menue_datum_einstellen+0x23e>
    1344:	8e 81       	ldd	r24, Y+6	; 0x06
    1346:	83 36       	cpi	r24, 0x63	; 99
    1348:	11 f4       	brne	.+4      	; 0x134e <menue_datum_einstellen+0x236>
    134a:	1e 82       	std	Y+6, r1	; 0x06
    134c:	02 c0       	rjmp	.+4      	; 0x1352 <menue_datum_einstellen+0x23a>
    134e:	8f 5f       	subi	r24, 0xFF	; 255
    1350:	8e 83       	std	Y+6, r24	; 0x06
    1352:	11 e0       	ldi	r17, 0x01	; 1
    1354:	01 c0       	rjmp	.+2      	; 0x1358 <menue_datum_einstellen+0x240>
    1356:	10 e0       	ldi	r17, 0x00	; 0
    1358:	80 e1       	ldi	r24, 0x10	; 16
    135a:	0e 94 80 16 	call	0x2d00	; 0x2d00 <get_key_press>
    135e:	78 2e       	mov	r7, r24
    1360:	80 e1       	ldi	r24, 0x10	; 16
    1362:	0e 94 8b 16 	call	0x2d16	; 0x2d16 <get_key_rpt>
    1366:	87 29       	or	r24, r7
    1368:	09 f4       	brne	.+2      	; 0x136c <menue_datum_einstellen+0x254>
    136a:	f9 ce       	rjmp	.-526    	; 0x115e <menue_datum_einstellen+0x46>
    136c:	8e 81       	ldd	r24, Y+6	; 0x06
    136e:	81 11       	cpse	r24, r1
    1370:	02 c0       	rjmp	.+4      	; 0x1376 <menue_datum_einstellen+0x25e>
    1372:	ae 82       	std	Y+6, r10	; 0x06
    1374:	02 c0       	rjmp	.+4      	; 0x137a <menue_datum_einstellen+0x262>
    1376:	81 50       	subi	r24, 0x01	; 1
    1378:	8e 83       	std	Y+6, r24	; 0x06
    137a:	11 e0       	ldi	r17, 0x01	; 1
    137c:	f0 ce       	rjmp	.-544    	; 0x115e <menue_datum_einstellen+0x46>
    137e:	81 e0       	ldi	r24, 0x01	; 1
    1380:	df 91       	pop	r29
    1382:	cf 91       	pop	r28
    1384:	1f 91       	pop	r17
    1386:	0f 91       	pop	r16
    1388:	ff 90       	pop	r15
    138a:	ef 90       	pop	r14
    138c:	df 90       	pop	r13
    138e:	cf 90       	pop	r12
    1390:	bf 90       	pop	r11
    1392:	af 90       	pop	r10
    1394:	9f 90       	pop	r9
    1396:	8f 90       	pop	r8
    1398:	7f 90       	pop	r7
    139a:	0c 94 02 05 	jmp	0xa04	; 0xa04 <lcd_command>

0000139e <menue_temperatur_offset>:
    139e:	8f 92       	push	r8
    13a0:	9f 92       	push	r9
    13a2:	bf 92       	push	r11
    13a4:	cf 92       	push	r12
    13a6:	df 92       	push	r13
    13a8:	ef 92       	push	r14
    13aa:	ff 92       	push	r15
    13ac:	0f 93       	push	r16
    13ae:	1f 93       	push	r17
    13b0:	cf 93       	push	r28
    13b2:	df 93       	push	r29
    13b4:	ec 01       	movw	r28, r24
    13b6:	b6 2e       	mov	r11, r22
    13b8:	e4 2e       	mov	r14, r20
    13ba:	69 01       	movw	r12, r18
    13bc:	08 81       	ld	r16, Y
    13be:	47 e4       	ldi	r20, 0x47	; 71
    13c0:	52 e0       	ldi	r21, 0x02	; 2
    13c2:	61 e0       	ldi	r22, 0x01	; 1
    13c4:	81 e0       	ldi	r24, 0x01	; 1
    13c6:	0e 94 8d 04 	call	0x91a	; 0x91a <lcd_printlc>
    13ca:	f1 2c       	mov	r15, r1
    13cc:	8b 2d       	mov	r24, r11
    13ce:	0e 94 c7 06 	call	0xd8e	; 0xd8e <get_lm76_temperatur>
    13d2:	4c 01       	movw	r8, r24
    13d4:	69 e0       	ldi	r22, 0x09	; 9
    13d6:	74 e0       	ldi	r23, 0x04	; 4
    13d8:	0e 94 0d 07 	call	0xe1a	; 0xe1a <temperatur_to_string>
    13dc:	4a e5       	ldi	r20, 0x5A	; 90
    13de:	52 e0       	ldi	r21, 0x02	; 2
    13e0:	61 e0       	ldi	r22, 0x01	; 1
    13e2:	82 e0       	ldi	r24, 0x02	; 2
    13e4:	0e 94 8d 04 	call	0x91a	; 0x91a <lcd_printlc>
    13e8:	4a e0       	ldi	r20, 0x0A	; 10
    13ea:	50 e0       	ldi	r21, 0x00	; 0
    13ec:	6f e2       	ldi	r22, 0x2F	; 47
    13ee:	74 e0       	ldi	r23, 0x04	; 4
    13f0:	c7 01       	movw	r24, r14
    13f2:	0e 94 e7 17 	call	0x2fce	; 0x2fce <itoa>
    13f6:	8f e2       	ldi	r24, 0x2F	; 47
    13f8:	94 e0       	ldi	r25, 0x04	; 4
    13fa:	0e 94 44 04 	call	0x888	; 0x888 <lcd_print>
    13fe:	80 e6       	ldi	r24, 0x60	; 96
    1400:	92 e0       	ldi	r25, 0x02	; 2
    1402:	0e 94 44 04 	call	0x888	; 0x888 <lcd_print>
    1406:	89 e0       	ldi	r24, 0x09	; 9
    1408:	94 e0       	ldi	r25, 0x04	; 4
    140a:	0e 94 44 04 	call	0x888	; 0x888 <lcd_print>
    140e:	48 e6       	ldi	r20, 0x68	; 104
    1410:	52 e0       	ldi	r21, 0x02	; 2
    1412:	61 e0       	ldi	r22, 0x01	; 1
    1414:	83 e0       	ldi	r24, 0x03	; 3
    1416:	0e 94 8d 04 	call	0x91a	; 0x91a <lcd_printlc>
    141a:	88 81       	ld	r24, Y
    141c:	69 e0       	ldi	r22, 0x09	; 9
    141e:	74 e0       	ldi	r23, 0x04	; 4
    1420:	94 01       	movw	r18, r8
    1422:	28 0f       	add	r18, r24
    1424:	31 1d       	adc	r19, r1
    1426:	87 fd       	sbrc	r24, 7
    1428:	3a 95       	dec	r19
    142a:	c9 01       	movw	r24, r18
    142c:	0e 94 0d 07 	call	0xe1a	; 0xe1a <temperatur_to_string>
    1430:	89 e0       	ldi	r24, 0x09	; 9
    1432:	94 e0       	ldi	r25, 0x04	; 4
    1434:	0e 94 44 04 	call	0x888	; 0x888 <lcd_print>
    1438:	88 81       	ld	r24, Y
    143a:	69 e0       	ldi	r22, 0x09	; 9
    143c:	74 e0       	ldi	r23, 0x04	; 4
    143e:	08 2e       	mov	r0, r24
    1440:	00 0c       	add	r0, r0
    1442:	99 0b       	sbc	r25, r25
    1444:	0e 94 0d 07 	call	0xe1a	; 0xe1a <temperatur_to_string>
    1448:	46 e7       	ldi	r20, 0x76	; 118
    144a:	52 e0       	ldi	r21, 0x02	; 2
    144c:	61 e0       	ldi	r22, 0x01	; 1
    144e:	84 e0       	ldi	r24, 0x04	; 4
    1450:	0e 94 8d 04 	call	0x91a	; 0x91a <lcd_printlc>
    1454:	89 e0       	ldi	r24, 0x09	; 9
    1456:	94 e0       	ldi	r25, 0x04	; 4
    1458:	0e 94 44 04 	call	0x888	; 0x888 <lcd_print>
    145c:	85 e6       	ldi	r24, 0x65	; 101
    145e:	92 e0       	ldi	r25, 0x02	; 2
    1460:	0e 94 44 04 	call	0x888	; 0x888 <lcd_print>
    1464:	81 e0       	ldi	r24, 0x01	; 1
    1466:	0e 94 80 16 	call	0x2d00	; 0x2d00 <get_key_press>
    146a:	18 2f       	mov	r17, r24
    146c:	81 e0       	ldi	r24, 0x01	; 1
    146e:	0e 94 8b 16 	call	0x2d16	; 0x2d16 <get_key_rpt>
    1472:	81 2b       	or	r24, r17
    1474:	19 f0       	breq	.+6      	; 0x147c <menue_temperatur_offset+0xde>
    1476:	88 81       	ld	r24, Y
    1478:	8e 5f       	subi	r24, 0xFE	; 254
    147a:	88 83       	st	Y, r24
    147c:	80 e1       	ldi	r24, 0x10	; 16
    147e:	0e 94 80 16 	call	0x2d00	; 0x2d00 <get_key_press>
    1482:	18 2f       	mov	r17, r24
    1484:	80 e1       	ldi	r24, 0x10	; 16
    1486:	0e 94 8b 16 	call	0x2d16	; 0x2d16 <get_key_rpt>
    148a:	81 2b       	or	r24, r17
    148c:	19 f0       	breq	.+6      	; 0x1494 <menue_temperatur_offset+0xf6>
    148e:	88 81       	ld	r24, Y
    1490:	82 50       	subi	r24, 0x02	; 2
    1492:	88 83       	st	Y, r24
    1494:	84 e0       	ldi	r24, 0x04	; 4
    1496:	0e 94 80 16 	call	0x2d00	; 0x2d00 <get_key_press>
    149a:	18 2f       	mov	r17, r24
    149c:	84 e0       	ldi	r24, 0x04	; 4
    149e:	0e 94 8b 16 	call	0x2d16	; 0x2d16 <get_key_rpt>
    14a2:	81 2b       	or	r24, r17
    14a4:	31 f1       	breq	.+76     	; 0x14f2 <menue_temperatur_offset+0x154>
    14a6:	81 e0       	ldi	r24, 0x01	; 1
    14a8:	0e 94 02 05 	call	0xa04	; 0xa04 <lcd_command>
    14ac:	47 e3       	ldi	r20, 0x37	; 55
    14ae:	52 e0       	ldi	r21, 0x02	; 2
    14b0:	61 e0       	ldi	r22, 0x01	; 1
    14b2:	81 e0       	ldi	r24, 0x01	; 1
    14b4:	0e 94 8d 04 	call	0x91a	; 0x91a <lcd_printlc>
    14b8:	f8 94       	cli
    14ba:	68 81       	ld	r22, Y
    14bc:	c6 01       	movw	r24, r12
    14be:	0e 94 fc 1a 	call	0x35f8	; 0x35f8 <eeprom_write_byte>
    14c2:	78 94       	sei
    14c4:	3f ef       	ldi	r19, 0xFF	; 255
    14c6:	89 e6       	ldi	r24, 0x69	; 105
    14c8:	98 e1       	ldi	r25, 0x18	; 24
    14ca:	31 50       	subi	r19, 0x01	; 1
    14cc:	80 40       	sbci	r24, 0x00	; 0
    14ce:	90 40       	sbci	r25, 0x00	; 0
    14d0:	e1 f7       	brne	.-8      	; 0x14ca <menue_temperatur_offset+0x12c>
    14d2:	00 c0       	rjmp	.+0      	; 0x14d4 <menue_temperatur_offset+0x136>
    14d4:	00 00       	nop
    14d6:	81 e0       	ldi	r24, 0x01	; 1
    14d8:	df 91       	pop	r29
    14da:	cf 91       	pop	r28
    14dc:	1f 91       	pop	r17
    14de:	0f 91       	pop	r16
    14e0:	ff 90       	pop	r15
    14e2:	ef 90       	pop	r14
    14e4:	df 90       	pop	r13
    14e6:	cf 90       	pop	r12
    14e8:	bf 90       	pop	r11
    14ea:	9f 90       	pop	r9
    14ec:	8f 90       	pop	r8
    14ee:	0c 94 02 05 	jmp	0xa04	; 0xa04 <lcd_command>
    14f2:	80 e2       	ldi	r24, 0x20	; 32
    14f4:	0e 94 80 16 	call	0x2d00	; 0x2d00 <get_key_press>
    14f8:	18 2f       	mov	r17, r24
    14fa:	80 e2       	ldi	r24, 0x20	; 32
    14fc:	0e 94 8b 16 	call	0x2d16	; 0x2d16 <get_key_rpt>
    1500:	81 2b       	or	r24, r17
    1502:	09 f4       	brne	.+2      	; 0x1506 <menue_temperatur_offset+0x168>
    1504:	63 cf       	rjmp	.-314    	; 0x13cc <menue_temperatur_offset+0x2e>
    1506:	08 83       	st	Y, r16
    1508:	df 91       	pop	r29
    150a:	cf 91       	pop	r28
    150c:	1f 91       	pop	r17
    150e:	0f 91       	pop	r16
    1510:	ff 90       	pop	r15
    1512:	ef 90       	pop	r14
    1514:	df 90       	pop	r13
    1516:	cf 90       	pop	r12
    1518:	bf 90       	pop	r11
    151a:	9f 90       	pop	r9
    151c:	8f 90       	pop	r8
    151e:	08 95       	ret

00001520 <menue_schalttemperaturen_einstellen>:
    1520:	6f 92       	push	r6
    1522:	7f 92       	push	r7
    1524:	8f 92       	push	r8
    1526:	9f 92       	push	r9
    1528:	af 92       	push	r10
    152a:	bf 92       	push	r11
    152c:	cf 92       	push	r12
    152e:	df 92       	push	r13
    1530:	ef 92       	push	r14
    1532:	ff 92       	push	r15
    1534:	0f 93       	push	r16
    1536:	1f 93       	push	r17
    1538:	cf 93       	push	r28
    153a:	df 93       	push	r29
    153c:	cd b7       	in	r28, 0x3d	; 61
    153e:	de b7       	in	r29, 0x3e	; 62
    1540:	2d 97       	sbiw	r28, 0x0d	; 13
    1542:	0f b6       	in	r0, 0x3f	; 63
    1544:	f8 94       	cli
    1546:	de bf       	out	0x3e, r29	; 62
    1548:	0f be       	out	0x3f, r0	; 63
    154a:	cd bf       	out	0x3d, r28	; 61
    154c:	3c 01       	movw	r6, r24
    154e:	4b 01       	movw	r8, r22
    1550:	6a 01       	movw	r12, r20
    1552:	79 01       	movw	r14, r18
    1554:	58 01       	movw	r10, r16
    1556:	96 e0       	ldi	r25, 0x06	; 6
    1558:	f9 01       	movw	r30, r18
    155a:	de 01       	movw	r26, r28
    155c:	18 96       	adiw	r26, 0x08	; 8
    155e:	01 90       	ld	r0, Z+
    1560:	0d 92       	st	X+, r0
    1562:	9a 95       	dec	r25
    1564:	e1 f7       	brne	.-8      	; 0x155e <menue_schalttemperaturen_einstellen+0x3e>
    1566:	19 82       	std	Y+1, r1	; 0x01
    1568:	a3 01       	movw	r20, r6
    156a:	61 e0       	ldi	r22, 0x01	; 1
    156c:	82 e0       	ldi	r24, 0x02	; 2
    156e:	0e 94 8d 04 	call	0x91a	; 0x91a <lcd_printlc>
    1572:	a4 01       	movw	r20, r8
    1574:	61 e0       	ldi	r22, 0x01	; 1
    1576:	83 e0       	ldi	r24, 0x03	; 3
    1578:	0e 94 8d 04 	call	0x91a	; 0x91a <lcd_printlc>
    157c:	a6 01       	movw	r20, r12
    157e:	61 e0       	ldi	r22, 0x01	; 1
    1580:	84 e0       	ldi	r24, 0x04	; 4
    1582:	0e 94 8d 04 	call	0x91a	; 0x91a <lcd_printlc>
    1586:	12 e0       	ldi	r17, 0x02	; 2
    1588:	01 e0       	ldi	r16, 0x01	; 1
    158a:	88 e5       	ldi	r24, 0x58	; 88
    158c:	c8 2e       	mov	r12, r24
    158e:	82 e0       	ldi	r24, 0x02	; 2
    1590:	d8 2e       	mov	r13, r24
    1592:	61 e1       	ldi	r22, 0x11	; 17
    1594:	81 2f       	mov	r24, r17
    1596:	0e 94 57 04 	call	0x8ae	; 0x8ae <lcd_gotolr>
    159a:	8f e0       	ldi	r24, 0x0F	; 15
    159c:	0e 94 02 05 	call	0xa04	; 0xa04 <lcd_command>
    15a0:	88 e0       	ldi	r24, 0x08	; 8
    15a2:	0e 94 96 16 	call	0x2d2c	; 0x2d2c <get_key_short>
    15a6:	88 23       	and	r24, r24
    15a8:	21 f0       	breq	.+8      	; 0x15b2 <menue_schalttemperaturen_einstellen+0x92>
    15aa:	13 30       	cpi	r17, 0x03	; 3
    15ac:	09 f0       	breq	.+2      	; 0x15b0 <menue_schalttemperaturen_einstellen+0x90>
    15ae:	42 c0       	rjmp	.+132    	; 0x1634 <menue_schalttemperaturen_einstellen+0x114>
    15b0:	e4 c0       	rjmp	.+456    	; 0x177a <menue_schalttemperaturen_einstellen+0x25a>
    15b2:	82 e0       	ldi	r24, 0x02	; 2
    15b4:	0e 94 96 16 	call	0x2d2c	; 0x2d2c <get_key_short>
    15b8:	88 23       	and	r24, r24
    15ba:	21 f0       	breq	.+8      	; 0x15c4 <menue_schalttemperaturen_einstellen+0xa4>
    15bc:	12 30       	cpi	r17, 0x02	; 2
    15be:	09 f0       	breq	.+2      	; 0x15c2 <menue_schalttemperaturen_einstellen+0xa2>
    15c0:	dc c0       	rjmp	.+440    	; 0x177a <menue_schalttemperaturen_einstellen+0x25a>
    15c2:	38 c0       	rjmp	.+112    	; 0x1634 <menue_schalttemperaturen_einstellen+0x114>
    15c4:	84 e0       	ldi	r24, 0x04	; 4
    15c6:	0e 94 80 16 	call	0x2d00	; 0x2d00 <get_key_press>
    15ca:	88 23       	and	r24, r24
    15cc:	09 f1       	breq	.+66     	; 0x1610 <menue_schalttemperaturen_einstellen+0xf0>
    15ce:	8c e0       	ldi	r24, 0x0C	; 12
    15d0:	0e 94 02 05 	call	0xa04	; 0xa04 <lcd_command>
    15d4:	81 e0       	ldi	r24, 0x01	; 1
    15d6:	0e 94 02 05 	call	0xa04	; 0xa04 <lcd_command>
    15da:	47 e3       	ldi	r20, 0x37	; 55
    15dc:	52 e0       	ldi	r21, 0x02	; 2
    15de:	61 e0       	ldi	r22, 0x01	; 1
    15e0:	81 e0       	ldi	r24, 0x01	; 1
    15e2:	0e 94 8d 04 	call	0x91a	; 0x91a <lcd_printlc>
    15e6:	f8 94       	cli
    15e8:	46 e0       	ldi	r20, 0x06	; 6
    15ea:	50 e0       	ldi	r21, 0x00	; 0
    15ec:	b5 01       	movw	r22, r10
    15ee:	c7 01       	movw	r24, r14
    15f0:	0e 94 f2 1a 	call	0x35e4	; 0x35e4 <eeprom_write_block>
    15f4:	78 94       	sei
    15f6:	2f ef       	ldi	r18, 0xFF	; 255
    15f8:	49 e6       	ldi	r20, 0x69	; 105
    15fa:	58 e1       	ldi	r21, 0x18	; 24
    15fc:	21 50       	subi	r18, 0x01	; 1
    15fe:	40 40       	sbci	r20, 0x00	; 0
    1600:	50 40       	sbci	r21, 0x00	; 0
    1602:	e1 f7       	brne	.-8      	; 0x15fc <menue_schalttemperaturen_einstellen+0xdc>
    1604:	00 c0       	rjmp	.+0      	; 0x1606 <menue_schalttemperaturen_einstellen+0xe6>
    1606:	00 00       	nop
    1608:	81 e0       	ldi	r24, 0x01	; 1
    160a:	0e 94 02 05 	call	0xa04	; 0xa04 <lcd_command>
    160e:	ba c0       	rjmp	.+372    	; 0x1784 <menue_schalttemperaturen_einstellen+0x264>
    1610:	80 e2       	ldi	r24, 0x20	; 32
    1612:	0e 94 80 16 	call	0x2d00	; 0x2d00 <get_key_press>
    1616:	88 23       	and	r24, r24
    1618:	49 f0       	breq	.+18     	; 0x162c <menue_schalttemperaturen_einstellen+0x10c>
    161a:	86 e0       	ldi	r24, 0x06	; 6
    161c:	fe 01       	movw	r30, r28
    161e:	38 96       	adiw	r30, 0x08	; 8
    1620:	d7 01       	movw	r26, r14
    1622:	01 90       	ld	r0, Z+
    1624:	0d 92       	st	X+, r0
    1626:	8a 95       	dec	r24
    1628:	e1 f7       	brne	.-8      	; 0x1622 <menue_schalttemperaturen_einstellen+0x102>
    162a:	ac c0       	rjmp	.+344    	; 0x1784 <menue_schalttemperaturen_einstellen+0x264>
    162c:	00 23       	and	r16, r16
    162e:	09 f4       	brne	.+2      	; 0x1632 <menue_schalttemperaturen_einstellen+0x112>
    1630:	42 c0       	rjmp	.+132    	; 0x16b6 <menue_schalttemperaturen_einstellen+0x196>
    1632:	04 c0       	rjmp	.+8      	; 0x163c <menue_schalttemperaturen_einstellen+0x11c>
    1634:	00 23       	and	r16, r16
    1636:	09 f4       	brne	.+2      	; 0x163a <menue_schalttemperaturen_einstellen+0x11a>
    1638:	61 c0       	rjmp	.+194    	; 0x16fc <menue_schalttemperaturen_einstellen+0x1dc>
    163a:	13 e0       	ldi	r17, 0x03	; 3
    163c:	be 01       	movw	r22, r28
    163e:	6f 5f       	subi	r22, 0xFF	; 255
    1640:	7f 4f       	sbci	r23, 0xFF	; 255
    1642:	f7 01       	movw	r30, r14
    1644:	80 81       	ld	r24, Z
    1646:	91 81       	ldd	r25, Z+1	; 0x01
    1648:	0e 94 0d 07 	call	0xe1a	; 0xe1a <temperatur_to_string>
    164c:	ae 01       	movw	r20, r28
    164e:	4f 5f       	subi	r20, 0xFF	; 255
    1650:	5f 4f       	sbci	r21, 0xFF	; 255
    1652:	6e e0       	ldi	r22, 0x0E	; 14
    1654:	82 e0       	ldi	r24, 0x02	; 2
    1656:	0e 94 8d 04 	call	0x91a	; 0x91a <lcd_printlc>
    165a:	be 01       	movw	r22, r28
    165c:	6f 5f       	subi	r22, 0xFF	; 255
    165e:	7f 4f       	sbci	r23, 0xFF	; 255
    1660:	f7 01       	movw	r30, r14
    1662:	82 81       	ldd	r24, Z+2	; 0x02
    1664:	93 81       	ldd	r25, Z+3	; 0x03
    1666:	0e 94 0d 07 	call	0xe1a	; 0xe1a <temperatur_to_string>
    166a:	ae 01       	movw	r20, r28
    166c:	4f 5f       	subi	r20, 0xFF	; 255
    166e:	5f 4f       	sbci	r21, 0xFF	; 255
    1670:	6e e0       	ldi	r22, 0x0E	; 14
    1672:	83 e0       	ldi	r24, 0x03	; 3
    1674:	0e 94 8d 04 	call	0x91a	; 0x91a <lcd_printlc>
    1678:	f7 01       	movw	r30, r14
    167a:	80 81       	ld	r24, Z
    167c:	91 81       	ldd	r25, Z+1	; 0x01
    167e:	22 81       	ldd	r18, Z+2	; 0x02
    1680:	33 81       	ldd	r19, Z+3	; 0x03
    1682:	be 01       	movw	r22, r28
    1684:	6f 5f       	subi	r22, 0xFF	; 255
    1686:	7f 4f       	sbci	r23, 0xFF	; 255
    1688:	82 17       	cp	r24, r18
    168a:	93 07       	cpc	r25, r19
    168c:	1c f0       	brlt	.+6      	; 0x1694 <menue_schalttemperaturen_einstellen+0x174>
    168e:	82 1b       	sub	r24, r18
    1690:	93 0b       	sbc	r25, r19
    1692:	04 c0       	rjmp	.+8      	; 0x169c <menue_schalttemperaturen_einstellen+0x17c>
    1694:	a9 01       	movw	r20, r18
    1696:	48 1b       	sub	r20, r24
    1698:	59 0b       	sbc	r21, r25
    169a:	ca 01       	movw	r24, r20
    169c:	0e 94 0d 07 	call	0xe1a	; 0xe1a <temperatur_to_string>
    16a0:	ae 01       	movw	r20, r28
    16a2:	4f 5f       	subi	r20, 0xFF	; 255
    16a4:	5f 4f       	sbci	r21, 0xFF	; 255
    16a6:	6e e0       	ldi	r22, 0x0E	; 14
    16a8:	84 e0       	ldi	r24, 0x04	; 4
    16aa:	0e 94 8d 04 	call	0x91a	; 0x91a <lcd_printlc>
    16ae:	86 e6       	ldi	r24, 0x66	; 102
    16b0:	92 e0       	ldi	r25, 0x02	; 2
    16b2:	0e 94 44 04 	call	0x888	; 0x888 <lcd_print>
    16b6:	13 30       	cpi	r17, 0x03	; 3
    16b8:	09 f1       	breq	.+66     	; 0x16fc <menue_schalttemperaturen_einstellen+0x1dc>
    16ba:	81 e0       	ldi	r24, 0x01	; 1
    16bc:	0e 94 80 16 	call	0x2d00	; 0x2d00 <get_key_press>
    16c0:	18 2f       	mov	r17, r24
    16c2:	81 e0       	ldi	r24, 0x01	; 1
    16c4:	0e 94 8b 16 	call	0x2d16	; 0x2d16 <get_key_rpt>
    16c8:	81 2b       	or	r24, r17
    16ca:	69 f0       	breq	.+26     	; 0x16e6 <menue_schalttemperaturen_einstellen+0x1c6>
    16cc:	f7 01       	movw	r30, r14
    16ce:	80 81       	ld	r24, Z
    16d0:	91 81       	ldd	r25, Z+1	; 0x01
    16d2:	88 35       	cpi	r24, 0x58	; 88
    16d4:	f2 e0       	ldi	r31, 0x02	; 2
    16d6:	9f 07       	cpc	r25, r31
    16d8:	21 f4       	brne	.+8      	; 0x16e2 <menue_schalttemperaturen_einstellen+0x1c2>
    16da:	f7 01       	movw	r30, r14
    16dc:	11 82       	std	Z+1, r1	; 0x01
    16de:	10 82       	st	Z, r1
    16e0:	2e c0       	rjmp	.+92     	; 0x173e <menue_schalttemperaturen_einstellen+0x21e>
    16e2:	01 96       	adiw	r24, 0x01	; 1
    16e4:	29 c0       	rjmp	.+82     	; 0x1738 <menue_schalttemperaturen_einstellen+0x218>
    16e6:	80 e1       	ldi	r24, 0x10	; 16
    16e8:	0e 94 80 16 	call	0x2d00	; 0x2d00 <get_key_press>
    16ec:	18 2f       	mov	r17, r24
    16ee:	80 e1       	ldi	r24, 0x10	; 16
    16f0:	0e 94 8b 16 	call	0x2d16	; 0x2d16 <get_key_rpt>
    16f4:	81 2b       	or	r24, r17
    16f6:	b9 f4       	brne	.+46     	; 0x1726 <menue_schalttemperaturen_einstellen+0x206>
    16f8:	12 e0       	ldi	r17, 0x02	; 2
    16fa:	13 c0       	rjmp	.+38     	; 0x1722 <menue_schalttemperaturen_einstellen+0x202>
    16fc:	81 e0       	ldi	r24, 0x01	; 1
    16fe:	0e 94 80 16 	call	0x2d00	; 0x2d00 <get_key_press>
    1702:	18 2f       	mov	r17, r24
    1704:	81 e0       	ldi	r24, 0x01	; 1
    1706:	0e 94 8b 16 	call	0x2d16	; 0x2d16 <get_key_rpt>
    170a:	81 2b       	or	r24, r17
    170c:	d1 f4       	brne	.+52     	; 0x1742 <menue_schalttemperaturen_einstellen+0x222>
    170e:	80 e1       	ldi	r24, 0x10	; 16
    1710:	0e 94 80 16 	call	0x2d00	; 0x2d00 <get_key_press>
    1714:	18 2f       	mov	r17, r24
    1716:	80 e1       	ldi	r24, 0x10	; 16
    1718:	0e 94 8b 16 	call	0x2d16	; 0x2d16 <get_key_rpt>
    171c:	81 2b       	or	r24, r17
    171e:	f1 f4       	brne	.+60     	; 0x175c <menue_schalttemperaturen_einstellen+0x23c>
    1720:	13 e0       	ldi	r17, 0x03	; 3
    1722:	00 e0       	ldi	r16, 0x00	; 0
    1724:	36 cf       	rjmp	.-404    	; 0x1592 <menue_schalttemperaturen_einstellen+0x72>
    1726:	f7 01       	movw	r30, r14
    1728:	80 81       	ld	r24, Z
    172a:	91 81       	ldd	r25, Z+1	; 0x01
    172c:	00 97       	sbiw	r24, 0x00	; 0
    172e:	19 f4       	brne	.+6      	; 0x1736 <menue_schalttemperaturen_einstellen+0x216>
    1730:	d1 82       	std	Z+1, r13	; 0x01
    1732:	c0 82       	st	Z, r12
    1734:	04 c0       	rjmp	.+8      	; 0x173e <menue_schalttemperaturen_einstellen+0x21e>
    1736:	01 97       	sbiw	r24, 0x01	; 1
    1738:	f7 01       	movw	r30, r14
    173a:	91 83       	std	Z+1, r25	; 0x01
    173c:	80 83       	st	Z, r24
    173e:	12 e0       	ldi	r17, 0x02	; 2
    1740:	1a c0       	rjmp	.+52     	; 0x1776 <menue_schalttemperaturen_einstellen+0x256>
    1742:	f7 01       	movw	r30, r14
    1744:	82 81       	ldd	r24, Z+2	; 0x02
    1746:	93 81       	ldd	r25, Z+3	; 0x03
    1748:	88 35       	cpi	r24, 0x58	; 88
    174a:	f2 e0       	ldi	r31, 0x02	; 2
    174c:	9f 07       	cpc	r25, r31
    174e:	21 f4       	brne	.+8      	; 0x1758 <menue_schalttemperaturen_einstellen+0x238>
    1750:	f7 01       	movw	r30, r14
    1752:	13 82       	std	Z+3, r1	; 0x03
    1754:	12 82       	std	Z+2, r1	; 0x02
    1756:	0e c0       	rjmp	.+28     	; 0x1774 <menue_schalttemperaturen_einstellen+0x254>
    1758:	01 96       	adiw	r24, 0x01	; 1
    175a:	09 c0       	rjmp	.+18     	; 0x176e <menue_schalttemperaturen_einstellen+0x24e>
    175c:	f7 01       	movw	r30, r14
    175e:	82 81       	ldd	r24, Z+2	; 0x02
    1760:	93 81       	ldd	r25, Z+3	; 0x03
    1762:	00 97       	sbiw	r24, 0x00	; 0
    1764:	19 f4       	brne	.+6      	; 0x176c <menue_schalttemperaturen_einstellen+0x24c>
    1766:	d3 82       	std	Z+3, r13	; 0x03
    1768:	c2 82       	std	Z+2, r12	; 0x02
    176a:	04 c0       	rjmp	.+8      	; 0x1774 <menue_schalttemperaturen_einstellen+0x254>
    176c:	01 97       	sbiw	r24, 0x01	; 1
    176e:	f7 01       	movw	r30, r14
    1770:	93 83       	std	Z+3, r25	; 0x03
    1772:	82 83       	std	Z+2, r24	; 0x02
    1774:	13 e0       	ldi	r17, 0x03	; 3
    1776:	01 e0       	ldi	r16, 0x01	; 1
    1778:	0c cf       	rjmp	.-488    	; 0x1592 <menue_schalttemperaturen_einstellen+0x72>
    177a:	00 23       	and	r16, r16
    177c:	09 f4       	brne	.+2      	; 0x1780 <menue_schalttemperaturen_einstellen+0x260>
    177e:	9d cf       	rjmp	.-198    	; 0x16ba <menue_schalttemperaturen_einstellen+0x19a>
    1780:	12 e0       	ldi	r17, 0x02	; 2
    1782:	5c cf       	rjmp	.-328    	; 0x163c <menue_schalttemperaturen_einstellen+0x11c>
    1784:	2d 96       	adiw	r28, 0x0d	; 13
    1786:	0f b6       	in	r0, 0x3f	; 63
    1788:	f8 94       	cli
    178a:	de bf       	out	0x3e, r29	; 62
    178c:	0f be       	out	0x3f, r0	; 63
    178e:	cd bf       	out	0x3d, r28	; 61
    1790:	df 91       	pop	r29
    1792:	cf 91       	pop	r28
    1794:	1f 91       	pop	r17
    1796:	0f 91       	pop	r16
    1798:	ff 90       	pop	r15
    179a:	ef 90       	pop	r14
    179c:	df 90       	pop	r13
    179e:	cf 90       	pop	r12
    17a0:	bf 90       	pop	r11
    17a2:	af 90       	pop	r10
    17a4:	9f 90       	pop	r9
    17a6:	8f 90       	pop	r8
    17a8:	7f 90       	pop	r7
    17aa:	6f 90       	pop	r6
    17ac:	08 95       	ret

000017ae <funkt_menu_temperatur_offet>:
    17ae:	81 e0       	ldi	r24, 0x01	; 1
    17b0:	0e 94 02 05 	call	0xa04	; 0xa04 <lcd_command>
    17b4:	10 92 08 04 	sts	0x0408, r1	; 0x800408 <i>
    17b8:	40 91 08 04 	lds	r20, 0x0408	; 0x800408 <i>
    17bc:	43 30       	cpi	r20, 0x03	; 3
    17be:	98 f4       	brcc	.+38     	; 0x17e6 <funkt_menu_temperatur_offet+0x38>
    17c0:	84 2f       	mov	r24, r20
    17c2:	90 e0       	ldi	r25, 0x00	; 0
    17c4:	9c 01       	movw	r18, r24
    17c6:	2a 58       	subi	r18, 0x8A	; 138
    17c8:	3f 4f       	sbci	r19, 0xFF	; 255
    17ca:	fc 01       	movw	r30, r24
    17cc:	e0 53       	subi	r30, 0x30	; 48
    17ce:	fd 4f       	sbci	r31, 0xFD	; 253
    17d0:	60 81       	ld	r22, Z
    17d2:	84 50       	subi	r24, 0x04	; 4
    17d4:	9d 4f       	sbci	r25, 0xFD	; 253
    17d6:	0e 94 cf 09 	call	0x139e	; 0x139e <menue_temperatur_offset>
    17da:	80 91 08 04 	lds	r24, 0x0408	; 0x800408 <i>
    17de:	8f 5f       	subi	r24, 0xFF	; 255
    17e0:	80 93 08 04 	sts	0x0408, r24	; 0x800408 <i>
    17e4:	e9 cf       	rjmp	.-46     	; 0x17b8 <funkt_menu_temperatur_offet+0xa>
    17e6:	81 e0       	ldi	r24, 0x01	; 1
    17e8:	0c 94 02 05 	jmp	0xa04	; 0xa04 <lcd_command>

000017ec <funkt_menu_heizer>:
    17ec:	ef 92       	push	r14
    17ee:	ff 92       	push	r15
    17f0:	0f 93       	push	r16
    17f2:	1f 93       	push	r17
    17f4:	cf 93       	push	r28
    17f6:	df 93       	push	r29
    17f8:	81 e0       	ldi	r24, 0x01	; 1
    17fa:	0e 94 02 05 	call	0xa04	; 0xa04 <lcd_command>
    17fe:	67 e1       	ldi	r22, 0x17	; 23
    1800:	74 e0       	ldi	r23, 0x04	; 4
    1802:	87 eb       	ldi	r24, 0xB7	; 183
    1804:	93 e0       	ldi	r25, 0x03	; 3
    1806:	0e 94 d7 17 	call	0x2fae	; 0x2fae <strcpy_P>
    180a:	ac 01       	movw	r20, r24
    180c:	61 e0       	ldi	r22, 0x01	; 1
    180e:	81 e0       	ldi	r24, 0x01	; 1
    1810:	0e 94 af 04 	call	0x95e	; 0x95e <lcd_printlrc>
    1814:	6c e0       	ldi	r22, 0x0C	; 12
    1816:	74 e0       	ldi	r23, 0x04	; 4
    1818:	8f e2       	ldi	r24, 0x2F	; 47
    181a:	94 e0       	ldi	r25, 0x04	; 4
    181c:	0e 94 d7 17 	call	0x2fae	; 0x2fae <strcpy_P>
    1820:	7c 01       	movw	r14, r24
    1822:	60 e0       	ldi	r22, 0x00	; 0
    1824:	74 e0       	ldi	r23, 0x04	; 4
    1826:	89 e0       	ldi	r24, 0x09	; 9
    1828:	94 e0       	ldi	r25, 0x04	; 4
    182a:	0e 94 d7 17 	call	0x2fae	; 0x2fae <strcpy_P>
    182e:	ec 01       	movw	r28, r24
    1830:	64 ef       	ldi	r22, 0xF4	; 244
    1832:	73 e0       	ldi	r23, 0x03	; 3
    1834:	87 eb       	ldi	r24, 0xB7	; 183
    1836:	93 e0       	ldi	r25, 0x03	; 3
    1838:	0e 94 d7 17 	call	0x2fae	; 0x2fae <strcpy_P>
    183c:	09 e6       	ldi	r16, 0x69	; 105
    183e:	10 e0       	ldi	r17, 0x00	; 0
    1840:	21 ee       	ldi	r18, 0xE1	; 225
    1842:	33 e0       	ldi	r19, 0x03	; 3
    1844:	a7 01       	movw	r20, r14
    1846:	be 01       	movw	r22, r28
    1848:	0e 94 90 0a 	call	0x1520	; 0x1520 <menue_schalttemperaturen_einstellen>
    184c:	81 e0       	ldi	r24, 0x01	; 1
    184e:	df 91       	pop	r29
    1850:	cf 91       	pop	r28
    1852:	1f 91       	pop	r17
    1854:	0f 91       	pop	r16
    1856:	ff 90       	pop	r15
    1858:	ef 90       	pop	r14
    185a:	0c 94 02 05 	jmp	0xa04	; 0xa04 <lcd_command>

0000185e <funkt_menu_luefter>:
    185e:	ef 92       	push	r14
    1860:	ff 92       	push	r15
    1862:	0f 93       	push	r16
    1864:	1f 93       	push	r17
    1866:	cf 93       	push	r28
    1868:	df 93       	push	r29
    186a:	81 e0       	ldi	r24, 0x01	; 1
    186c:	0e 94 02 05 	call	0xa04	; 0xa04 <lcd_command>
    1870:	60 ee       	ldi	r22, 0xE0	; 224
    1872:	73 e0       	ldi	r23, 0x03	; 3
    1874:	87 eb       	ldi	r24, 0xB7	; 183
    1876:	93 e0       	ldi	r25, 0x03	; 3
    1878:	0e 94 d7 17 	call	0x2fae	; 0x2fae <strcpy_P>
    187c:	ac 01       	movw	r20, r24
    187e:	61 e0       	ldi	r22, 0x01	; 1
    1880:	81 e0       	ldi	r24, 0x01	; 1
    1882:	0e 94 af 04 	call	0x95e	; 0x95e <lcd_printlrc>
    1886:	65 ed       	ldi	r22, 0xD5	; 213
    1888:	73 e0       	ldi	r23, 0x03	; 3
    188a:	8f e2       	ldi	r24, 0x2F	; 47
    188c:	94 e0       	ldi	r25, 0x04	; 4
    188e:	0e 94 d7 17 	call	0x2fae	; 0x2fae <strcpy_P>
    1892:	7c 01       	movw	r14, r24
    1894:	68 ec       	ldi	r22, 0xC8	; 200
    1896:	73 e0       	ldi	r23, 0x03	; 3
    1898:	89 e0       	ldi	r24, 0x09	; 9
    189a:	94 e0       	ldi	r25, 0x04	; 4
    189c:	0e 94 d7 17 	call	0x2fae	; 0x2fae <strcpy_P>
    18a0:	ec 01       	movw	r28, r24
    18a2:	6b eb       	ldi	r22, 0xBB	; 187
    18a4:	73 e0       	ldi	r23, 0x03	; 3
    18a6:	87 eb       	ldi	r24, 0xB7	; 183
    18a8:	93 e0       	ldi	r25, 0x03	; 3
    18aa:	0e 94 d7 17 	call	0x2fae	; 0x2fae <strcpy_P>
    18ae:	03 e6       	ldi	r16, 0x63	; 99
    18b0:	10 e0       	ldi	r17, 0x00	; 0
    18b2:	21 eb       	ldi	r18, 0xB1	; 177
    18b4:	33 e0       	ldi	r19, 0x03	; 3
    18b6:	a7 01       	movw	r20, r14
    18b8:	be 01       	movw	r22, r28
    18ba:	0e 94 90 0a 	call	0x1520	; 0x1520 <menue_schalttemperaturen_einstellen>
    18be:	81 e0       	ldi	r24, 0x01	; 1
    18c0:	df 91       	pop	r29
    18c2:	cf 91       	pop	r28
    18c4:	1f 91       	pop	r17
    18c6:	0f 91       	pop	r16
    18c8:	ff 90       	pop	r15
    18ca:	ef 90       	pop	r14
    18cc:	0c 94 02 05 	jmp	0xa04	; 0xa04 <lcd_command>

000018d0 <funkt_menu_alarm>:
    18d0:	ef 92       	push	r14
    18d2:	ff 92       	push	r15
    18d4:	0f 93       	push	r16
    18d6:	1f 93       	push	r17
    18d8:	cf 93       	push	r28
    18da:	df 93       	push	r29
    18dc:	81 e0       	ldi	r24, 0x01	; 1
    18de:	0e 94 02 05 	call	0xa04	; 0xa04 <lcd_command>
    18e2:	67 ea       	ldi	r22, 0xA7	; 167
    18e4:	73 e0       	ldi	r23, 0x03	; 3
    18e6:	87 eb       	ldi	r24, 0xB7	; 183
    18e8:	93 e0       	ldi	r25, 0x03	; 3
    18ea:	0e 94 d7 17 	call	0x2fae	; 0x2fae <strcpy_P>
    18ee:	ac 01       	movw	r20, r24
    18f0:	61 e0       	ldi	r22, 0x01	; 1
    18f2:	81 e0       	ldi	r24, 0x01	; 1
    18f4:	0e 94 af 04 	call	0x95e	; 0x95e <lcd_printlrc>
    18f8:	6c e9       	ldi	r22, 0x9C	; 156
    18fa:	73 e0       	ldi	r23, 0x03	; 3
    18fc:	8f e2       	ldi	r24, 0x2F	; 47
    18fe:	94 e0       	ldi	r25, 0x04	; 4
    1900:	0e 94 d7 17 	call	0x2fae	; 0x2fae <strcpy_P>
    1904:	7c 01       	movw	r14, r24
    1906:	61 e9       	ldi	r22, 0x91	; 145
    1908:	73 e0       	ldi	r23, 0x03	; 3
    190a:	89 e0       	ldi	r24, 0x09	; 9
    190c:	94 e0       	ldi	r25, 0x04	; 4
    190e:	0e 94 d7 17 	call	0x2fae	; 0x2fae <strcpy_P>
    1912:	ec 01       	movw	r28, r24
    1914:	66 e8       	ldi	r22, 0x86	; 134
    1916:	73 e0       	ldi	r23, 0x03	; 3
    1918:	87 eb       	ldi	r24, 0xB7	; 183
    191a:	93 e0       	ldi	r25, 0x03	; 3
    191c:	0e 94 d7 17 	call	0x2fae	; 0x2fae <strcpy_P>
    1920:	0f e6       	ldi	r16, 0x6F	; 111
    1922:	10 e0       	ldi	r17, 0x00	; 0
    1924:	2e ee       	ldi	r18, 0xEE	; 238
    1926:	33 e0       	ldi	r19, 0x03	; 3
    1928:	a7 01       	movw	r20, r14
    192a:	be 01       	movw	r22, r28
    192c:	0e 94 90 0a 	call	0x1520	; 0x1520 <menue_schalttemperaturen_einstellen>
    1930:	81 e0       	ldi	r24, 0x01	; 1
    1932:	df 91       	pop	r29
    1934:	cf 91       	pop	r28
    1936:	1f 91       	pop	r17
    1938:	0f 91       	pop	r16
    193a:	ff 90       	pop	r15
    193c:	ef 90       	pop	r14
    193e:	0c 94 02 05 	jmp	0xa04	; 0xa04 <lcd_command>

00001942 <funkt_menu_datum>:
    1942:	81 e0       	ldi	r24, 0x01	; 1
    1944:	0e 94 02 05 	call	0xa04	; 0xa04 <lcd_command>
    1948:	69 e6       	ldi	r22, 0x69	; 105
    194a:	73 e0       	ldi	r23, 0x03	; 3
    194c:	87 eb       	ldi	r24, 0xB7	; 183
    194e:	93 e0       	ldi	r25, 0x03	; 3
    1950:	0e 94 d7 17 	call	0x2fae	; 0x2fae <strcpy_P>
    1954:	ac 01       	movw	r20, r24
    1956:	61 e0       	ldi	r22, 0x01	; 1
    1958:	81 e0       	ldi	r24, 0x01	; 1
    195a:	0e 94 af 04 	call	0x95e	; 0x95e <lcd_printlrc>
    195e:	87 ee       	ldi	r24, 0xE7	; 231
    1960:	93 e0       	ldi	r25, 0x03	; 3
    1962:	0c 94 8c 08 	jmp	0x1118	; 0x1118 <menue_datum_einstellen>

00001966 <funkt_menu_uhr>:
    1966:	81 e0       	ldi	r24, 0x01	; 1
    1968:	0e 94 02 05 	call	0xa04	; 0xa04 <lcd_command>
    196c:	6c e4       	ldi	r22, 0x4C	; 76
    196e:	73 e0       	ldi	r23, 0x03	; 3
    1970:	87 eb       	ldi	r24, 0xB7	; 183
    1972:	93 e0       	ldi	r25, 0x03	; 3
    1974:	0e 94 d7 17 	call	0x2fae	; 0x2fae <strcpy_P>
    1978:	ac 01       	movw	r20, r24
    197a:	61 e0       	ldi	r22, 0x01	; 1
    197c:	81 e0       	ldi	r24, 0x01	; 1
    197e:	0e 94 af 04 	call	0x95e	; 0x95e <lcd_printlrc>
    1982:	60 e0       	ldi	r22, 0x00	; 0
    1984:	70 e0       	ldi	r23, 0x00	; 0
    1986:	87 ee       	ldi	r24, 0xE7	; 231
    1988:	93 e0       	ldi	r25, 0x03	; 3
    198a:	0c 94 76 07 	jmp	0xeec	; 0xeec <menue_zeiten_einstellen>

0000198e <funkt_menu_lampe_ein>:
    198e:	81 e0       	ldi	r24, 0x01	; 1
    1990:	0e 94 02 05 	call	0xa04	; 0xa04 <lcd_command>
    1994:	65 e2       	ldi	r22, 0x25	; 37
    1996:	73 e0       	ldi	r23, 0x03	; 3
    1998:	87 eb       	ldi	r24, 0xB7	; 183
    199a:	93 e0       	ldi	r25, 0x03	; 3
    199c:	0e 94 d7 17 	call	0x2fae	; 0x2fae <strcpy_P>
    19a0:	ac 01       	movw	r20, r24
    19a2:	61 e0       	ldi	r22, 0x01	; 1
    19a4:	81 e0       	ldi	r24, 0x01	; 1
    19a6:	0e 94 af 04 	call	0x95e	; 0x95e <lcd_printlrc>
    19aa:	60 e4       	ldi	r22, 0x40	; 64
    19ac:	70 e0       	ldi	r23, 0x00	; 0
    19ae:	86 e2       	ldi	r24, 0x26	; 38
    19b0:	94 e0       	ldi	r25, 0x04	; 4
    19b2:	0c 94 76 07 	jmp	0xeec	; 0xeec <menue_zeiten_einstellen>

000019b6 <funkt_menu_lampe_aus>:
    19b6:	81 e0       	ldi	r24, 0x01	; 1
    19b8:	0e 94 02 05 	call	0xa04	; 0xa04 <lcd_command>
    19bc:	6e ef       	ldi	r22, 0xFE	; 254
    19be:	72 e0       	ldi	r23, 0x02	; 2
    19c0:	87 eb       	ldi	r24, 0xB7	; 183
    19c2:	93 e0       	ldi	r25, 0x03	; 3
    19c4:	0e 94 d7 17 	call	0x2fae	; 0x2fae <strcpy_P>
    19c8:	ac 01       	movw	r20, r24
    19ca:	61 e0       	ldi	r22, 0x01	; 1
    19cc:	81 e0       	ldi	r24, 0x01	; 1
    19ce:	0e 94 af 04 	call	0x95e	; 0x95e <lcd_printlrc>
    19d2:	69 e3       	ldi	r22, 0x39	; 57
    19d4:	70 e0       	ldi	r23, 0x00	; 0
    19d6:	8f e1       	ldi	r24, 0x1F	; 31
    19d8:	94 e0       	ldi	r25, 0x04	; 4
    19da:	0c 94 76 07 	jmp	0xeec	; 0xeec <menue_zeiten_einstellen>

000019de <funkt_menu_regenpumpe_einzeit>:
    19de:	81 e0       	ldi	r24, 0x01	; 1
    19e0:	0e 94 02 05 	call	0xa04	; 0xa04 <lcd_command>
    19e4:	6f ed       	ldi	r22, 0xDF	; 223
    19e6:	72 e0       	ldi	r23, 0x02	; 2
    19e8:	87 eb       	ldi	r24, 0xB7	; 183
    19ea:	93 e0       	ldi	r25, 0x03	; 3
    19ec:	0e 94 d7 17 	call	0x2fae	; 0x2fae <strcpy_P>
    19f0:	ac 01       	movw	r20, r24
    19f2:	61 e0       	ldi	r22, 0x01	; 1
    19f4:	81 e0       	ldi	r24, 0x01	; 1
    19f6:	0e 94 af 04 	call	0x95e	; 0x95e <lcd_printlrc>
    19fa:	64 e2       	ldi	r22, 0x24	; 36
    19fc:	70 e0       	ldi	r23, 0x00	; 0
    19fe:	8a e8       	ldi	r24, 0x8A	; 138
    1a00:	94 e0       	ldi	r25, 0x04	; 4
    1a02:	0c 94 76 07 	jmp	0xeec	; 0xeec <menue_zeiten_einstellen>

00001a06 <funkt_menu_regenzeit1>:
    1a06:	81 e0       	ldi	r24, 0x01	; 1
    1a08:	0e 94 02 05 	call	0xa04	; 0xa04 <lcd_command>
    1a0c:	62 ed       	ldi	r22, 0xD2	; 210
    1a0e:	72 e0       	ldi	r23, 0x02	; 2
    1a10:	87 eb       	ldi	r24, 0xB7	; 183
    1a12:	93 e0       	ldi	r25, 0x03	; 3
    1a14:	0e 94 d7 17 	call	0x2fae	; 0x2fae <strcpy_P>
    1a18:	ac 01       	movw	r20, r24
    1a1a:	61 e0       	ldi	r22, 0x01	; 1
    1a1c:	81 e0       	ldi	r24, 0x01	; 1
    1a1e:	0e 94 af 04 	call	0x95e	; 0x95e <lcd_printlrc>
    1a22:	61 e0       	ldi	r22, 0x01	; 1
    1a24:	70 e0       	ldi	r23, 0x00	; 0
    1a26:	87 e6       	ldi	r24, 0x67	; 103
    1a28:	94 e0       	ldi	r25, 0x04	; 4
    1a2a:	0c 94 76 07 	jmp	0xeec	; 0xeec <menue_zeiten_einstellen>

00001a2e <funkt_menu_regenzeit2>:
    1a2e:	81 e0       	ldi	r24, 0x01	; 1
    1a30:	0e 94 02 05 	call	0xa04	; 0xa04 <lcd_command>
    1a34:	65 ec       	ldi	r22, 0xC5	; 197
    1a36:	72 e0       	ldi	r23, 0x02	; 2
    1a38:	87 eb       	ldi	r24, 0xB7	; 183
    1a3a:	93 e0       	ldi	r25, 0x03	; 3
    1a3c:	0e 94 d7 17 	call	0x2fae	; 0x2fae <strcpy_P>
    1a40:	ac 01       	movw	r20, r24
    1a42:	61 e0       	ldi	r22, 0x01	; 1
    1a44:	81 e0       	ldi	r24, 0x01	; 1
    1a46:	0e 94 af 04 	call	0x95e	; 0x95e <lcd_printlrc>
    1a4a:	68 e0       	ldi	r22, 0x08	; 8
    1a4c:	70 e0       	ldi	r23, 0x00	; 0
    1a4e:	8e e6       	ldi	r24, 0x6E	; 110
    1a50:	94 e0       	ldi	r25, 0x04	; 4
    1a52:	0c 94 76 07 	jmp	0xeec	; 0xeec <menue_zeiten_einstellen>

00001a56 <funkt_menu_regenzeit3>:
    1a56:	81 e0       	ldi	r24, 0x01	; 1
    1a58:	0e 94 02 05 	call	0xa04	; 0xa04 <lcd_command>
    1a5c:	68 eb       	ldi	r22, 0xB8	; 184
    1a5e:	72 e0       	ldi	r23, 0x02	; 2
    1a60:	87 eb       	ldi	r24, 0xB7	; 183
    1a62:	93 e0       	ldi	r25, 0x03	; 3
    1a64:	0e 94 d7 17 	call	0x2fae	; 0x2fae <strcpy_P>
    1a68:	ac 01       	movw	r20, r24
    1a6a:	61 e0       	ldi	r22, 0x01	; 1
    1a6c:	81 e0       	ldi	r24, 0x01	; 1
    1a6e:	0e 94 af 04 	call	0x95e	; 0x95e <lcd_printlrc>
    1a72:	6f e0       	ldi	r22, 0x0F	; 15
    1a74:	70 e0       	ldi	r23, 0x00	; 0
    1a76:	85 e7       	ldi	r24, 0x75	; 117
    1a78:	94 e0       	ldi	r25, 0x04	; 4
    1a7a:	0c 94 76 07 	jmp	0xeec	; 0xeec <menue_zeiten_einstellen>

00001a7e <funkt_menu_regenzeit4>:
    1a7e:	81 e0       	ldi	r24, 0x01	; 1
    1a80:	0e 94 02 05 	call	0xa04	; 0xa04 <lcd_command>
    1a84:	6b ea       	ldi	r22, 0xAB	; 171
    1a86:	72 e0       	ldi	r23, 0x02	; 2
    1a88:	87 eb       	ldi	r24, 0xB7	; 183
    1a8a:	93 e0       	ldi	r25, 0x03	; 3
    1a8c:	0e 94 d7 17 	call	0x2fae	; 0x2fae <strcpy_P>
    1a90:	ac 01       	movw	r20, r24
    1a92:	61 e0       	ldi	r22, 0x01	; 1
    1a94:	81 e0       	ldi	r24, 0x01	; 1
    1a96:	0e 94 af 04 	call	0x95e	; 0x95e <lcd_printlrc>
    1a9a:	66 e1       	ldi	r22, 0x16	; 22
    1a9c:	70 e0       	ldi	r23, 0x00	; 0
    1a9e:	8c e7       	ldi	r24, 0x7C	; 124
    1aa0:	94 e0       	ldi	r25, 0x04	; 4
    1aa2:	0c 94 76 07 	jmp	0xeec	; 0xeec <menue_zeiten_einstellen>

00001aa6 <funkt_menu_regenzeit5>:
    1aa6:	81 e0       	ldi	r24, 0x01	; 1
    1aa8:	0e 94 02 05 	call	0xa04	; 0xa04 <lcd_command>
    1aac:	6e e9       	ldi	r22, 0x9E	; 158
    1aae:	72 e0       	ldi	r23, 0x02	; 2
    1ab0:	87 eb       	ldi	r24, 0xB7	; 183
    1ab2:	93 e0       	ldi	r25, 0x03	; 3
    1ab4:	0e 94 d7 17 	call	0x2fae	; 0x2fae <strcpy_P>
    1ab8:	ac 01       	movw	r20, r24
    1aba:	61 e0       	ldi	r22, 0x01	; 1
    1abc:	81 e0       	ldi	r24, 0x01	; 1
    1abe:	0e 94 af 04 	call	0x95e	; 0x95e <lcd_printlrc>
    1ac2:	6d e1       	ldi	r22, 0x1D	; 29
    1ac4:	70 e0       	ldi	r23, 0x00	; 0
    1ac6:	83 e8       	ldi	r24, 0x83	; 131
    1ac8:	94 e0       	ldi	r25, 0x04	; 4
    1aca:	0c 94 76 07 	jmp	0xeec	; 0xeec <menue_zeiten_einstellen>

00001ace <funkt_menu_regenzeitzaehler>:
    1ace:	df 92       	push	r13
    1ad0:	ef 92       	push	r14
    1ad2:	ff 92       	push	r15
    1ad4:	0f 93       	push	r16
    1ad6:	1f 93       	push	r17
    1ad8:	cf 93       	push	r28
    1ada:	df 93       	push	r29
    1adc:	d0 91 f0 02 	lds	r29, 0x02F0	; 0x8002f0 <regenzeitenanzahl>
    1ae0:	81 e0       	ldi	r24, 0x01	; 1
    1ae2:	0e 94 02 05 	call	0xa04	; 0xa04 <lcd_command>
    1ae6:	43 e8       	ldi	r20, 0x83	; 131
    1ae8:	52 e0       	ldi	r21, 0x02	; 2
    1aea:	61 e0       	ldi	r22, 0x01	; 1
    1aec:	81 e0       	ldi	r24, 0x01	; 1
    1aee:	0e 94 8d 04 	call	0x91a	; 0x91a <lcd_printlc>
    1af2:	07 e9       	ldi	r16, 0x97	; 151
    1af4:	12 e0       	ldi	r17, 0x02	; 2
    1af6:	89 e0       	ldi	r24, 0x09	; 9
    1af8:	e8 2e       	mov	r14, r24
    1afa:	84 e0       	ldi	r24, 0x04	; 4
    1afc:	f8 2e       	mov	r15, r24
    1afe:	95 e0       	ldi	r25, 0x05	; 5
    1b00:	d9 2e       	mov	r13, r25
    1b02:	80 91 f0 02 	lds	r24, 0x02F0	; 0x8002f0 <regenzeitenanzahl>
    1b06:	28 2f       	mov	r18, r24
    1b08:	08 2e       	mov	r0, r24
    1b0a:	00 0c       	add	r0, r0
    1b0c:	33 0b       	sbc	r19, r19
    1b0e:	3f 93       	push	r19
    1b10:	8f 93       	push	r24
    1b12:	1f 93       	push	r17
    1b14:	0f 93       	push	r16
    1b16:	ff 92       	push	r15
    1b18:	ef 92       	push	r14
    1b1a:	0e 94 17 18 	call	0x302e	; 0x302e <sprintf>
    1b1e:	49 e0       	ldi	r20, 0x09	; 9
    1b20:	54 e0       	ldi	r21, 0x04	; 4
    1b22:	61 e0       	ldi	r22, 0x01	; 1
    1b24:	82 e0       	ldi	r24, 0x02	; 2
    1b26:	0e 94 d5 04 	call	0x9aa	; 0x9aa <lcd_printlr>
    1b2a:	0f 90       	pop	r0
    1b2c:	0f 90       	pop	r0
    1b2e:	0f 90       	pop	r0
    1b30:	0f 90       	pop	r0
    1b32:	0f 90       	pop	r0
    1b34:	0f 90       	pop	r0
    1b36:	84 e0       	ldi	r24, 0x04	; 4
    1b38:	0e 94 80 16 	call	0x2d00	; 0x2d00 <get_key_press>
    1b3c:	c8 2f       	mov	r28, r24
    1b3e:	84 e0       	ldi	r24, 0x04	; 4
    1b40:	0e 94 8b 16 	call	0x2d16	; 0x2d16 <get_key_rpt>
    1b44:	8c 2b       	or	r24, r28
    1b46:	21 f1       	breq	.+72     	; 0x1b90 <funkt_menu_regenzeitzaehler+0xc2>
    1b48:	81 e0       	ldi	r24, 0x01	; 1
    1b4a:	0e 94 02 05 	call	0xa04	; 0xa04 <lcd_command>
    1b4e:	47 e3       	ldi	r20, 0x37	; 55
    1b50:	52 e0       	ldi	r21, 0x02	; 2
    1b52:	61 e0       	ldi	r22, 0x01	; 1
    1b54:	81 e0       	ldi	r24, 0x01	; 1
    1b56:	0e 94 8d 04 	call	0x91a	; 0x91a <lcd_printlc>
    1b5a:	f8 94       	cli
    1b5c:	60 91 f0 02 	lds	r22, 0x02F0	; 0x8002f0 <regenzeitenanzahl>
    1b60:	80 e0       	ldi	r24, 0x00	; 0
    1b62:	90 e0       	ldi	r25, 0x00	; 0
    1b64:	0e 94 fc 1a 	call	0x35f8	; 0x35f8 <eeprom_write_byte>
    1b68:	78 94       	sei
    1b6a:	2f ef       	ldi	r18, 0xFF	; 255
    1b6c:	89 e6       	ldi	r24, 0x69	; 105
    1b6e:	98 e1       	ldi	r25, 0x18	; 24
    1b70:	21 50       	subi	r18, 0x01	; 1
    1b72:	80 40       	sbci	r24, 0x00	; 0
    1b74:	90 40       	sbci	r25, 0x00	; 0
    1b76:	e1 f7       	brne	.-8      	; 0x1b70 <funkt_menu_regenzeitzaehler+0xa2>
    1b78:	00 c0       	rjmp	.+0      	; 0x1b7a <funkt_menu_regenzeitzaehler+0xac>
    1b7a:	00 00       	nop
    1b7c:	81 e0       	ldi	r24, 0x01	; 1
    1b7e:	df 91       	pop	r29
    1b80:	cf 91       	pop	r28
    1b82:	1f 91       	pop	r17
    1b84:	0f 91       	pop	r16
    1b86:	ff 90       	pop	r15
    1b88:	ef 90       	pop	r14
    1b8a:	df 90       	pop	r13
    1b8c:	0c 94 02 05 	jmp	0xa04	; 0xa04 <lcd_command>
    1b90:	80 e2       	ldi	r24, 0x20	; 32
    1b92:	0e 94 80 16 	call	0x2d00	; 0x2d00 <get_key_press>
    1b96:	c8 2f       	mov	r28, r24
    1b98:	80 e2       	ldi	r24, 0x20	; 32
    1b9a:	0e 94 8b 16 	call	0x2d16	; 0x2d16 <get_key_rpt>
    1b9e:	8c 2b       	or	r24, r28
    1ba0:	51 f0       	breq	.+20     	; 0x1bb6 <funkt_menu_regenzeitzaehler+0xe8>
    1ba2:	d0 93 f0 02 	sts	0x02F0, r29	; 0x8002f0 <regenzeitenanzahl>
    1ba6:	df 91       	pop	r29
    1ba8:	cf 91       	pop	r28
    1baa:	1f 91       	pop	r17
    1bac:	0f 91       	pop	r16
    1bae:	ff 90       	pop	r15
    1bb0:	ef 90       	pop	r14
    1bb2:	df 90       	pop	r13
    1bb4:	08 95       	ret
    1bb6:	81 e0       	ldi	r24, 0x01	; 1
    1bb8:	0e 94 80 16 	call	0x2d00	; 0x2d00 <get_key_press>
    1bbc:	c8 2f       	mov	r28, r24
    1bbe:	81 e0       	ldi	r24, 0x01	; 1
    1bc0:	0e 94 8b 16 	call	0x2d16	; 0x2d16 <get_key_rpt>
    1bc4:	8c 2b       	or	r24, r28
    1bc6:	49 f0       	breq	.+18     	; 0x1bda <funkt_menu_regenzeitzaehler+0x10c>
    1bc8:	80 91 f0 02 	lds	r24, 0x02F0	; 0x8002f0 <regenzeitenanzahl>
    1bcc:	85 30       	cpi	r24, 0x05	; 5
    1bce:	19 f4       	brne	.+6      	; 0x1bd6 <funkt_menu_regenzeitzaehler+0x108>
    1bd0:	10 92 f0 02 	sts	0x02F0, r1	; 0x8002f0 <regenzeitenanzahl>
    1bd4:	96 cf       	rjmp	.-212    	; 0x1b02 <funkt_menu_regenzeitzaehler+0x34>
    1bd6:	8f 5f       	subi	r24, 0xFF	; 255
    1bd8:	12 c0       	rjmp	.+36     	; 0x1bfe <funkt_menu_regenzeitzaehler+0x130>
    1bda:	80 e1       	ldi	r24, 0x10	; 16
    1bdc:	0e 94 80 16 	call	0x2d00	; 0x2d00 <get_key_press>
    1be0:	c8 2f       	mov	r28, r24
    1be2:	80 e1       	ldi	r24, 0x10	; 16
    1be4:	0e 94 8b 16 	call	0x2d16	; 0x2d16 <get_key_rpt>
    1be8:	8c 2b       	or	r24, r28
    1bea:	09 f4       	brne	.+2      	; 0x1bee <funkt_menu_regenzeitzaehler+0x120>
    1bec:	a4 cf       	rjmp	.-184    	; 0x1b36 <funkt_menu_regenzeitzaehler+0x68>
    1bee:	80 91 f0 02 	lds	r24, 0x02F0	; 0x8002f0 <regenzeitenanzahl>
    1bf2:	81 11       	cpse	r24, r1
    1bf4:	03 c0       	rjmp	.+6      	; 0x1bfc <funkt_menu_regenzeitzaehler+0x12e>
    1bf6:	d0 92 f0 02 	sts	0x02F0, r13	; 0x8002f0 <regenzeitenanzahl>
    1bfa:	83 cf       	rjmp	.-250    	; 0x1b02 <funkt_menu_regenzeitzaehler+0x34>
    1bfc:	81 50       	subi	r24, 0x01	; 1
    1bfe:	80 93 f0 02 	sts	0x02F0, r24	; 0x8002f0 <regenzeitenanzahl>
    1c02:	7f cf       	rjmp	.-258    	; 0x1b02 <funkt_menu_regenzeitzaehler+0x34>

00001c04 <funkt_menu_mondlicht_ein>:
    1c04:	81 e0       	ldi	r24, 0x01	; 1
    1c06:	0e 94 02 05 	call	0xa04	; 0xa04 <lcd_command>
    1c0a:	64 e7       	ldi	r22, 0x74	; 116
    1c0c:	72 e0       	ldi	r23, 0x02	; 2
    1c0e:	87 eb       	ldi	r24, 0xB7	; 183
    1c10:	93 e0       	ldi	r25, 0x03	; 3
    1c12:	0e 94 d7 17 	call	0x2fae	; 0x2fae <strcpy_P>
    1c16:	ac 01       	movw	r20, r24
    1c18:	61 e0       	ldi	r22, 0x01	; 1
    1c1a:	81 e0       	ldi	r24, 0x01	; 1
    1c1c:	0e 94 af 04 	call	0x95e	; 0x95e <lcd_printlrc>
    1c20:	62 e3       	ldi	r22, 0x32	; 50
    1c22:	70 e0       	ldi	r23, 0x00	; 0
    1c24:	85 e4       	ldi	r24, 0x45	; 69
    1c26:	94 e0       	ldi	r25, 0x04	; 4
    1c28:	0c 94 76 07 	jmp	0xeec	; 0xeec <menue_zeiten_einstellen>

00001c2c <funkt_menu_mondlicht_aus>:
    1c2c:	81 e0       	ldi	r24, 0x01	; 1
    1c2e:	0e 94 02 05 	call	0xa04	; 0xa04 <lcd_command>
    1c32:	69 e4       	ldi	r22, 0x49	; 73
    1c34:	72 e0       	ldi	r23, 0x02	; 2
    1c36:	87 eb       	ldi	r24, 0xB7	; 183
    1c38:	93 e0       	ldi	r25, 0x03	; 3
    1c3a:	0e 94 d7 17 	call	0x2fae	; 0x2fae <strcpy_P>
    1c3e:	ac 01       	movw	r20, r24
    1c40:	61 e0       	ldi	r22, 0x01	; 1
    1c42:	81 e0       	ldi	r24, 0x01	; 1
    1c44:	0e 94 af 04 	call	0x95e	; 0x95e <lcd_printlrc>
    1c48:	6b e2       	ldi	r22, 0x2B	; 43
    1c4a:	70 e0       	ldi	r23, 0x00	; 0
    1c4c:	8c e4       	ldi	r24, 0x4C	; 76
    1c4e:	94 e0       	ldi	r25, 0x04	; 4
    1c50:	0e 94 76 07 	call	0xeec	; 0xeec <menue_zeiten_einstellen>
    1c54:	81 e0       	ldi	r24, 0x01	; 1
    1c56:	0c 94 02 05 	jmp	0xa04	; 0xa04 <lcd_command>

00001c5a <funkt_menu_about>:
    1c5a:	81 e0       	ldi	r24, 0x01	; 1
    1c5c:	0e 94 02 05 	call	0xa04	; 0xa04 <lcd_command>
    1c60:	6d e1       	ldi	r22, 0x1D	; 29
    1c62:	72 e0       	ldi	r23, 0x02	; 2
    1c64:	87 eb       	ldi	r24, 0xB7	; 183
    1c66:	93 e0       	ldi	r25, 0x03	; 3
    1c68:	0e 94 d7 17 	call	0x2fae	; 0x2fae <strcpy_P>
    1c6c:	ac 01       	movw	r20, r24
    1c6e:	61 e0       	ldi	r22, 0x01	; 1
    1c70:	81 e0       	ldi	r24, 0x01	; 1
    1c72:	0e 94 af 04 	call	0x95e	; 0x95e <lcd_printlrc>
    1c76:	6f e0       	ldi	r22, 0x0F	; 15
    1c78:	72 e0       	ldi	r23, 0x02	; 2
    1c7a:	87 eb       	ldi	r24, 0xB7	; 183
    1c7c:	93 e0       	ldi	r25, 0x03	; 3
    1c7e:	0e 94 d7 17 	call	0x2fae	; 0x2fae <strcpy_P>
    1c82:	ac 01       	movw	r20, r24
    1c84:	61 e0       	ldi	r22, 0x01	; 1
    1c86:	82 e0       	ldi	r24, 0x02	; 2
    1c88:	0e 94 af 04 	call	0x95e	; 0x95e <lcd_printlrc>
    1c8c:	6e ef       	ldi	r22, 0xFE	; 254
    1c8e:	71 e0       	ldi	r23, 0x01	; 1
    1c90:	87 eb       	ldi	r24, 0xB7	; 183
    1c92:	93 e0       	ldi	r25, 0x03	; 3
    1c94:	0e 94 d7 17 	call	0x2fae	; 0x2fae <strcpy_P>
    1c98:	ac 01       	movw	r20, r24
    1c9a:	61 e0       	ldi	r22, 0x01	; 1
    1c9c:	83 e0       	ldi	r24, 0x03	; 3
    1c9e:	0e 94 af 04 	call	0x95e	; 0x95e <lcd_printlrc>
    1ca2:	66 ef       	ldi	r22, 0xF6	; 246
    1ca4:	71 e0       	ldi	r23, 0x01	; 1
    1ca6:	87 eb       	ldi	r24, 0xB7	; 183
    1ca8:	93 e0       	ldi	r25, 0x03	; 3
    1caa:	0e 94 d7 17 	call	0x2fae	; 0x2fae <strcpy_P>
    1cae:	ac 01       	movw	r20, r24
    1cb0:	61 e0       	ldi	r22, 0x01	; 1
    1cb2:	84 e0       	ldi	r24, 0x04	; 4
    1cb4:	0e 94 af 04 	call	0x95e	; 0x95e <lcd_printlrc>
    1cb8:	8f ef       	ldi	r24, 0xFF	; 255
    1cba:	0e 94 80 16 	call	0x2d00	; 0x2d00 <get_key_press>
    1cbe:	88 23       	and	r24, r24
    1cc0:	d9 f3       	breq	.-10     	; 0x1cb8 <funkt_menu_about+0x5e>
    1cc2:	81 e0       	ldi	r24, 0x01	; 1
    1cc4:	0c 94 02 05 	jmp	0xa04	; 0xa04 <lcd_command>

00001cc8 <funkt_menu_max_werte>:
    1cc8:	ef 92       	push	r14
    1cca:	ff 92       	push	r15
    1ccc:	0f 93       	push	r16
    1cce:	1f 93       	push	r17
    1cd0:	cf 93       	push	r28
    1cd2:	df 93       	push	r29
    1cd4:	81 e0       	ldi	r24, 0x01	; 1
    1cd6:	0e 94 02 05 	call	0xa04	; 0xa04 <lcd_command>
    1cda:	60 91 06 04 	lds	r22, 0x0406	; 0x800406 <extrem_temperatur+0x12>
    1cde:	70 e0       	ldi	r23, 0x00	; 0
    1ce0:	cb 01       	movw	r24, r22
    1ce2:	88 0f       	add	r24, r24
    1ce4:	99 1f       	adc	r25, r25
    1ce6:	68 0f       	add	r22, r24
    1ce8:	79 1f       	adc	r23, r25
    1cea:	66 59       	subi	r22, 0x96	; 150
    1cec:	7b 4f       	sbci	r23, 0xFB	; 251
    1cee:	87 eb       	ldi	r24, 0xB7	; 183
    1cf0:	93 e0       	ldi	r25, 0x03	; 3
    1cf2:	0e 94 d7 17 	call	0x2fae	; 0x2fae <strcpy_P>
    1cf6:	ac 01       	movw	r20, r24
    1cf8:	61 e0       	ldi	r22, 0x01	; 1
    1cfa:	81 e0       	ldi	r24, 0x01	; 1
    1cfc:	0e 94 8d 04 	call	0x91a	; 0x91a <lcd_printlc>
    1d00:	60 ef       	ldi	r22, 0xF0	; 240
    1d02:	71 e0       	ldi	r23, 0x01	; 1
    1d04:	87 eb       	ldi	r24, 0xB7	; 183
    1d06:	93 e0       	ldi	r25, 0x03	; 3
    1d08:	0e 94 d7 17 	call	0x2fae	; 0x2fae <strcpy_P>
    1d0c:	0e 94 44 04 	call	0x888	; 0x888 <lcd_print>
    1d10:	69 e0       	ldi	r22, 0x09	; 9
    1d12:	74 e0       	ldi	r23, 0x04	; 4
    1d14:	80 91 f4 03 	lds	r24, 0x03F4	; 0x8003f4 <extrem_temperatur>
    1d18:	90 91 f5 03 	lds	r25, 0x03F5	; 0x8003f5 <extrem_temperatur+0x1>
    1d1c:	0e 94 0d 07 	call	0xe1a	; 0xe1a <temperatur_to_string>
    1d20:	89 e0       	ldi	r24, 0x09	; 9
    1d22:	94 e0       	ldi	r25, 0x04	; 4
    1d24:	0e 94 44 04 	call	0x888	; 0x888 <lcd_print>
    1d28:	80 91 f9 03 	lds	r24, 0x03F9	; 0x8003f9 <extrem_temperatur+0x5>
    1d2c:	1f 92       	push	r1
    1d2e:	8f 93       	push	r24
    1d30:	80 91 f8 03 	lds	r24, 0x03F8	; 0x8003f8 <extrem_temperatur+0x4>
    1d34:	1f 92       	push	r1
    1d36:	8f 93       	push	r24
    1d38:	80 91 fa 03 	lds	r24, 0x03FA	; 0x8003fa <extrem_temperatur+0x6>
    1d3c:	1f 92       	push	r1
    1d3e:	8f 93       	push	r24
    1d40:	02 e1       	ldi	r16, 0x12	; 18
    1d42:	12 e0       	ldi	r17, 0x02	; 2
    1d44:	1f 93       	push	r17
    1d46:	0f 93       	push	r16
    1d48:	c9 e0       	ldi	r28, 0x09	; 9
    1d4a:	d4 e0       	ldi	r29, 0x04	; 4
    1d4c:	df 93       	push	r29
    1d4e:	cf 93       	push	r28
    1d50:	0e 94 17 18 	call	0x302e	; 0x302e <sprintf>
    1d54:	ae 01       	movw	r20, r28
    1d56:	6d e0       	ldi	r22, 0x0D	; 13
    1d58:	81 e0       	ldi	r24, 0x01	; 1
    1d5a:	0e 94 af 04 	call	0x95e	; 0x95e <lcd_printlrc>
    1d5e:	60 91 07 04 	lds	r22, 0x0407	; 0x800407 <extrem_temperatur+0x13>
    1d62:	70 e0       	ldi	r23, 0x00	; 0
    1d64:	cb 01       	movw	r24, r22
    1d66:	88 0f       	add	r24, r24
    1d68:	99 1f       	adc	r25, r25
    1d6a:	68 0f       	add	r22, r24
    1d6c:	79 1f       	adc	r23, r25
    1d6e:	66 59       	subi	r22, 0x96	; 150
    1d70:	7b 4f       	sbci	r23, 0xFB	; 251
    1d72:	87 eb       	ldi	r24, 0xB7	; 183
    1d74:	93 e0       	ldi	r25, 0x03	; 3
    1d76:	0e 94 d7 17 	call	0x2fae	; 0x2fae <strcpy_P>
    1d7a:	ac 01       	movw	r20, r24
    1d7c:	61 e0       	ldi	r22, 0x01	; 1
    1d7e:	82 e0       	ldi	r24, 0x02	; 2
    1d80:	0e 94 8d 04 	call	0x91a	; 0x91a <lcd_printlc>
    1d84:	6a ee       	ldi	r22, 0xEA	; 234
    1d86:	71 e0       	ldi	r23, 0x01	; 1
    1d88:	87 eb       	ldi	r24, 0xB7	; 183
    1d8a:	93 e0       	ldi	r25, 0x03	; 3
    1d8c:	0e 94 d7 17 	call	0x2fae	; 0x2fae <strcpy_P>
    1d90:	0e 94 44 04 	call	0x888	; 0x888 <lcd_print>
    1d94:	be 01       	movw	r22, r28
    1d96:	80 91 f6 03 	lds	r24, 0x03F6	; 0x8003f6 <extrem_temperatur+0x2>
    1d9a:	90 91 f7 03 	lds	r25, 0x03F7	; 0x8003f7 <extrem_temperatur+0x3>
    1d9e:	0e 94 0d 07 	call	0xe1a	; 0xe1a <temperatur_to_string>
    1da2:	ce 01       	movw	r24, r28
    1da4:	0e 94 44 04 	call	0x888	; 0x888 <lcd_print>
    1da8:	80 91 00 04 	lds	r24, 0x0400	; 0x800400 <extrem_temperatur+0xc>
    1dac:	1f 92       	push	r1
    1dae:	8f 93       	push	r24
    1db0:	80 91 ff 03 	lds	r24, 0x03FF	; 0x8003ff <extrem_temperatur+0xb>
    1db4:	1f 92       	push	r1
    1db6:	8f 93       	push	r24
    1db8:	80 91 01 04 	lds	r24, 0x0401	; 0x800401 <extrem_temperatur+0xd>
    1dbc:	1f 92       	push	r1
    1dbe:	8f 93       	push	r24
    1dc0:	1f 93       	push	r17
    1dc2:	0f 93       	push	r16
    1dc4:	df 93       	push	r29
    1dc6:	cf 93       	push	r28
    1dc8:	0e 94 17 18 	call	0x302e	; 0x302e <sprintf>
    1dcc:	ae 01       	movw	r20, r28
    1dce:	6d e0       	ldi	r22, 0x0D	; 13
    1dd0:	82 e0       	ldi	r24, 0x02	; 2
    1dd2:	0e 94 af 04 	call	0x95e	; 0x95e <lcd_printlrc>
    1dd6:	62 ee       	ldi	r22, 0xE2	; 226
    1dd8:	71 e0       	ldi	r23, 0x01	; 1
    1dda:	87 eb       	ldi	r24, 0xB7	; 183
    1ddc:	93 e0       	ldi	r25, 0x03	; 3
    1dde:	0e 94 d7 17 	call	0x2fae	; 0x2fae <strcpy_P>
    1de2:	ac 01       	movw	r20, r24
    1de4:	61 e0       	ldi	r22, 0x01	; 1
    1de6:	83 e0       	ldi	r24, 0x03	; 3
    1de8:	0e 94 af 04 	call	0x95e	; 0x95e <lcd_printlrc>
    1dec:	80 91 54 04 	lds	r24, 0x0454	; 0x800454 <extrem_huminity+0x1>
    1df0:	8f 93       	push	r24
    1df2:	80 91 53 04 	lds	r24, 0x0453	; 0x800453 <extrem_huminity>
    1df6:	8f 93       	push	r24
    1df8:	4b e2       	ldi	r20, 0x2B	; 43
    1dfa:	e4 2e       	mov	r14, r20
    1dfc:	42 e0       	ldi	r20, 0x02	; 2
    1dfe:	f4 2e       	mov	r15, r20
    1e00:	ff 92       	push	r15
    1e02:	ef 92       	push	r14
    1e04:	df 93       	push	r29
    1e06:	cf 93       	push	r28
    1e08:	0e 94 17 18 	call	0x302e	; 0x302e <sprintf>
    1e0c:	ce 01       	movw	r24, r28
    1e0e:	0e 94 44 04 	call	0x888	; 0x888 <lcd_print>
    1e12:	85 e2       	ldi	r24, 0x25	; 37
    1e14:	0e 94 22 04 	call	0x844	; 0x844 <lcd_putchar>
    1e18:	80 91 58 04 	lds	r24, 0x0458	; 0x800458 <extrem_huminity+0x5>
    1e1c:	1f 92       	push	r1
    1e1e:	8f 93       	push	r24
    1e20:	80 91 57 04 	lds	r24, 0x0457	; 0x800457 <extrem_huminity+0x4>
    1e24:	1f 92       	push	r1
    1e26:	8f 93       	push	r24
    1e28:	80 91 59 04 	lds	r24, 0x0459	; 0x800459 <extrem_huminity+0x6>
    1e2c:	1f 92       	push	r1
    1e2e:	8f 93       	push	r24
    1e30:	1f 93       	push	r17
    1e32:	0f 93       	push	r16
    1e34:	df 93       	push	r29
    1e36:	cf 93       	push	r28
    1e38:	0e 94 17 18 	call	0x302e	; 0x302e <sprintf>
    1e3c:	8d b7       	in	r24, 0x3d	; 61
    1e3e:	9e b7       	in	r25, 0x3e	; 62
    1e40:	84 96       	adiw	r24, 0x24	; 36
    1e42:	0f b6       	in	r0, 0x3f	; 63
    1e44:	f8 94       	cli
    1e46:	9e bf       	out	0x3e, r25	; 62
    1e48:	0f be       	out	0x3f, r0	; 63
    1e4a:	8d bf       	out	0x3d, r24	; 61
    1e4c:	ae 01       	movw	r20, r28
    1e4e:	6d e0       	ldi	r22, 0x0D	; 13
    1e50:	83 e0       	ldi	r24, 0x03	; 3
    1e52:	0e 94 af 04 	call	0x95e	; 0x95e <lcd_printlrc>
    1e56:	6a ed       	ldi	r22, 0xDA	; 218
    1e58:	71 e0       	ldi	r23, 0x01	; 1
    1e5a:	87 eb       	ldi	r24, 0xB7	; 183
    1e5c:	93 e0       	ldi	r25, 0x03	; 3
    1e5e:	0e 94 d7 17 	call	0x2fae	; 0x2fae <strcpy_P>
    1e62:	ac 01       	movw	r20, r24
    1e64:	61 e0       	ldi	r22, 0x01	; 1
    1e66:	84 e0       	ldi	r24, 0x04	; 4
    1e68:	0e 94 af 04 	call	0x95e	; 0x95e <lcd_printlrc>
    1e6c:	80 91 56 04 	lds	r24, 0x0456	; 0x800456 <extrem_huminity+0x3>
    1e70:	8f 93       	push	r24
    1e72:	80 91 55 04 	lds	r24, 0x0455	; 0x800455 <extrem_huminity+0x2>
    1e76:	8f 93       	push	r24
    1e78:	ff 92       	push	r15
    1e7a:	ef 92       	push	r14
    1e7c:	df 93       	push	r29
    1e7e:	cf 93       	push	r28
    1e80:	0e 94 17 18 	call	0x302e	; 0x302e <sprintf>
    1e84:	ce 01       	movw	r24, r28
    1e86:	0e 94 44 04 	call	0x888	; 0x888 <lcd_print>
    1e8a:	85 e2       	ldi	r24, 0x25	; 37
    1e8c:	0e 94 22 04 	call	0x844	; 0x844 <lcd_putchar>
    1e90:	80 91 5f 04 	lds	r24, 0x045F	; 0x80045f <extrem_huminity+0xc>
    1e94:	1f 92       	push	r1
    1e96:	8f 93       	push	r24
    1e98:	80 91 5e 04 	lds	r24, 0x045E	; 0x80045e <extrem_huminity+0xb>
    1e9c:	1f 92       	push	r1
    1e9e:	8f 93       	push	r24
    1ea0:	80 91 60 04 	lds	r24, 0x0460	; 0x800460 <extrem_huminity+0xd>
    1ea4:	1f 92       	push	r1
    1ea6:	8f 93       	push	r24
    1ea8:	1f 93       	push	r17
    1eaa:	0f 93       	push	r16
    1eac:	df 93       	push	r29
    1eae:	cf 93       	push	r28
    1eb0:	0e 94 17 18 	call	0x302e	; 0x302e <sprintf>
    1eb4:	ae 01       	movw	r20, r28
    1eb6:	6d e0       	ldi	r22, 0x0D	; 13
    1eb8:	84 e0       	ldi	r24, 0x04	; 4
    1eba:	0e 94 af 04 	call	0x95e	; 0x95e <lcd_printlrc>
    1ebe:	8d b7       	in	r24, 0x3d	; 61
    1ec0:	9e b7       	in	r25, 0x3e	; 62
    1ec2:	40 96       	adiw	r24, 0x10	; 16
    1ec4:	0f b6       	in	r0, 0x3f	; 63
    1ec6:	f8 94       	cli
    1ec8:	9e bf       	out	0x3e, r25	; 62
    1eca:	0f be       	out	0x3f, r0	; 63
    1ecc:	8d bf       	out	0x3d, r24	; 61
    1ece:	8f ef       	ldi	r24, 0xFF	; 255
    1ed0:	0e 94 80 16 	call	0x2d00	; 0x2d00 <get_key_press>
    1ed4:	88 23       	and	r24, r24
    1ed6:	d9 f3       	breq	.-10     	; 0x1ece <funkt_menu_max_werte+0x206>
    1ed8:	81 e0       	ldi	r24, 0x01	; 1
    1eda:	df 91       	pop	r29
    1edc:	cf 91       	pop	r28
    1ede:	1f 91       	pop	r17
    1ee0:	0f 91       	pop	r16
    1ee2:	ff 90       	pop	r15
    1ee4:	ef 90       	pop	r14
    1ee6:	0c 94 02 05 	jmp	0xa04	; 0xa04 <lcd_command>

00001eea <vergleiche_temperaturen>:
    1eea:	fa 01       	movw	r30, r20
    1eec:	20 81       	ld	r18, Z
    1eee:	31 81       	ldd	r19, Z+1	; 0x01
    1ef0:	fb 01       	movw	r30, r22
    1ef2:	40 81       	ld	r20, Z
    1ef4:	51 81       	ldd	r21, Z+1	; 0x01
    1ef6:	42 17       	cp	r20, r18
    1ef8:	53 07       	cpc	r21, r19
    1efa:	44 f0       	brlt	.+16     	; 0x1f0c <vergleiche_temperaturen+0x22>
    1efc:	fc 01       	movw	r30, r24
    1efe:	80 81       	ld	r24, Z
    1f00:	91 81       	ldd	r25, Z+1	; 0x01
    1f02:	28 17       	cp	r18, r24
    1f04:	39 07       	cpc	r19, r25
    1f06:	24 f0       	brlt	.+8      	; 0x1f10 <vergleiche_temperaturen+0x26>
    1f08:	80 e0       	ldi	r24, 0x00	; 0
    1f0a:	08 95       	ret
    1f0c:	81 e0       	ldi	r24, 0x01	; 1
    1f0e:	08 95       	ret
    1f10:	82 e0       	ldi	r24, 0x02	; 2
    1f12:	08 95       	ret

00001f14 <vergleiche_zeiten>:
    1f14:	4f 92       	push	r4
    1f16:	5f 92       	push	r5
    1f18:	6f 92       	push	r6
    1f1a:	7f 92       	push	r7
    1f1c:	8f 92       	push	r8
    1f1e:	9f 92       	push	r9
    1f20:	af 92       	push	r10
    1f22:	bf 92       	push	r11
    1f24:	cf 92       	push	r12
    1f26:	df 92       	push	r13
    1f28:	ef 92       	push	r14
    1f2a:	ff 92       	push	r15
    1f2c:	cf 93       	push	r28
    1f2e:	df 93       	push	r29
    1f30:	5c 01       	movw	r10, r24
    1f32:	eb 01       	movw	r28, r22
    1f34:	fa 01       	movw	r30, r20
    1f36:	dc 01       	movw	r26, r24
    1f38:	4c 91       	ld	r20, X
    1f3a:	12 96       	adiw	r26, 0x02	; 2
    1f3c:	2c 91       	ld	r18, X
    1f3e:	30 e0       	ldi	r19, 0x00	; 0
    1f40:	a0 e1       	ldi	r26, 0x10	; 16
    1f42:	be e0       	ldi	r27, 0x0E	; 14
    1f44:	0e 94 b6 17 	call	0x2f6c	; 0x2f6c <__umulhisi3>
    1f48:	6b 01       	movw	r12, r22
    1f4a:	7c 01       	movw	r14, r24
    1f4c:	24 2f       	mov	r18, r20
    1f4e:	30 e0       	ldi	r19, 0x00	; 0
    1f50:	ac e3       	ldi	r26, 0x3C	; 60
    1f52:	b0 e0       	ldi	r27, 0x00	; 0
    1f54:	0e 94 b6 17 	call	0x2f6c	; 0x2f6c <__umulhisi3>
    1f58:	c6 0e       	add	r12, r22
    1f5a:	d7 1e       	adc	r13, r23
    1f5c:	e8 1e       	adc	r14, r24
    1f5e:	f9 1e       	adc	r15, r25
    1f60:	d5 01       	movw	r26, r10
    1f62:	11 96       	adiw	r26, 0x01	; 1
    1f64:	8c 91       	ld	r24, X
    1f66:	c8 0e       	add	r12, r24
    1f68:	d1 1c       	adc	r13, r1
    1f6a:	e1 1c       	adc	r14, r1
    1f6c:	f1 1c       	adc	r15, r1
    1f6e:	48 81       	ld	r20, Y
    1f70:	2a 81       	ldd	r18, Y+2	; 0x02
    1f72:	30 e0       	ldi	r19, 0x00	; 0
    1f74:	a0 e1       	ldi	r26, 0x10	; 16
    1f76:	be e0       	ldi	r27, 0x0E	; 14
    1f78:	0e 94 b6 17 	call	0x2f6c	; 0x2f6c <__umulhisi3>
    1f7c:	4b 01       	movw	r8, r22
    1f7e:	5c 01       	movw	r10, r24
    1f80:	24 2f       	mov	r18, r20
    1f82:	30 e0       	ldi	r19, 0x00	; 0
    1f84:	ac e3       	ldi	r26, 0x3C	; 60
    1f86:	b0 e0       	ldi	r27, 0x00	; 0
    1f88:	0e 94 b6 17 	call	0x2f6c	; 0x2f6c <__umulhisi3>
    1f8c:	86 0e       	add	r8, r22
    1f8e:	97 1e       	adc	r9, r23
    1f90:	a8 1e       	adc	r10, r24
    1f92:	b9 1e       	adc	r11, r25
    1f94:	89 81       	ldd	r24, Y+1	; 0x01
    1f96:	88 0e       	add	r8, r24
    1f98:	91 1c       	adc	r9, r1
    1f9a:	a1 1c       	adc	r10, r1
    1f9c:	b1 1c       	adc	r11, r1
    1f9e:	40 81       	ld	r20, Z
    1fa0:	22 81       	ldd	r18, Z+2	; 0x02
    1fa2:	30 e0       	ldi	r19, 0x00	; 0
    1fa4:	a0 e1       	ldi	r26, 0x10	; 16
    1fa6:	be e0       	ldi	r27, 0x0E	; 14
    1fa8:	0e 94 b6 17 	call	0x2f6c	; 0x2f6c <__umulhisi3>
    1fac:	2b 01       	movw	r4, r22
    1fae:	3c 01       	movw	r6, r24
    1fb0:	24 2f       	mov	r18, r20
    1fb2:	30 e0       	ldi	r19, 0x00	; 0
    1fb4:	ac e3       	ldi	r26, 0x3C	; 60
    1fb6:	b0 e0       	ldi	r27, 0x00	; 0
    1fb8:	0e 94 b6 17 	call	0x2f6c	; 0x2f6c <__umulhisi3>
    1fbc:	ab 01       	movw	r20, r22
    1fbe:	bc 01       	movw	r22, r24
    1fc0:	44 0d       	add	r20, r4
    1fc2:	55 1d       	adc	r21, r5
    1fc4:	66 1d       	adc	r22, r6
    1fc6:	77 1d       	adc	r23, r7
    1fc8:	81 81       	ldd	r24, Z+1	; 0x01
    1fca:	48 0f       	add	r20, r24
    1fcc:	51 1d       	adc	r21, r1
    1fce:	61 1d       	adc	r22, r1
    1fd0:	71 1d       	adc	r23, r1
    1fd2:	8c 14       	cp	r8, r12
    1fd4:	9d 04       	cpc	r9, r13
    1fd6:	ae 04       	cpc	r10, r14
    1fd8:	bf 04       	cpc	r11, r15
    1fda:	38 f4       	brcc	.+14     	; 0x1fea <vergleiche_zeiten+0xd6>
    1fdc:	81 e0       	ldi	r24, 0x01	; 1
    1fde:	c4 16       	cp	r12, r20
    1fe0:	d5 06       	cpc	r13, r21
    1fe2:	e6 06       	cpc	r14, r22
    1fe4:	f7 06       	cpc	r15, r23
    1fe6:	98 f4       	brcc	.+38     	; 0x200e <vergleiche_zeiten+0xfa>
    1fe8:	18 c0       	rjmp	.+48     	; 0x201a <vergleiche_zeiten+0x106>
    1fea:	c8 14       	cp	r12, r8
    1fec:	d9 04       	cpc	r13, r9
    1fee:	ea 04       	cpc	r14, r10
    1ff0:	fb 04       	cpc	r15, r11
    1ff2:	39 f4       	brne	.+14     	; 0x2002 <vergleiche_zeiten+0xee>
    1ff4:	81 e0       	ldi	r24, 0x01	; 1
    1ff6:	c4 16       	cp	r12, r20
    1ff8:	d5 06       	cpc	r13, r21
    1ffa:	e6 06       	cpc	r14, r22
    1ffc:	f7 06       	cpc	r15, r23
    1ffe:	61 f4       	brne	.+24     	; 0x2018 <vergleiche_zeiten+0x104>
    2000:	0c c0       	rjmp	.+24     	; 0x201a <vergleiche_zeiten+0x106>
    2002:	c4 16       	cp	r12, r20
    2004:	d5 06       	cpc	r13, r21
    2006:	e6 06       	cpc	r14, r22
    2008:	f7 06       	cpc	r15, r23
    200a:	30 f4       	brcc	.+12     	; 0x2018 <vergleiche_zeiten+0x104>
    200c:	81 e0       	ldi	r24, 0x01	; 1
    200e:	48 15       	cp	r20, r8
    2010:	59 05       	cpc	r21, r9
    2012:	6a 05       	cpc	r22, r10
    2014:	7b 05       	cpc	r23, r11
    2016:	08 f0       	brcs	.+2      	; 0x201a <vergleiche_zeiten+0x106>
    2018:	80 e0       	ldi	r24, 0x00	; 0
    201a:	df 91       	pop	r29
    201c:	cf 91       	pop	r28
    201e:	ff 90       	pop	r15
    2020:	ef 90       	pop	r14
    2022:	df 90       	pop	r13
    2024:	cf 90       	pop	r12
    2026:	bf 90       	pop	r11
    2028:	af 90       	pop	r10
    202a:	9f 90       	pop	r9
    202c:	8f 90       	pop	r8
    202e:	7f 90       	pop	r7
    2030:	6f 90       	pop	r6
    2032:	5f 90       	pop	r5
    2034:	4f 90       	pop	r4
    2036:	08 95       	ret

00002038 <temperatuen_schalten>:
    2038:	ff 92       	push	r15
    203a:	0f 93       	push	r16
    203c:	1f 93       	push	r17
    203e:	cf 93       	push	r28
    2040:	df 93       	push	r29
    2042:	10 92 08 04 	sts	0x0408, r1	; 0x800408 <i>
    2046:	02 e0       	ldi	r16, 0x02	; 2
    2048:	93 e0       	ldi	r25, 0x03	; 3
    204a:	f9 2e       	mov	r15, r25
    204c:	10 91 08 04 	lds	r17, 0x0408	; 0x800408 <i>
    2050:	13 30       	cpi	r17, 0x03	; 3
    2052:	08 f0       	brcs	.+2      	; 0x2056 <temperatuen_schalten+0x1e>
    2054:	47 c0       	rjmp	.+142    	; 0x20e4 <temperatuen_schalten+0xac>
    2056:	c1 2f       	mov	r28, r17
    2058:	d0 e0       	ldi	r29, 0x00	; 0
    205a:	cc 0f       	add	r28, r28
    205c:	dd 1f       	adc	r29, r29
    205e:	ca 50       	subi	r28, 0x0A	; 10
    2060:	dd 4f       	sbci	r29, 0xFD	; 253
    2062:	ae 01       	movw	r20, r28
    2064:	61 eb       	ldi	r22, 0xB1	; 177
    2066:	73 e0       	ldi	r23, 0x03	; 3
    2068:	83 eb       	ldi	r24, 0xB3	; 179
    206a:	93 e0       	ldi	r25, 0x03	; 3
    206c:	0e 94 75 0f 	call	0x1eea	; 0x1eea <vergleiche_temperaturen>
    2070:	81 30       	cpi	r24, 0x01	; 1
    2072:	31 f0       	breq	.+12     	; 0x2080 <temperatuen_schalten+0x48>
    2074:	82 30       	cpi	r24, 0x02	; 2
    2076:	49 f4       	brne	.+18     	; 0x208a <temperatuen_schalten+0x52>
    2078:	80 91 91 04 	lds	r24, 0x0491	; 0x800491 <zustandsbit>
    207c:	8d 7f       	andi	r24, 0xFD	; 253
    207e:	03 c0       	rjmp	.+6      	; 0x2086 <temperatuen_schalten+0x4e>
    2080:	80 91 91 04 	lds	r24, 0x0491	; 0x800491 <zustandsbit>
    2084:	82 60       	ori	r24, 0x02	; 2
    2086:	80 93 91 04 	sts	0x0491, r24	; 0x800491 <zustandsbit>
    208a:	80 91 ef 02 	lds	r24, 0x02EF	; 0x8002ef <alarm_vektor>
    208e:	81 11       	cpse	r24, r1
    2090:	10 c0       	rjmp	.+32     	; 0x20b2 <temperatuen_schalten+0x7a>
    2092:	ae 01       	movw	r20, r28
    2094:	6e ee       	ldi	r22, 0xEE	; 238
    2096:	73 e0       	ldi	r23, 0x03	; 3
    2098:	80 ef       	ldi	r24, 0xF0	; 240
    209a:	93 e0       	ldi	r25, 0x03	; 3
    209c:	0e 94 75 0f 	call	0x1eea	; 0x1eea <vergleiche_temperaturen>
    20a0:	81 30       	cpi	r24, 0x01	; 1
    20a2:	29 f0       	breq	.+10     	; 0x20ae <temperatuen_schalten+0x76>
    20a4:	82 30       	cpi	r24, 0x02	; 2
    20a6:	29 f4       	brne	.+10     	; 0x20b2 <temperatuen_schalten+0x7a>
    20a8:	f0 92 ef 02 	sts	0x02EF, r15	; 0x8002ef <alarm_vektor>
    20ac:	02 c0       	rjmp	.+4      	; 0x20b2 <temperatuen_schalten+0x7a>
    20ae:	00 93 ef 02 	sts	0x02EF, r16	; 0x8002ef <alarm_vektor>
    20b2:	46 ef       	ldi	r20, 0xF6	; 246
    20b4:	52 e0       	ldi	r21, 0x02	; 2
    20b6:	63 ee       	ldi	r22, 0xE3	; 227
    20b8:	73 e0       	ldi	r23, 0x03	; 3
    20ba:	81 ee       	ldi	r24, 0xE1	; 225
    20bc:	93 e0       	ldi	r25, 0x03	; 3
    20be:	0e 94 75 0f 	call	0x1eea	; 0x1eea <vergleiche_temperaturen>
    20c2:	81 30       	cpi	r24, 0x01	; 1
    20c4:	31 f0       	breq	.+12     	; 0x20d2 <temperatuen_schalten+0x9a>
    20c6:	82 30       	cpi	r24, 0x02	; 2
    20c8:	49 f4       	brne	.+18     	; 0x20dc <temperatuen_schalten+0xa4>
    20ca:	80 91 91 04 	lds	r24, 0x0491	; 0x800491 <zustandsbit>
    20ce:	81 60       	ori	r24, 0x01	; 1
    20d0:	03 c0       	rjmp	.+6      	; 0x20d8 <temperatuen_schalten+0xa0>
    20d2:	80 91 91 04 	lds	r24, 0x0491	; 0x800491 <zustandsbit>
    20d6:	8e 7f       	andi	r24, 0xFE	; 254
    20d8:	80 93 91 04 	sts	0x0491, r24	; 0x800491 <zustandsbit>
    20dc:	1f 5f       	subi	r17, 0xFF	; 255
    20de:	10 93 08 04 	sts	0x0408, r17	; 0x800408 <i>
    20e2:	b4 cf       	rjmp	.-152    	; 0x204c <temperatuen_schalten+0x14>
    20e4:	df 91       	pop	r29
    20e6:	cf 91       	pop	r28
    20e8:	1f 91       	pop	r17
    20ea:	0f 91       	pop	r16
    20ec:	ff 90       	pop	r15
    20ee:	08 95       	ret

000020f0 <regenpumpe_aktivieren>:
    20f0:	cf 92       	push	r12
    20f2:	df 92       	push	r13
    20f4:	ef 92       	push	r14
    20f6:	ff 92       	push	r15
    20f8:	fc 01       	movw	r30, r24
    20fa:	80 91 a4 03 	lds	r24, 0x03A4	; 0x8003a4 <timer_counter>
    20fe:	90 91 a5 03 	lds	r25, 0x03A5	; 0x8003a5 <timer_counter+0x1>
    2102:	a0 91 a6 03 	lds	r26, 0x03A6	; 0x8003a6 <timer_counter+0x2>
    2106:	b0 91 a7 03 	lds	r27, 0x03A7	; 0x8003a7 <timer_counter+0x3>
    210a:	89 2b       	or	r24, r25
    210c:	8a 2b       	or	r24, r26
    210e:	8b 2b       	or	r24, r27
    2110:	19 f5       	brne	.+70     	; 0x2158 <regenpumpe_aktivieren+0x68>
    2112:	40 81       	ld	r20, Z
    2114:	22 81       	ldd	r18, Z+2	; 0x02
    2116:	30 e0       	ldi	r19, 0x00	; 0
    2118:	a0 e1       	ldi	r26, 0x10	; 16
    211a:	be e0       	ldi	r27, 0x0E	; 14
    211c:	0e 94 b6 17 	call	0x2f6c	; 0x2f6c <__umulhisi3>
    2120:	6b 01       	movw	r12, r22
    2122:	7c 01       	movw	r14, r24
    2124:	24 2f       	mov	r18, r20
    2126:	30 e0       	ldi	r19, 0x00	; 0
    2128:	ac e3       	ldi	r26, 0x3C	; 60
    212a:	b0 e0       	ldi	r27, 0x00	; 0
    212c:	0e 94 b6 17 	call	0x2f6c	; 0x2f6c <__umulhisi3>
    2130:	dc 01       	movw	r26, r24
    2132:	cb 01       	movw	r24, r22
    2134:	8c 0d       	add	r24, r12
    2136:	9d 1d       	adc	r25, r13
    2138:	ae 1d       	adc	r26, r14
    213a:	bf 1d       	adc	r27, r15
    213c:	21 81       	ldd	r18, Z+1	; 0x01
    213e:	82 0f       	add	r24, r18
    2140:	91 1d       	adc	r25, r1
    2142:	a1 1d       	adc	r26, r1
    2144:	b1 1d       	adc	r27, r1
    2146:	80 93 a4 03 	sts	0x03A4, r24	; 0x8003a4 <timer_counter>
    214a:	90 93 a5 03 	sts	0x03A5, r25	; 0x8003a5 <timer_counter+0x1>
    214e:	a0 93 a6 03 	sts	0x03A6, r26	; 0x8003a6 <timer_counter+0x2>
    2152:	b0 93 a7 03 	sts	0x03A7, r27	; 0x8003a7 <timer_counter+0x3>
    2156:	08 c0       	rjmp	.+16     	; 0x2168 <regenpumpe_aktivieren+0x78>
    2158:	10 92 a4 03 	sts	0x03A4, r1	; 0x8003a4 <timer_counter>
    215c:	10 92 a5 03 	sts	0x03A5, r1	; 0x8003a5 <timer_counter+0x1>
    2160:	10 92 a6 03 	sts	0x03A6, r1	; 0x8003a6 <timer_counter+0x2>
    2164:	10 92 a7 03 	sts	0x03A7, r1	; 0x8003a7 <timer_counter+0x3>
    2168:	ff 90       	pop	r15
    216a:	ef 90       	pop	r14
    216c:	df 90       	pop	r13
    216e:	cf 90       	pop	r12
    2170:	08 95       	ret

00002172 <lampen_schalten>:
    2172:	0f 93       	push	r16
    2174:	1f 93       	push	r17
    2176:	cf 93       	push	r28
    2178:	df 93       	push	r29
    217a:	47 ee       	ldi	r20, 0xE7	; 231
    217c:	53 e0       	ldi	r21, 0x03	; 3
    217e:	6f e1       	ldi	r22, 0x1F	; 31
    2180:	74 e0       	ldi	r23, 0x04	; 4
    2182:	86 e2       	ldi	r24, 0x26	; 38
    2184:	94 e0       	ldi	r25, 0x04	; 4
    2186:	0e 94 8a 0f 	call	0x1f14	; 0x1f14 <vergleiche_zeiten>
    218a:	90 91 91 04 	lds	r25, 0x0491	; 0x800491 <zustandsbit>
    218e:	88 23       	and	r24, r24
    2190:	11 f0       	breq	.+4      	; 0x2196 <lampen_schalten+0x24>
    2192:	94 60       	ori	r25, 0x04	; 4
    2194:	01 c0       	rjmp	.+2      	; 0x2198 <lampen_schalten+0x26>
    2196:	9b 7f       	andi	r25, 0xFB	; 251
    2198:	90 93 91 04 	sts	0x0491, r25	; 0x800491 <zustandsbit>
    219c:	47 ee       	ldi	r20, 0xE7	; 231
    219e:	53 e0       	ldi	r21, 0x03	; 3
    21a0:	6c e4       	ldi	r22, 0x4C	; 76
    21a2:	74 e0       	ldi	r23, 0x04	; 4
    21a4:	85 e4       	ldi	r24, 0x45	; 69
    21a6:	94 e0       	ldi	r25, 0x04	; 4
    21a8:	0e 94 8a 0f 	call	0x1f14	; 0x1f14 <vergleiche_zeiten>
    21ac:	90 91 91 04 	lds	r25, 0x0491	; 0x800491 <zustandsbit>
    21b0:	88 23       	and	r24, r24
    21b2:	11 f0       	breq	.+4      	; 0x21b8 <lampen_schalten+0x46>
    21b4:	98 60       	ori	r25, 0x08	; 8
    21b6:	01 c0       	rjmp	.+2      	; 0x21ba <lampen_schalten+0x48>
    21b8:	97 7f       	andi	r25, 0xF7	; 247
    21ba:	90 93 91 04 	sts	0x0491, r25	; 0x800491 <zustandsbit>
    21be:	c7 e6       	ldi	r28, 0x67	; 103
    21c0:	d4 e0       	ldi	r29, 0x04	; 4
    21c2:	00 e0       	ldi	r16, 0x00	; 0
    21c4:	10 e0       	ldi	r17, 0x00	; 0
    21c6:	80 91 f0 02 	lds	r24, 0x02F0	; 0x8002f0 <regenzeitenanzahl>
    21ca:	08 2e       	mov	r0, r24
    21cc:	00 0c       	add	r0, r0
    21ce:	99 0b       	sbc	r25, r25
    21d0:	08 17       	cp	r16, r24
    21d2:	19 07       	cpc	r17, r25
    21d4:	a4 f4       	brge	.+40     	; 0x21fe <lampen_schalten+0x8c>
    21d6:	80 91 91 04 	lds	r24, 0x0491	; 0x800491 <zustandsbit>
    21da:	85 fd       	sbrc	r24, 5
    21dc:	0c c0       	rjmp	.+24     	; 0x21f6 <lampen_schalten+0x84>
    21de:	47 ee       	ldi	r20, 0xE7	; 231
    21e0:	53 e0       	ldi	r21, 0x03	; 3
    21e2:	be 01       	movw	r22, r28
    21e4:	ce 01       	movw	r24, r28
    21e6:	0e 94 8a 0f 	call	0x1f14	; 0x1f14 <vergleiche_zeiten>
    21ea:	88 23       	and	r24, r24
    21ec:	21 f0       	breq	.+8      	; 0x21f6 <lampen_schalten+0x84>
    21ee:	8a e8       	ldi	r24, 0x8A	; 138
    21f0:	94 e0       	ldi	r25, 0x04	; 4
    21f2:	0e 94 78 10 	call	0x20f0	; 0x20f0 <regenpumpe_aktivieren>
    21f6:	0f 5f       	subi	r16, 0xFF	; 255
    21f8:	1f 4f       	sbci	r17, 0xFF	; 255
    21fa:	27 96       	adiw	r28, 0x07	; 7
    21fc:	e4 cf       	rjmp	.-56     	; 0x21c6 <lampen_schalten+0x54>
    21fe:	df 91       	pop	r29
    2200:	cf 91       	pop	r28
    2202:	1f 91       	pop	r17
    2204:	0f 91       	pop	r16
    2206:	08 95       	ret

00002208 <read_eeprom_daten>:
    2208:	f8 94       	cli
    220a:	86 e7       	ldi	r24, 0x76	; 118
    220c:	90 e0       	ldi	r25, 0x00	; 0
    220e:	0e 94 ea 1a 	call	0x35d4	; 0x35d4 <eeprom_read_byte>
    2212:	80 93 fc 02 	sts	0x02FC, r24	; 0x8002fc <temperatur_offset>
    2216:	85 e7       	ldi	r24, 0x75	; 117
    2218:	90 e0       	ldi	r25, 0x00	; 0
    221a:	0e 94 ea 1a 	call	0x35d4	; 0x35d4 <eeprom_read_byte>
    221e:	80 93 f1 02 	sts	0x02F1, r24	; 0x8002f1 <mondlicht_helligkeit>
    2222:	46 e1       	ldi	r20, 0x16	; 22
    2224:	50 e0       	ldi	r21, 0x00	; 0
    2226:	67 e4       	ldi	r22, 0x47	; 71
    2228:	70 e0       	ldi	r23, 0x00	; 0
    222a:	8e e8       	ldi	r24, 0x8E	; 142
    222c:	93 e0       	ldi	r25, 0x03	; 3
    222e:	0e 94 da 1a 	call	0x35b4	; 0x35b4 <eeprom_read_block>
    2232:	47 e0       	ldi	r20, 0x07	; 7
    2234:	50 e0       	ldi	r21, 0x00	; 0
    2236:	60 e4       	ldi	r22, 0x40	; 64
    2238:	70 e0       	ldi	r23, 0x00	; 0
    223a:	86 e2       	ldi	r24, 0x26	; 38
    223c:	94 e0       	ldi	r25, 0x04	; 4
    223e:	0e 94 da 1a 	call	0x35b4	; 0x35b4 <eeprom_read_block>
    2242:	47 e0       	ldi	r20, 0x07	; 7
    2244:	50 e0       	ldi	r21, 0x00	; 0
    2246:	69 e3       	ldi	r22, 0x39	; 57
    2248:	70 e0       	ldi	r23, 0x00	; 0
    224a:	8f e1       	ldi	r24, 0x1F	; 31
    224c:	94 e0       	ldi	r25, 0x04	; 4
    224e:	0e 94 da 1a 	call	0x35b4	; 0x35b4 <eeprom_read_block>
    2252:	47 e0       	ldi	r20, 0x07	; 7
    2254:	50 e0       	ldi	r21, 0x00	; 0
    2256:	62 e3       	ldi	r22, 0x32	; 50
    2258:	70 e0       	ldi	r23, 0x00	; 0
    225a:	85 e4       	ldi	r24, 0x45	; 69
    225c:	94 e0       	ldi	r25, 0x04	; 4
    225e:	0e 94 da 1a 	call	0x35b4	; 0x35b4 <eeprom_read_block>
    2262:	47 e0       	ldi	r20, 0x07	; 7
    2264:	50 e0       	ldi	r21, 0x00	; 0
    2266:	6b e2       	ldi	r22, 0x2B	; 43
    2268:	70 e0       	ldi	r23, 0x00	; 0
    226a:	8c e4       	ldi	r24, 0x4C	; 76
    226c:	94 e0       	ldi	r25, 0x04	; 4
    226e:	0e 94 da 1a 	call	0x35b4	; 0x35b4 <eeprom_read_block>
    2272:	46 e0       	ldi	r20, 0x06	; 6
    2274:	50 e0       	ldi	r21, 0x00	; 0
    2276:	6f e6       	ldi	r22, 0x6F	; 111
    2278:	70 e0       	ldi	r23, 0x00	; 0
    227a:	8e ee       	ldi	r24, 0xEE	; 238
    227c:	93 e0       	ldi	r25, 0x03	; 3
    227e:	0e 94 da 1a 	call	0x35b4	; 0x35b4 <eeprom_read_block>
    2282:	46 e0       	ldi	r20, 0x06	; 6
    2284:	50 e0       	ldi	r21, 0x00	; 0
    2286:	69 e6       	ldi	r22, 0x69	; 105
    2288:	70 e0       	ldi	r23, 0x00	; 0
    228a:	81 ee       	ldi	r24, 0xE1	; 225
    228c:	93 e0       	ldi	r25, 0x03	; 3
    228e:	0e 94 da 1a 	call	0x35b4	; 0x35b4 <eeprom_read_block>
    2292:	46 e0       	ldi	r20, 0x06	; 6
    2294:	50 e0       	ldi	r21, 0x00	; 0
    2296:	63 e6       	ldi	r22, 0x63	; 99
    2298:	70 e0       	ldi	r23, 0x00	; 0
    229a:	81 eb       	ldi	r24, 0xB1	; 177
    229c:	93 e0       	ldi	r25, 0x03	; 3
    229e:	0e 94 da 1a 	call	0x35b4	; 0x35b4 <eeprom_read_block>
    22a2:	46 e0       	ldi	r20, 0x06	; 6
    22a4:	50 e0       	ldi	r21, 0x00	; 0
    22a6:	64 e2       	ldi	r22, 0x24	; 36
    22a8:	70 e0       	ldi	r23, 0x00	; 0
    22aa:	8a e8       	ldi	r24, 0x8A	; 138
    22ac:	94 e0       	ldi	r25, 0x04	; 4
    22ae:	0e 94 da 1a 	call	0x35b4	; 0x35b4 <eeprom_read_block>
    22b2:	43 e2       	ldi	r20, 0x23	; 35
    22b4:	50 e0       	ldi	r21, 0x00	; 0
    22b6:	61 e0       	ldi	r22, 0x01	; 1
    22b8:	70 e0       	ldi	r23, 0x00	; 0
    22ba:	87 e6       	ldi	r24, 0x67	; 103
    22bc:	94 e0       	ldi	r25, 0x04	; 4
    22be:	0e 94 da 1a 	call	0x35b4	; 0x35b4 <eeprom_read_block>
    22c2:	80 e0       	ldi	r24, 0x00	; 0
    22c4:	90 e0       	ldi	r25, 0x00	; 0
    22c6:	0e 94 ea 1a 	call	0x35d4	; 0x35d4 <eeprom_read_byte>
    22ca:	80 93 f0 02 	sts	0x02F0, r24	; 0x8002f0 <regenzeitenanzahl>
    22ce:	78 94       	sei
    22d0:	08 95       	ret

000022d2 <mondlicht_dimmer>:
 * PA:void
 *************************************************************************/
void mondlicht_dimmer(uint8_t helligkeit)
{
	static uint16_t pwm_wert;							// Wert für den compare-match des Timers 0-255
	pwm_wert = (((uint16_t) helligkeit * 255) /100);	// Helligkeit in Prozent in 0-255 für den compare match umrechnen
    22d2:	2f ef       	ldi	r18, 0xFF	; 255
    22d4:	82 9f       	mul	r24, r18
    22d6:	c0 01       	movw	r24, r0
    22d8:	11 24       	eor	r1, r1
    22da:	64 e6       	ldi	r22, 0x64	; 100
    22dc:	70 e0       	ldi	r23, 0x00	; 0
    22de:	0e 94 61 17 	call	0x2ec2	; 0x2ec2 <__udivmodhi4>
	OCR1B = pwm_wert;									// Timer schaltet den OC1B Ausgang beim angegebenen pwm_wert um
    22e2:	70 93 8b 00 	sts	0x008B, r23	; 0x80008b <__DATA_REGION_ORIGIN__+0x2b>
    22e6:	60 93 8a 00 	sts	0x008A, r22	; 0x80008a <__DATA_REGION_ORIGIN__+0x2a>
    22ea:	08 95       	ret

000022ec <menu_mondlicht_helligkeit_einstellen>:
 * PE:uint8_t * helligkeit_pointer // Pointer auf Wert der Helligkeit 0 -100
 * PE:uint8_t * eeprom  // // EEPROM Speicherplatz der Helligkeit
 * PA:void
 *************************************************************************/
void menu_mondlicht_helligkeit_einstellen( uint8_t * helligkeit_pointer, uint8_t *eeprom)
{
    22ec:	9f 92       	push	r9
    22ee:	af 92       	push	r10
    22f0:	bf 92       	push	r11
    22f2:	cf 92       	push	r12
    22f4:	df 92       	push	r13
    22f6:	ef 92       	push	r14
    22f8:	ff 92       	push	r15
    22fa:	0f 93       	push	r16
    22fc:	1f 93       	push	r17
    22fe:	cf 93       	push	r28
    2300:	df 93       	push	r29
    2302:	ec 01       	movw	r28, r24
    2304:	5b 01       	movw	r10, r22
	uint8_t display_update =1; // Hilfsvariablen 
	uint8_t helligkeit_alt; 
	helligkeit_alt = *helligkeit_pointer; // Falls der Wert nicht geändert werden soll, aktuelle Helligkeit zwischenspeichern
    2306:	08 81       	ld	r16, Y
	
	lcd_printlc(3,1,(unsigned char*)"Helligkeit:   ");
    2308:	4c e9       	ldi	r20, 0x9C	; 156
    230a:	52 e0       	ldi	r21, 0x02	; 2
    230c:	61 e0       	ldi	r22, 0x01	; 1
    230e:	83 e0       	ldi	r24, 0x03	; 3
    2310:	0e 94 8d 04 	call	0x91a	; 0x91a <lcd_printlc>
 * PE:uint8_t * eeprom  // // EEPROM Speicherplatz der Helligkeit
 * PA:void
 *************************************************************************/
void menu_mondlicht_helligkeit_einstellen( uint8_t * helligkeit_pointer, uint8_t *eeprom)
{
	uint8_t display_update =1; // Hilfsvariablen 
    2314:	11 e0       	ldi	r17, 0x01	; 1
		
	
	if(display_update)										// Wenn sich die Helligkeit geändert hat
       {
            display_update =0;  //
            sprintf(anzeigetext1, "%03u%%", *helligkeit_pointer);	// Helligkeit in String umwandeln
    2316:	8b ea       	ldi	r24, 0xAB	; 171
    2318:	e8 2e       	mov	r14, r24
    231a:	82 e0       	ldi	r24, 0x02	; 2
    231c:	f8 2e       	mov	r15, r24
    231e:	99 e0       	ldi	r25, 0x09	; 9
    2320:	c9 2e       	mov	r12, r25
    2322:	94 e0       	ldi	r25, 0x04	; 4
    2324:	d9 2e       	mov	r13, r25
            (*helligkeit_pointer == 100) ? (*helligkeit_pointer =0) : (*helligkeit_pointer+=1);	//Abfrage ob Helligkeit 100% und dann Wert setzen
            display_update = 1;																	// Helligkeit hat sich geändert
        }
        else if ( get_key_press( 1<<KEY_DOWN ) | get_key_rpt(1<< KEY_DOWN))						// Taste DOWN gedrückt
        {
            (*helligkeit_pointer == 0) ? (*helligkeit_pointer =100) : (*helligkeit_pointer-=1);	//Abfrage ob Helligkeit 0% und dann Wert setzen
    2326:	24 e6       	ldi	r18, 0x64	; 100
    2328:	92 2e       	mov	r9, r18
	
	lcd_printlc(3,1,(unsigned char*)"Helligkeit:   ");
	
	while(true)
	{
	mondlicht_dimmer(*helligkeit_pointer);					// Mondlicht LED einschalten mit aktuellem Helligkeitswert
    232a:	88 81       	ld	r24, Y
    232c:	0e 94 69 11 	call	0x22d2	; 0x22d2 <mondlicht_dimmer>
		
	
	if(display_update)										// Wenn sich die Helligkeit geändert hat
    2330:	11 23       	and	r17, r17
    2332:	a9 f0       	breq	.+42     	; 0x235e <menu_mondlicht_helligkeit_einstellen+0x72>
       {
            display_update =0;  //
            sprintf(anzeigetext1, "%03u%%", *helligkeit_pointer);	// Helligkeit in String umwandeln
    2334:	88 81       	ld	r24, Y
    2336:	1f 92       	push	r1
    2338:	8f 93       	push	r24
    233a:	ff 92       	push	r15
    233c:	ef 92       	push	r14
    233e:	df 92       	push	r13
    2340:	cf 92       	push	r12
    2342:	0e 94 17 18 	call	0x302e	; 0x302e <sprintf>
            lcd_printlr(3,13,(unsigned char*)anzeigetext1);		// Helligkeit ausgeben
    2346:	49 e0       	ldi	r20, 0x09	; 9
    2348:	54 e0       	ldi	r21, 0x04	; 4
    234a:	6d e0       	ldi	r22, 0x0D	; 13
    234c:	83 e0       	ldi	r24, 0x03	; 3
    234e:	0e 94 d5 04 	call	0x9aa	; 0x9aa <lcd_printlr>
    2352:	0f 90       	pop	r0
    2354:	0f 90       	pop	r0
    2356:	0f 90       	pop	r0
    2358:	0f 90       	pop	r0
    235a:	0f 90       	pop	r0
    235c:	0f 90       	pop	r0
        }
        
	 
        if (get_key_press( 1<<KEY_OK) | get_key_rpt(1<< KEY_OK))// Wenn Taste OK gedrückt -> Helligkeit speichern und Menue verlassen
    235e:	84 e0       	ldi	r24, 0x04	; 4
    2360:	0e 94 80 16 	call	0x2d00	; 0x2d00 <get_key_press>
    2364:	18 2f       	mov	r17, r24
    2366:	84 e0       	ldi	r24, 0x04	; 4
    2368:	0e 94 8b 16 	call	0x2d16	; 0x2d16 <get_key_rpt>
    236c:	81 2b       	or	r24, r17
    236e:	51 f1       	breq	.+84     	; 0x23c4 <menu_mondlicht_helligkeit_einstellen+0xd8>
 *************************************************************************/
void mondlicht_dimmer(uint8_t helligkeit)
{
	static uint16_t pwm_wert;							// Wert für den compare-match des Timers 0-255
	pwm_wert = (((uint16_t) helligkeit * 255) /100);	// Helligkeit in Prozent in 0-255 für den compare match umrechnen
	OCR1B = pwm_wert;									// Timer schaltet den OC1B Ausgang beim angegebenen pwm_wert um
    2370:	10 92 8b 00 	sts	0x008B, r1	; 0x80008b <__DATA_REGION_ORIGIN__+0x2b>
    2374:	10 92 8a 00 	sts	0x008A, r1	; 0x80008a <__DATA_REGION_ORIGIN__+0x2a>
        
	 
        if (get_key_press( 1<<KEY_OK) | get_key_rpt(1<< KEY_OK))// Wenn Taste OK gedrückt -> Helligkeit speichern und Menue verlassen
        {
			mondlicht_dimmer(0);							// Mondlicht LED ausschalten
            lcd_command(LCD_CLEAR);
    2378:	81 e0       	ldi	r24, 0x01	; 1
    237a:	0e 94 02 05 	call	0xa04	; 0xa04 <lcd_command>
            lcd_printlc(1,1,(unsigned char*) "Speichere Daten");
    237e:	47 e3       	ldi	r20, 0x37	; 55
    2380:	52 e0       	ldi	r21, 0x02	; 2
    2382:	61 e0       	ldi	r22, 0x01	; 1
    2384:	81 e0       	ldi	r24, 0x01	; 1
    2386:	0e 94 8d 04 	call	0x91a	; 0x91a <lcd_printlc>
			cli();
    238a:	f8 94       	cli
            eeprom_write_byte(eeprom, *helligkeit_pointer);	// Schreibe Helligkeit in EEPROM
    238c:	68 81       	ld	r22, Y
    238e:	c5 01       	movw	r24, r10
    2390:	0e 94 fc 1a 	call	0x35f8	; 0x35f8 <eeprom_write_byte>
			sei();
    2394:	78 94       	sei
    2396:	2f ef       	ldi	r18, 0xFF	; 255
    2398:	89 e6       	ldi	r24, 0x69	; 105
    239a:	98 e1       	ldi	r25, 0x18	; 24
    239c:	21 50       	subi	r18, 0x01	; 1
    239e:	80 40       	sbci	r24, 0x00	; 0
    23a0:	90 40       	sbci	r25, 0x00	; 0
    23a2:	e1 f7       	brne	.-8      	; 0x239c <menu_mondlicht_helligkeit_einstellen+0xb0>
    23a4:	00 c0       	rjmp	.+0      	; 0x23a6 <menu_mondlicht_helligkeit_einstellen+0xba>
    23a6:	00 00       	nop
            _delay_ms(500);
            lcd_command(LCD_CLEAR);
    23a8:	81 e0       	ldi	r24, 0x01	; 1
        {
            (*helligkeit_pointer == 0) ? (*helligkeit_pointer =100) : (*helligkeit_pointer-=1);	//Abfrage ob Helligkeit 0% und dann Wert setzen
            display_update = 1;																	// Helligkeit hat sich geändert
        }
	}			
}
    23aa:	df 91       	pop	r29
    23ac:	cf 91       	pop	r28
    23ae:	1f 91       	pop	r17
    23b0:	0f 91       	pop	r16
    23b2:	ff 90       	pop	r15
    23b4:	ef 90       	pop	r14
    23b6:	df 90       	pop	r13
    23b8:	cf 90       	pop	r12
    23ba:	bf 90       	pop	r11
    23bc:	af 90       	pop	r10
    23be:	9f 90       	pop	r9
            lcd_printlc(1,1,(unsigned char*) "Speichere Daten");
			cli();
            eeprom_write_byte(eeprom, *helligkeit_pointer);	// Schreibe Helligkeit in EEPROM
			sei();
            _delay_ms(500);
            lcd_command(LCD_CLEAR);
    23c0:	0c 94 02 05 	jmp	0xa04	; 0xa04 <lcd_command>
            break;											// Menue verlassen
        }
        if (get_key_press( 1<<KEY_ESC) | get_key_rpt(1<< KEY_ESC))// Wenn Taste ESC gedrückt -> Alte Helligkeit behalten und Menue verlassen
    23c4:	80 e2       	ldi	r24, 0x20	; 32
    23c6:	0e 94 80 16 	call	0x2d00	; 0x2d00 <get_key_press>
    23ca:	18 2f       	mov	r17, r24
    23cc:	80 e2       	ldi	r24, 0x20	; 32
    23ce:	0e 94 8b 16 	call	0x2d16	; 0x2d16 <get_key_rpt>
    23d2:	81 2b       	or	r24, r17
    23d4:	89 f0       	breq	.+34     	; 0x23f8 <menu_mondlicht_helligkeit_einstellen+0x10c>
        {
            *helligkeit_pointer = helligkeit_alt;			// Neue Helligkeit verwerfen
    23d6:	08 83       	st	Y, r16
 *************************************************************************/
void mondlicht_dimmer(uint8_t helligkeit)
{
	static uint16_t pwm_wert;							// Wert für den compare-match des Timers 0-255
	pwm_wert = (((uint16_t) helligkeit * 255) /100);	// Helligkeit in Prozent in 0-255 für den compare match umrechnen
	OCR1B = pwm_wert;									// Timer schaltet den OC1B Ausgang beim angegebenen pwm_wert um
    23d8:	10 92 8b 00 	sts	0x008B, r1	; 0x80008b <__DATA_REGION_ORIGIN__+0x2b>
    23dc:	10 92 8a 00 	sts	0x008A, r1	; 0x80008a <__DATA_REGION_ORIGIN__+0x2a>
        {
            (*helligkeit_pointer == 0) ? (*helligkeit_pointer =100) : (*helligkeit_pointer-=1);	//Abfrage ob Helligkeit 0% und dann Wert setzen
            display_update = 1;																	// Helligkeit hat sich geändert
        }
	}			
}
    23e0:	df 91       	pop	r29
    23e2:	cf 91       	pop	r28
    23e4:	1f 91       	pop	r17
    23e6:	0f 91       	pop	r16
    23e8:	ff 90       	pop	r15
    23ea:	ef 90       	pop	r14
    23ec:	df 90       	pop	r13
    23ee:	cf 90       	pop	r12
    23f0:	bf 90       	pop	r11
    23f2:	af 90       	pop	r10
    23f4:	9f 90       	pop	r9
    23f6:	08 95       	ret
            *helligkeit_pointer = helligkeit_alt;			// Neue Helligkeit verwerfen
			mondlicht_dimmer(0);							// Mondlicht LED ausschalten
            break;											// Menue verlassen
        }
		
		if (get_key_press( 1<<KEY_UP) | get_key_rpt(1<< KEY_UP))// Taste UP gedrückt
    23f8:	81 e0       	ldi	r24, 0x01	; 1
    23fa:	0e 94 80 16 	call	0x2d00	; 0x2d00 <get_key_press>
    23fe:	18 2f       	mov	r17, r24
    2400:	81 e0       	ldi	r24, 0x01	; 1
    2402:	0e 94 8b 16 	call	0x2d16	; 0x2d16 <get_key_rpt>
    2406:	81 2b       	or	r24, r17
    2408:	39 f0       	breq	.+14     	; 0x2418 <menu_mondlicht_helligkeit_einstellen+0x12c>
        {
            (*helligkeit_pointer == 100) ? (*helligkeit_pointer =0) : (*helligkeit_pointer+=1);	//Abfrage ob Helligkeit 100% und dann Wert setzen
    240a:	88 81       	ld	r24, Y
    240c:	84 36       	cpi	r24, 0x64	; 100
    240e:	11 f4       	brne	.+4      	; 0x2414 <menu_mondlicht_helligkeit_einstellen+0x128>
    2410:	18 82       	st	Y, r1
    2412:	14 c0       	rjmp	.+40     	; 0x243c <menu_mondlicht_helligkeit_einstellen+0x150>
    2414:	8f 5f       	subi	r24, 0xFF	; 255
    2416:	11 c0       	rjmp	.+34     	; 0x243a <menu_mondlicht_helligkeit_einstellen+0x14e>
            display_update = 1;																	// Helligkeit hat sich geändert
        }
        else if ( get_key_press( 1<<KEY_DOWN ) | get_key_rpt(1<< KEY_DOWN))						// Taste DOWN gedrückt
    2418:	80 e1       	ldi	r24, 0x10	; 16
    241a:	0e 94 80 16 	call	0x2d00	; 0x2d00 <get_key_press>
    241e:	18 2f       	mov	r17, r24
    2420:	80 e1       	ldi	r24, 0x10	; 16
    2422:	0e 94 8b 16 	call	0x2d16	; 0x2d16 <get_key_rpt>
    2426:	81 2b       	or	r24, r17
    2428:	11 f4       	brne	.+4      	; 0x242e <menu_mondlicht_helligkeit_einstellen+0x142>
    242a:	10 e0       	ldi	r17, 0x00	; 0
    242c:	7e cf       	rjmp	.-260    	; 0x232a <menu_mondlicht_helligkeit_einstellen+0x3e>
        {
            (*helligkeit_pointer == 0) ? (*helligkeit_pointer =100) : (*helligkeit_pointer-=1);	//Abfrage ob Helligkeit 0% und dann Wert setzen
    242e:	88 81       	ld	r24, Y
    2430:	81 11       	cpse	r24, r1
    2432:	02 c0       	rjmp	.+4      	; 0x2438 <menu_mondlicht_helligkeit_einstellen+0x14c>
    2434:	98 82       	st	Y, r9
    2436:	02 c0       	rjmp	.+4      	; 0x243c <menu_mondlicht_helligkeit_einstellen+0x150>
    2438:	81 50       	subi	r24, 0x01	; 1
    243a:	88 83       	st	Y, r24
            display_update = 1;																	// Helligkeit hat sich geändert
    243c:	11 e0       	ldi	r17, 0x01	; 1
    243e:	75 cf       	rjmp	.-278    	; 0x232a <menu_mondlicht_helligkeit_einstellen+0x3e>

00002440 <funkt_menu_mondlicht_helligkeit>:
 * PE:void
 * PA:void
*************************************************************************/
void funkt_menu_mondlicht_helligkeit(void)
{
	lcd_command(LCD_CLEAR);
    2440:	81 e0       	ldi	r24, 0x01	; 1
    2442:	0e 94 02 05 	call	0xa04	; 0xa04 <lcd_command>
	lcd_printlc(1,1,(unsigned char*) strcpy_P (anzeigetext,PSTR("Mondlicht Helligkeit")));	// Menüstring anzeigen
    2446:	64 e3       	ldi	r22, 0x34	; 52
    2448:	72 e0       	ldi	r23, 0x02	; 2
    244a:	87 eb       	ldi	r24, 0xB7	; 183
    244c:	93 e0       	ldi	r25, 0x03	; 3
    244e:	0e 94 d7 17 	call	0x2fae	; 0x2fae <strcpy_P>
    2452:	ac 01       	movw	r20, r24
    2454:	61 e0       	ldi	r22, 0x01	; 1
    2456:	81 e0       	ldi	r24, 0x01	; 1
    2458:	0e 94 8d 04 	call	0x91a	; 0x91a <lcd_printlc>
	lcd_printlc(2,1,(unsigned char*) strcpy_P (anzeigetext,PSTR("anpassen: ")));			// Menüstring anzeigen
    245c:	69 e2       	ldi	r22, 0x29	; 41
    245e:	72 e0       	ldi	r23, 0x02	; 2
    2460:	87 eb       	ldi	r24, 0xB7	; 183
    2462:	93 e0       	ldi	r25, 0x03	; 3
    2464:	0e 94 d7 17 	call	0x2fae	; 0x2fae <strcpy_P>
    2468:	ac 01       	movw	r20, r24
    246a:	61 e0       	ldi	r22, 0x01	; 1
    246c:	82 e0       	ldi	r24, 0x02	; 2
    246e:	0e 94 8d 04 	call	0x91a	; 0x91a <lcd_printlc>
	// Eigentliches Menü für die Einstellung der Dimmung mit entsprechenden Übergabewerten aufrufen
	menu_mondlicht_helligkeit_einstellen(&mondlicht_helligkeit, &mondlicht_helligkeit_eeprom);
    2472:	65 e7       	ldi	r22, 0x75	; 117
    2474:	70 e0       	ldi	r23, 0x00	; 0
    2476:	81 ef       	ldi	r24, 0xF1	; 241
    2478:	92 e0       	ldi	r25, 0x02	; 2
    247a:	0e 94 76 11 	call	0x22ec	; 0x22ec <menu_mondlicht_helligkeit_einstellen>
	lcd_command(LCD_CLEAR);
    247e:	81 e0       	ldi	r24, 0x01	; 1
    2480:	0c 94 02 05 	jmp	0xa04	; 0xa04 <lcd_command>

00002484 <ausgaenge_ansteuern>:
 * die Hardwareausgänge entsprechen dem Modus der Anlage schalten
 * PE:void
 * PA:void
 *************************************************************************/
void ausgaenge_ansteuern(void)
{
    2484:	0f 93       	push	r16
    2486:	1f 93       	push	r17
    2488:	cf 93       	push	r28
	/*************************************************************************
	* Wenn Steuerung in RUN Mode
	*************************************************************************/
	if(zustandsbit.run)  
    248a:	80 91 91 04 	lds	r24, 0x0491	; 0x800491 <zustandsbit>
    248e:	84 ff       	sbrs	r24, 4
    2490:	97 c0       	rjmp	.+302    	; 0x25c0 <ausgaenge_ansteuern+0x13c>
	{
		RUNLED_ON;								// LED für Zustand RUN einschalten
    2492:	47 9a       	sbi	0x08, 7	; 8
		if(zustandsbit.heizer) HEIZER_ON;	// Heizer ein oder ausschalten
    2494:	80 91 91 04 	lds	r24, 0x0491	; 0x800491 <zustandsbit>
    2498:	80 ff       	sbrs	r24, 0
    249a:	02 c0       	rjmp	.+4      	; 0x24a0 <ausgaenge_ansteuern+0x1c>
    249c:	12 9a       	sbi	0x02, 2	; 2
    249e:	01 c0       	rjmp	.+2      	; 0x24a2 <ausgaenge_ansteuern+0x1e>
		else HEIZER_OFF;
    24a0:	12 98       	cbi	0x02, 2	; 2
		if(zustandsbit.luefter) LUEFTER_ON;	// Lüfter ein oder ausschalten
    24a2:	80 91 91 04 	lds	r24, 0x0491	; 0x800491 <zustandsbit>
    24a6:	81 ff       	sbrs	r24, 1
    24a8:	02 c0       	rjmp	.+4      	; 0x24ae <ausgaenge_ansteuern+0x2a>
    24aa:	11 9a       	sbi	0x02, 1	; 2
    24ac:	01 c0       	rjmp	.+2      	; 0x24b0 <ausgaenge_ansteuern+0x2c>
		else LUEFTER_OFF;
    24ae:	11 98       	cbi	0x02, 1	; 2
		if(zustandsbit.lampe) LAMPE_ON;		// Lampe ein oder ausschalten
    24b0:	80 91 91 04 	lds	r24, 0x0491	; 0x800491 <zustandsbit>
    24b4:	82 ff       	sbrs	r24, 2
    24b6:	02 c0       	rjmp	.+4      	; 0x24bc <ausgaenge_ansteuern+0x38>
    24b8:	13 9a       	sbi	0x02, 3	; 2
    24ba:	01 c0       	rjmp	.+2      	; 0x24be <ausgaenge_ansteuern+0x3a>
		else LAMPE_OFF;
    24bc:	13 98       	cbi	0x02, 3	; 2
		// Mondlicht entsprechend den Dimmwert einschalten
		if(zustandsbit.mondlicht) mondlicht_dimmer(mondlicht_helligkeit);
    24be:	80 91 91 04 	lds	r24, 0x0491	; 0x800491 <zustandsbit>
    24c2:	83 ff       	sbrs	r24, 3
    24c4:	05 c0       	rjmp	.+10     	; 0x24d0 <ausgaenge_ansteuern+0x4c>
    24c6:	80 91 f1 02 	lds	r24, 0x02F1	; 0x8002f1 <mondlicht_helligkeit>
    24ca:	0e 94 69 11 	call	0x22d2	; 0x22d2 <mondlicht_dimmer>
    24ce:	04 c0       	rjmp	.+8      	; 0x24d8 <ausgaenge_ansteuern+0x54>
 *************************************************************************/
void mondlicht_dimmer(uint8_t helligkeit)
{
	static uint16_t pwm_wert;							// Wert für den compare-match des Timers 0-255
	pwm_wert = (((uint16_t) helligkeit * 255) /100);	// Helligkeit in Prozent in 0-255 für den compare match umrechnen
	OCR1B = pwm_wert;									// Timer schaltet den OC1B Ausgang beim angegebenen pwm_wert um
    24d0:	10 92 8b 00 	sts	0x008B, r1	; 0x80008b <__DATA_REGION_ORIGIN__+0x2b>
    24d4:	10 92 8a 00 	sts	0x008A, r1	; 0x80008a <__DATA_REGION_ORIGIN__+0x2a>
		else LAMPE_OFF;
		// Mondlicht entsprechend den Dimmwert einschalten
		if(zustandsbit.mondlicht) mondlicht_dimmer(mondlicht_helligkeit);
		else mondlicht_dimmer(0); // Mondlicht ausschalten
		
		if (alarm_vektor) // Wenn ein Alarm anliegt -> Alarmgeber einschalten
    24d8:	80 91 ef 02 	lds	r24, 0x02EF	; 0x8002ef <alarm_vektor>
    24dc:	88 23       	and	r24, r24
    24de:	11 f0       	breq	.+4      	; 0x24e4 <ausgaenge_ansteuern+0x60>
		{
			ALARMLED_ON;
    24e0:	46 9a       	sbi	0x08, 6	; 8
    24e2:	02 c0       	rjmp	.+4      	; 0x24e8 <ausgaenge_ansteuern+0x64>
			//BUZZER_ON;
		}
		else			// Ansonsten Alarmgeber ausschalten
		{
			ALARMLED_OFF;
    24e4:	46 98       	cbi	0x08, 6	; 8
			BUZZER_OFF;
    24e6:	5d 98       	cbi	0x0b, 5	; 11
		/*************************************************************************
		*  Sensorwerte für die Tages Max und Min Werte abfragen und entsprechend schreiben
		*************************************************************************/
		// Abfrage ober bisherige Max und Min  Temperaturen über/unterschritten 
		
		for (i = 0; i < 3; i++)
    24e8:	10 92 08 04 	sts	0x0408, r1	; 0x800408 <i>
    24ec:	c0 91 08 04 	lds	r28, 0x0408	; 0x800408 <i>
    24f0:	c3 30       	cpi	r28, 0x03	; 3
    24f2:	d0 f5       	brcc	.+116    	; 0x2568 <ausgaenge_ansteuern+0xe4>
		{
		
			switch (vergleiche_temperaturen(&extrem_temperatur.min_wert,&extrem_temperatur.max_wert,&temperatur[i]))
    24f4:	0c 2f       	mov	r16, r28
    24f6:	10 e0       	ldi	r17, 0x00	; 0
    24f8:	00 0f       	add	r16, r16
    24fa:	11 1f       	adc	r17, r17
    24fc:	0a 50       	subi	r16, 0x0A	; 10
    24fe:	1d 4f       	sbci	r17, 0xFD	; 253
    2500:	a8 01       	movw	r20, r16
    2502:	64 ef       	ldi	r22, 0xF4	; 244
    2504:	73 e0       	ldi	r23, 0x03	; 3
    2506:	86 ef       	ldi	r24, 0xF6	; 246
    2508:	93 e0       	ldi	r25, 0x03	; 3
    250a:	0e 94 75 0f 	call	0x1eea	; 0x1eea <vergleiche_temperaturen>
    250e:	81 30       	cpi	r24, 0x01	; 1
    2510:	a9 f0       	breq	.+42     	; 0x253c <ausgaenge_ansteuern+0xb8>
    2512:	82 30       	cpi	r24, 0x02	; 2
    2514:	29 f5       	brne	.+74     	; 0x2560 <ausgaenge_ansteuern+0xdc>
				extrem_temperatur.max_zeitpunkt = zeit;		// Zeitpunkt mit speichern
				extrem_temperatur.lm76_nr_max = i;
		
				break; 
			case 2: // 2-> Wasser kälter als bisheriger Min Wert
				extrem_temperatur.min_wert = temperatur[i];	// Neuer Min Wert
    2516:	f8 01       	movw	r30, r16
    2518:	80 81       	ld	r24, Z
    251a:	91 81       	ldd	r25, Z+1	; 0x01
    251c:	90 93 f7 03 	sts	0x03F7, r25	; 0x8003f7 <extrem_temperatur+0x3>
    2520:	80 93 f6 03 	sts	0x03F6, r24	; 0x8003f6 <extrem_temperatur+0x2>
				extrem_temperatur.min_zeitpunkt = zeit;		// Zeitpunkt mit speichern
    2524:	87 e0       	ldi	r24, 0x07	; 7
    2526:	e7 ee       	ldi	r30, 0xE7	; 231
    2528:	f3 e0       	ldi	r31, 0x03	; 3
    252a:	af ef       	ldi	r26, 0xFF	; 255
    252c:	b3 e0       	ldi	r27, 0x03	; 3
    252e:	01 90       	ld	r0, Z+
    2530:	0d 92       	st	X+, r0
    2532:	8a 95       	dec	r24
    2534:	e1 f7       	brne	.-8      	; 0x252e <ausgaenge_ansteuern+0xaa>
				extrem_temperatur.lm76_nr_min = i;
    2536:	c0 93 07 04 	sts	0x0407, r28	; 0x800407 <extrem_temperatur+0x13>
				break;  
    253a:	12 c0       	rjmp	.+36     	; 0x2560 <ausgaenge_ansteuern+0xdc>
		{
		
			switch (vergleiche_temperaturen(&extrem_temperatur.min_wert,&extrem_temperatur.max_wert,&temperatur[i]))
			{
			case 1:	// 1-> Wasser wärmer als bisherige Max Wert
				extrem_temperatur.max_wert = temperatur[i];	// Neuer Max Wert
    253c:	f8 01       	movw	r30, r16
    253e:	80 81       	ld	r24, Z
    2540:	91 81       	ldd	r25, Z+1	; 0x01
    2542:	90 93 f5 03 	sts	0x03F5, r25	; 0x8003f5 <extrem_temperatur+0x1>
    2546:	80 93 f4 03 	sts	0x03F4, r24	; 0x8003f4 <extrem_temperatur>
				extrem_temperatur.max_zeitpunkt = zeit;		// Zeitpunkt mit speichern
    254a:	87 e0       	ldi	r24, 0x07	; 7
    254c:	e7 ee       	ldi	r30, 0xE7	; 231
    254e:	f3 e0       	ldi	r31, 0x03	; 3
    2550:	a8 ef       	ldi	r26, 0xF8	; 248
    2552:	b3 e0       	ldi	r27, 0x03	; 3
    2554:	01 90       	ld	r0, Z+
    2556:	0d 92       	st	X+, r0
    2558:	8a 95       	dec	r24
    255a:	e1 f7       	brne	.-8      	; 0x2554 <ausgaenge_ansteuern+0xd0>
				extrem_temperatur.lm76_nr_max = i;
    255c:	c0 93 06 04 	sts	0x0406, r28	; 0x800406 <extrem_temperatur+0x12>
		/*************************************************************************
		*  Sensorwerte für die Tages Max und Min Werte abfragen und entsprechend schreiben
		*************************************************************************/
		// Abfrage ober bisherige Max und Min  Temperaturen über/unterschritten 
		
		for (i = 0; i < 3; i++)
    2560:	cf 5f       	subi	r28, 0xFF	; 255
    2562:	c0 93 08 04 	sts	0x0408, r28	; 0x800408 <i>
    2566:	c2 cf       	rjmp	.-124    	; 0x24ec <ausgaenge_ansteuern+0x68>
			default:
				break;
			}
		}		
			// Abfrage ober bisherige Max und Min  ph Werte über/unterschritten 
		switch (vergleiche_temperaturen((int16_t)&extrem_huminity.min_wert,(int16_t)&extrem_huminity.max_wert,(int16_t)&huminity))
    2568:	44 ef       	ldi	r20, 0xF4	; 244
    256a:	52 e0       	ldi	r21, 0x02	; 2
    256c:	63 e5       	ldi	r22, 0x53	; 83
    256e:	74 e0       	ldi	r23, 0x04	; 4
    2570:	85 e5       	ldi	r24, 0x55	; 85
    2572:	94 e0       	ldi	r25, 0x04	; 4
    2574:	0e 94 75 0f 	call	0x1eea	; 0x1eea <vergleiche_temperaturen>
    2578:	81 30       	cpi	r24, 0x01	; 1
    257a:	81 f0       	breq	.+32     	; 0x259c <ausgaenge_ansteuern+0x118>
    257c:	82 30       	cpi	r24, 0x02	; 2
    257e:	51 f5       	brne	.+84     	; 0x25d4 <ausgaenge_ansteuern+0x150>
		case 1: // ph höher als bisheriger Max Wert
			extrem_huminity.max_wert = huminity;	// Neuer Max Wert
			extrem_huminity.max_zeitpunkt = zeit;	// Zeitpunkt mit speichern
			break;  
		case 2: // pH niedriger als bisheriger Min Wert
			extrem_huminity.min_wert = huminity;	// Neuer Min Wert
    2580:	80 91 f4 02 	lds	r24, 0x02F4	; 0x8002f4 <huminity>
    2584:	90 91 f5 02 	lds	r25, 0x02F5	; 0x8002f5 <huminity+0x1>
    2588:	90 93 56 04 	sts	0x0456, r25	; 0x800456 <extrem_huminity+0x3>
    258c:	80 93 55 04 	sts	0x0455, r24	; 0x800455 <extrem_huminity+0x2>
			extrem_huminity.min_zeitpunkt = zeit;	// Zeitpunkt mit speichern
    2590:	87 e0       	ldi	r24, 0x07	; 7
    2592:	e7 ee       	ldi	r30, 0xE7	; 231
    2594:	f3 e0       	ldi	r31, 0x03	; 3
    2596:	ae e5       	ldi	r26, 0x5E	; 94
    2598:	b4 e0       	ldi	r27, 0x04	; 4
    259a:	0d c0       	rjmp	.+26     	; 0x25b6 <ausgaenge_ansteuern+0x132>
		}		
			// Abfrage ober bisherige Max und Min  ph Werte über/unterschritten 
		switch (vergleiche_temperaturen((int16_t)&extrem_huminity.min_wert,(int16_t)&extrem_huminity.max_wert,(int16_t)&huminity))
		{
		case 1: // ph höher als bisheriger Max Wert
			extrem_huminity.max_wert = huminity;	// Neuer Max Wert
    259c:	80 91 f4 02 	lds	r24, 0x02F4	; 0x8002f4 <huminity>
    25a0:	90 91 f5 02 	lds	r25, 0x02F5	; 0x8002f5 <huminity+0x1>
    25a4:	90 93 54 04 	sts	0x0454, r25	; 0x800454 <extrem_huminity+0x1>
    25a8:	80 93 53 04 	sts	0x0453, r24	; 0x800453 <extrem_huminity>
			extrem_huminity.max_zeitpunkt = zeit;	// Zeitpunkt mit speichern
    25ac:	87 e0       	ldi	r24, 0x07	; 7
    25ae:	e7 ee       	ldi	r30, 0xE7	; 231
    25b0:	f3 e0       	ldi	r31, 0x03	; 3
    25b2:	a7 e5       	ldi	r26, 0x57	; 87
    25b4:	b4 e0       	ldi	r27, 0x04	; 4
			break;  
		case 2: // pH niedriger als bisheriger Min Wert
			extrem_huminity.min_wert = huminity;	// Neuer Min Wert
			extrem_huminity.min_zeitpunkt = zeit;	// Zeitpunkt mit speichern
    25b6:	01 90       	ld	r0, Z+
    25b8:	0d 92       	st	X+, r0
    25ba:	8a 95       	dec	r24
    25bc:	e1 f7       	brne	.-8      	; 0x25b6 <ausgaenge_ansteuern+0x132>
			break;  
    25be:	0a c0       	rjmp	.+20     	; 0x25d4 <ausgaenge_ansteuern+0x150>
	* Wenn Steuerung im Wartungs Mode, alle Verbraucher ausschalten, 
	* bis auf Licht und Pumpe
	*************************************************************************/	
	else
	{
		RUNLED_OFF;
    25c0:	47 98       	cbi	0x08, 7	; 8
		HEIZER_OFF;
    25c2:	12 98       	cbi	0x02, 2	; 2
		LUEFTER_OFF;
    25c4:	11 98       	cbi	0x02, 1	; 2
		LAMPE_ON;
    25c6:	13 9a       	sbi	0x02, 3	; 2
		ALARMLED_OFF;
    25c8:	46 98       	cbi	0x08, 6	; 8
		BUZZER_OFF;
    25ca:	5d 98       	cbi	0x0b, 5	; 11
 *************************************************************************/
void mondlicht_dimmer(uint8_t helligkeit)
{
	static uint16_t pwm_wert;							// Wert für den compare-match des Timers 0-255
	pwm_wert = (((uint16_t) helligkeit * 255) /100);	// Helligkeit in Prozent in 0-255 für den compare match umrechnen
	OCR1B = pwm_wert;									// Timer schaltet den OC1B Ausgang beim angegebenen pwm_wert um
    25cc:	10 92 8b 00 	sts	0x008B, r1	; 0x80008b <__DATA_REGION_ORIGIN__+0x2b>
    25d0:	10 92 8a 00 	sts	0x008A, r1	; 0x80008a <__DATA_REGION_ORIGIN__+0x2a>
		
	}
	/*************************************************************************
	* Pumpe kann in jedem Zustand ab und angeschaltet werden
	*************************************************************************/
	if (zustandsbit.pumpe) PUMPE_ON; // Entsprechend  den Zustand Pumpe an und ausschalten
    25d4:	80 91 91 04 	lds	r24, 0x0491	; 0x800491 <zustandsbit>
    25d8:	85 ff       	sbrs	r24, 5
    25da:	02 c0       	rjmp	.+4      	; 0x25e0 <ausgaenge_ansteuern+0x15c>
    25dc:	10 9a       	sbi	0x02, 0	; 2
    25de:	01 c0       	rjmp	.+2      	; 0x25e2 <ausgaenge_ansteuern+0x15e>
		else PUMPE_OFF;
    25e0:	10 98       	cbi	0x02, 0	; 2
}
    25e2:	cf 91       	pop	r28
    25e4:	1f 91       	pop	r17
    25e6:	0f 91       	pop	r16
    25e8:	08 95       	ret

000025ea <reset_tageswerte>:
 *************************************************************************/
void reset_tageswerte(void)
{
	static uint8_t alter_tag; // Hilfsvariable um festzustellen ob ein neuer Tag angefangen hat
	
	if(alter_tag != zeit.tag) // Feststellen ob das Datum des Tages geändert hat
    25ea:	80 91 ea 03 	lds	r24, 0x03EA	; 0x8003ea <zeit+0x3>
    25ee:	90 91 ed 02 	lds	r25, 0x02ED	; 0x8002ed <alter_tag.2900>
    25f2:	89 17       	cp	r24, r25
    25f4:	09 f4       	brne	.+2      	; 0x25f8 <reset_tageswerte+0xe>
    25f6:	42 c0       	rjmp	.+132    	; 0x267c <reset_tageswerte+0x92>
	{
		extrem_temperatur.max_wert = temperatur[0];	// Max auf aktuelle Temperatur setzen
    25f8:	20 91 f6 02 	lds	r18, 0x02F6	; 0x8002f6 <temperatur>
    25fc:	30 91 f7 02 	lds	r19, 0x02F7	; 0x8002f7 <temperatur+0x1>
    2600:	30 93 f5 03 	sts	0x03F5, r19	; 0x8003f5 <extrem_temperatur+0x1>
    2604:	20 93 f4 03 	sts	0x03F4, r18	; 0x8003f4 <extrem_temperatur>
		extrem_temperatur.min_wert = temperatur[0];	// Min auf aktuelle Temperatur setzen
    2608:	30 93 f7 03 	sts	0x03F7, r19	; 0x8003f7 <extrem_temperatur+0x3>
    260c:	20 93 f6 03 	sts	0x03F6, r18	; 0x8003f6 <extrem_temperatur+0x2>
		extrem_temperatur.max_zeitpunkt = zeit;		// Zeitpunkt resetten -> ist immer 00:00:00
    2610:	97 e0       	ldi	r25, 0x07	; 7
    2612:	e7 ee       	ldi	r30, 0xE7	; 231
    2614:	f3 e0       	ldi	r31, 0x03	; 3
    2616:	a8 ef       	ldi	r26, 0xF8	; 248
    2618:	b3 e0       	ldi	r27, 0x03	; 3
    261a:	01 90       	ld	r0, Z+
    261c:	0d 92       	st	X+, r0
    261e:	9a 95       	dec	r25
    2620:	e1 f7       	brne	.-8      	; 0x261a <reset_tageswerte+0x30>
		extrem_temperatur.min_zeitpunkt = zeit;		// Zeitpunkt resetten -> ist immer 00:00:00
    2622:	97 e0       	ldi	r25, 0x07	; 7
    2624:	e7 ee       	ldi	r30, 0xE7	; 231
    2626:	f3 e0       	ldi	r31, 0x03	; 3
    2628:	af ef       	ldi	r26, 0xFF	; 255
    262a:	b3 e0       	ldi	r27, 0x03	; 3
    262c:	01 90       	ld	r0, Z+
    262e:	0d 92       	st	X+, r0
    2630:	9a 95       	dec	r25
    2632:	e1 f7       	brne	.-8      	; 0x262c <reset_tageswerte+0x42>
		extrem_temperatur.lm76_nr_max = 0;
    2634:	10 92 06 04 	sts	0x0406, r1	; 0x800406 <extrem_temperatur+0x12>
		extrem_temperatur.lm76_nr_min = 0;
    2638:	10 92 07 04 	sts	0x0407, r1	; 0x800407 <extrem_temperatur+0x13>
		extrem_huminity.max_wert = huminity;				// Max auf aktuellen pH Wert  setzen
    263c:	20 91 f4 02 	lds	r18, 0x02F4	; 0x8002f4 <huminity>
    2640:	30 91 f5 02 	lds	r19, 0x02F5	; 0x8002f5 <huminity+0x1>
    2644:	30 93 54 04 	sts	0x0454, r19	; 0x800454 <extrem_huminity+0x1>
    2648:	20 93 53 04 	sts	0x0453, r18	; 0x800453 <extrem_huminity>
		extrem_huminity.min_wert = huminity;				// Min auf aktuellen pH Wert  setzen
    264c:	30 93 56 04 	sts	0x0456, r19	; 0x800456 <extrem_huminity+0x3>
    2650:	20 93 55 04 	sts	0x0455, r18	; 0x800455 <extrem_huminity+0x2>
		extrem_huminity.max_zeitpunkt = zeit;				// Zeitpunkt resetten -> ist immer 00:00:00
    2654:	97 e0       	ldi	r25, 0x07	; 7
    2656:	e7 ee       	ldi	r30, 0xE7	; 231
    2658:	f3 e0       	ldi	r31, 0x03	; 3
    265a:	a7 e5       	ldi	r26, 0x57	; 87
    265c:	b4 e0       	ldi	r27, 0x04	; 4
    265e:	01 90       	ld	r0, Z+
    2660:	0d 92       	st	X+, r0
    2662:	9a 95       	dec	r25
    2664:	e1 f7       	brne	.-8      	; 0x265e <reset_tageswerte+0x74>
		extrem_huminity.min_zeitpunkt = zeit;				// Zeitpunkt resetten -> ist immer 00:00:00
    2666:	97 e0       	ldi	r25, 0x07	; 7
    2668:	e7 ee       	ldi	r30, 0xE7	; 231
    266a:	f3 e0       	ldi	r31, 0x03	; 3
    266c:	ae e5       	ldi	r26, 0x5E	; 94
    266e:	b4 e0       	ldi	r27, 0x04	; 4
    2670:	01 90       	ld	r0, Z+
    2672:	0d 92       	st	X+, r0
    2674:	9a 95       	dec	r25
    2676:	e1 f7       	brne	.-8      	; 0x2670 <reset_tageswerte+0x86>
		alter_tag = zeit.tag;						// Datum des neuen Tages merken
    2678:	80 93 ed 02 	sts	0x02ED, r24	; 0x8002ed <alter_tag.2900>
    267c:	08 95       	ret

0000267e <main_anzeige>:
 * auf den LCD anzeigt
 * PE:void
 * PA:void
 *************************************************************************/
void main_anzeige(void)
{
    267e:	cf 93       	push	r28
    2680:	df 93       	push	r29
	/*************************************************************************
	* Messwerte in Strings umwandeln und auf den LCD anzeigen
	*************************************************************************/
    lcd_command(LCD_CURSOROFF | LCD_BLINKINGOFF);	// Kein Cursor in der Hauptanzeige
    2682:	8c e0       	ldi	r24, 0x0C	; 12
    2684:	0e 94 02 05 	call	0xa04	; 0xa04 <lcd_command>
	memcpy(anzeigetext1, 0x00, strlen(anzeigetext1)+1);
    2688:	c9 e0       	ldi	r28, 0x09	; 9
    268a:	d4 e0       	ldi	r29, 0x04	; 4
    268c:	fe 01       	movw	r30, r28
    268e:	01 90       	ld	r0, Z+
    2690:	00 20       	and	r0, r0
    2692:	e9 f7       	brne	.-6      	; 0x268e <main_anzeige+0x10>
    2694:	af 01       	movw	r20, r30
    2696:	49 50       	subi	r20, 0x09	; 9
    2698:	54 40       	sbci	r21, 0x04	; 4
    269a:	60 e0       	ldi	r22, 0x00	; 0
    269c:	70 e0       	ldi	r23, 0x00	; 0
    269e:	ce 01       	movw	r24, r28
    26a0:	0e 94 de 17 	call	0x2fbc	; 0x2fbc <memcpy>
 * PA:void
*************************************************************************/
void zeit_to_string( struct uhr ausgabe_zeit,char* temp_buffer)
{
	// String zusammensetzen
	sprintf(temp_buffer, "%02d:%02d:%02d", ausgabe_zeit.stunde, ausgabe_zeit.minute, ausgabe_zeit.sekunde);	
    26a4:	80 91 e8 03 	lds	r24, 0x03E8	; 0x8003e8 <zeit+0x1>
    26a8:	1f 92       	push	r1
    26aa:	8f 93       	push	r24
    26ac:	80 91 e7 03 	lds	r24, 0x03E7	; 0x8003e7 <zeit>
    26b0:	1f 92       	push	r1
    26b2:	8f 93       	push	r24
    26b4:	80 91 e9 03 	lds	r24, 0x03E9	; 0x8003e9 <zeit+0x2>
    26b8:	1f 92       	push	r1
    26ba:	8f 93       	push	r24
    26bc:	82 e1       	ldi	r24, 0x12	; 18
    26be:	92 e0       	ldi	r25, 0x02	; 2
    26c0:	9f 93       	push	r25
    26c2:	8f 93       	push	r24
    26c4:	df 93       	push	r29
    26c6:	cf 93       	push	r28
    26c8:	0e 94 17 18 	call	0x302e	; 0x302e <sprintf>
	* Messwerte in Strings umwandeln und auf den LCD anzeigen
	*************************************************************************/
    lcd_command(LCD_CURSOROFF | LCD_BLINKINGOFF);	// Kein Cursor in der Hauptanzeige
	memcpy(anzeigetext1, 0x00, strlen(anzeigetext1)+1);
	zeit_to_string(zeit, anzeigetext1);
    lcd_printlc(1,1,(unsigned char*)anzeigetext1);	// Uhrzeit oben rechts im Display
    26cc:	ae 01       	movw	r20, r28
    26ce:	61 e0       	ldi	r22, 0x01	; 1
    26d0:	81 e0       	ldi	r24, 0x01	; 1
    26d2:	0e 94 8d 04 	call	0x91a	; 0x91a <lcd_printlc>
	lcd_putchar(' ');								// Abstand zum Wochentag
    26d6:	80 e2       	ldi	r24, 0x20	; 32
    26d8:	0e 94 22 04 	call	0x844	; 0x844 <lcd_putchar>
	memcpy(anzeigetext, 0x00, strlen(anzeigetext)+1);
    26dc:	e7 eb       	ldi	r30, 0xB7	; 183
    26de:	f3 e0       	ldi	r31, 0x03	; 3
    26e0:	01 90       	ld	r0, Z+
    26e2:	00 20       	and	r0, r0
    26e4:	e9 f7       	brne	.-6      	; 0x26e0 <main_anzeige+0x62>
    26e6:	af 01       	movw	r20, r30
    26e8:	47 5b       	subi	r20, 0xB7	; 183
    26ea:	53 40       	sbci	r21, 0x03	; 3
    26ec:	60 e0       	ldi	r22, 0x00	; 0
    26ee:	70 e0       	ldi	r23, 0x00	; 0
    26f0:	87 eb       	ldi	r24, 0xB7	; 183
    26f2:	93 e0       	ldi	r25, 0x03	; 3
    26f4:	0e 94 de 17 	call	0x2fbc	; 0x2fbc <memcpy>
    lcd_print(strcpy_P (anzeigetext,wochentagname[zeit.wochentag])); // Wochentag anzeigen
    26f8:	60 91 eb 03 	lds	r22, 0x03EB	; 0x8003eb <zeit+0x4>
    26fc:	70 e0       	ldi	r23, 0x00	; 0
    26fe:	cb 01       	movw	r24, r22
    2700:	88 0f       	add	r24, r24
    2702:	99 1f       	adc	r25, r25
    2704:	68 0f       	add	r22, r24
    2706:	79 1f       	adc	r23, r25
    2708:	6d 58       	subi	r22, 0x8D	; 141
    270a:	7b 4f       	sbci	r23, 0xFB	; 251
    270c:	87 eb       	ldi	r24, 0xB7	; 183
    270e:	93 e0       	ldi	r25, 0x03	; 3
    2710:	0e 94 d7 17 	call	0x2fae	; 0x2fae <strcpy_P>
    2714:	0e 94 44 04 	call	0x888	; 0x888 <lcd_print>
	memcpy(anzeigetext1, 0x00, strlen(anzeigetext1)+1);
    2718:	fe 01       	movw	r30, r28
    271a:	01 90       	ld	r0, Z+
    271c:	00 20       	and	r0, r0
    271e:	e9 f7       	brne	.-6      	; 0x271a <main_anzeige+0x9c>
    2720:	af 01       	movw	r20, r30
    2722:	49 50       	subi	r20, 0x09	; 9
    2724:	54 40       	sbci	r21, 0x04	; 4
    2726:	60 e0       	ldi	r22, 0x00	; 0
    2728:	70 e0       	ldi	r23, 0x00	; 0
    272a:	ce 01       	movw	r24, r28
    272c:	0e 94 de 17 	call	0x2fbc	; 0x2fbc <memcpy>
    temperatur_to_string(temperatur[1],anzeigetext1);	// Aktuelle Temperatur zu String
    2730:	be 01       	movw	r22, r28
    2732:	80 91 f8 02 	lds	r24, 0x02F8	; 0x8002f8 <temperatur+0x2>
    2736:	90 91 f9 02 	lds	r25, 0x02F9	; 0x8002f9 <temperatur+0x3>
    273a:	0e 94 0d 07 	call	0xe1a	; 0xe1a <temperatur_to_string>
    lcd_printlc(2,1,(unsigned char*)"M:");		// Temperatur  Linie 2
    273e:	42 eb       	ldi	r20, 0xB2	; 178
    2740:	52 e0       	ldi	r21, 0x02	; 2
    2742:	61 e0       	ldi	r22, 0x01	; 1
    2744:	82 e0       	ldi	r24, 0x02	; 2
    2746:	0e 94 8d 04 	call	0x91a	; 0x91a <lcd_printlc>
    lcd_print((unsigned char*) anzeigetext1);		// Temperatur anzeigen
    274a:	ce 01       	movw	r24, r28
    274c:	0e 94 44 04 	call	0x888	; 0x888 <lcd_print>
	memcpy(anzeigetext1, 0x00, strlen(anzeigetext1)+1);
    2750:	fe 01       	movw	r30, r28
    2752:	01 90       	ld	r0, Z+
    2754:	00 20       	and	r0, r0
    2756:	e9 f7       	brne	.-6      	; 0x2752 <main_anzeige+0xd4>
    2758:	af 01       	movw	r20, r30
    275a:	49 50       	subi	r20, 0x09	; 9
    275c:	54 40       	sbci	r21, 0x04	; 4
    275e:	60 e0       	ldi	r22, 0x00	; 0
    2760:	70 e0       	ldi	r23, 0x00	; 0
    2762:	ce 01       	movw	r24, r28
    2764:	0e 94 de 17 	call	0x2fbc	; 0x2fbc <memcpy>
	temperatur_to_string(temperatur[2],anzeigetext1);	// Aktuelle Temperatur zu String
    2768:	be 01       	movw	r22, r28
    276a:	80 91 fa 02 	lds	r24, 0x02FA	; 0x8002fa <temperatur+0x4>
    276e:	90 91 fb 02 	lds	r25, 0x02FB	; 0x8002fb <temperatur+0x5>
    2772:	0e 94 0d 07 	call	0xe1a	; 0xe1a <temperatur_to_string>
    lcd_printlc(2,14,(unsigned char*)"H:");		// Temperatur  Linie 2
    2776:	45 eb       	ldi	r20, 0xB5	; 181
    2778:	52 e0       	ldi	r21, 0x02	; 2
    277a:	6e e0       	ldi	r22, 0x0E	; 14
    277c:	82 e0       	ldi	r24, 0x02	; 2
    277e:	0e 94 8d 04 	call	0x91a	; 0x91a <lcd_printlc>
    lcd_print((unsigned char*) anzeigetext1);		// Temperatur anzeigen
    2782:	ce 01       	movw	r24, r28
    2784:	0e 94 44 04 	call	0x888	; 0x888 <lcd_print>
    //lcd_printlc(2,11,(unsigned char*)" Max:");		//  Tagesmaximum Temperatur 3 Linie
    //temperatur_to_string(extrem_temperatur.max_wert,anzeigetext2);	// Tagesmaximum zu String
    //lcd_print((unsigned char*) anzeigetext2);		// Tagesmaximum anzeigen
	lcd_printlc(3,1,(unsigned char*)"Hy:");			// Feuchtigkeit Linie 3
    2788:	48 eb       	ldi	r20, 0xB8	; 184
    278a:	52 e0       	ldi	r21, 0x02	; 2
    278c:	61 e0       	ldi	r22, 0x01	; 1
    278e:	83 e0       	ldi	r24, 0x03	; 3
    2790:	0e 94 8d 04 	call	0x91a	; 0x91a <lcd_printlc>
	memcpy(anzeigetext1, 0x00, strlen(anzeigetext1)+1);
    2794:	fe 01       	movw	r30, r28
    2796:	01 90       	ld	r0, Z+
    2798:	00 20       	and	r0, r0
    279a:	e9 f7       	brne	.-6      	; 0x2796 <main_anzeige+0x118>
    279c:	af 01       	movw	r20, r30
    279e:	49 50       	subi	r20, 0x09	; 9
    27a0:	54 40       	sbci	r21, 0x04	; 4
    27a2:	60 e0       	ldi	r22, 0x00	; 0
    27a4:	70 e0       	ldi	r23, 0x00	; 0
    27a6:	ce 01       	movw	r24, r28
    27a8:	0e 94 de 17 	call	0x2fbc	; 0x2fbc <memcpy>
	sprintf(anzeigetext1, "%02d",huminity);
    27ac:	80 91 f5 02 	lds	r24, 0x02F5	; 0x8002f5 <huminity+0x1>
    27b0:	8f 93       	push	r24
    27b2:	80 91 f4 02 	lds	r24, 0x02F4	; 0x8002f4 <huminity>
    27b6:	8f 93       	push	r24
    27b8:	8b e2       	ldi	r24, 0x2B	; 43
    27ba:	92 e0       	ldi	r25, 0x02	; 2
    27bc:	9f 93       	push	r25
    27be:	8f 93       	push	r24
    27c0:	df 93       	push	r29
    27c2:	cf 93       	push	r28
    27c4:	0e 94 17 18 	call	0x302e	; 0x302e <sprintf>
	lcd_print(anzeigetext1);						// Feuchtigkeit anzeigen
    27c8:	ce 01       	movw	r24, r28
    27ca:	0e 94 44 04 	call	0x888	; 0x888 <lcd_print>
	lcd_putchar('%');
    27ce:	85 e2       	ldi	r24, 0x25	; 37
    27d0:	0e 94 22 04 	call	0x844	; 0x844 <lcd_putchar>
	//sprintf(anzeigetext1, "  %03dB",mem);
	//lcd_print(anzeigetext1);	
	memcpy(anzeigetext1, 0x00, strlen(anzeigetext1)+1);
    27d4:	09 90       	ld	r0, Y+
    27d6:	00 20       	and	r0, r0
    27d8:	e9 f7       	brne	.-6      	; 0x27d4 <main_anzeige+0x156>
    27da:	ae 01       	movw	r20, r28
    27dc:	49 50       	subi	r20, 0x09	; 9
    27de:	54 40       	sbci	r21, 0x04	; 4
    27e0:	60 e0       	ldi	r22, 0x00	; 0
    27e2:	70 e0       	ldi	r23, 0x00	; 0
    27e4:	89 e0       	ldi	r24, 0x09	; 9
    27e6:	94 e0       	ldi	r25, 0x04	; 4
    27e8:	0e 94 de 17 	call	0x2fbc	; 0x2fbc <memcpy>
	temperatur_to_string(temperatur[0],anzeigetext1);	// Aktuelle Temperatur zu String
    27ec:	69 e0       	ldi	r22, 0x09	; 9
    27ee:	74 e0       	ldi	r23, 0x04	; 4
    27f0:	80 91 f6 02 	lds	r24, 0x02F6	; 0x8002f6 <temperatur>
    27f4:	90 91 f7 02 	lds	r25, 0x02F7	; 0x8002f7 <temperatur+0x1>
    27f8:	0e 94 0d 07 	call	0xe1a	; 0xe1a <temperatur_to_string>
    lcd_printlc(3,14,(unsigned char*)"B:");		// Temperatur  Linie 2
    27fc:	4c eb       	ldi	r20, 0xBC	; 188
    27fe:	52 e0       	ldi	r21, 0x02	; 2
    2800:	6e e0       	ldi	r22, 0x0E	; 14
    2802:	83 e0       	ldi	r24, 0x03	; 3
    2804:	0e 94 8d 04 	call	0x91a	; 0x91a <lcd_printlc>
    lcd_print((unsigned char*) anzeigetext1);		// Temperatur anzeigen
    2808:	89 e0       	ldi	r24, 0x09	; 9
    280a:	94 e0       	ldi	r25, 0x04	; 4
    280c:	0e 94 44 04 	call	0x888	; 0x888 <lcd_print>
    //lcd_print((unsigned char*) anzeigetext2);		// Tagesminimum anzeigen	
	/*************************************************************************
	* Zustände der Ausgänge in Linie 4 anzeigen 
	*'^' entspricht eingeschaltet '_' entspricht ausgeschaltet
	*************************************************************************/
    lcd_printlc(4,1,(unsigned char*)"H:");	// Heizer = H
    2810:	45 eb       	ldi	r20, 0xB5	; 181
    2812:	52 e0       	ldi	r21, 0x02	; 2
    2814:	61 e0       	ldi	r22, 0x01	; 1
    2816:	84 e0       	ldi	r24, 0x04	; 4
    2818:	0e 94 8d 04 	call	0x91a	; 0x91a <lcd_printlc>
 * PE:uint8_t zustand // 1 = Ein , 0 = Aus
 * PA:uint8_t			// Hex Zeichen retournieren Ein=^  Aus=_
 *************************************************************************/
uint8_t zustand_lcd(uint8_t zustand)
{
    if (zustand) // Ausgang eingeschaltet
    281c:	8d b7       	in	r24, 0x3d	; 61
    281e:	9e b7       	in	r25, 0x3e	; 62
    2820:	40 96       	adiw	r24, 0x10	; 16
    2822:	0f b6       	in	r0, 0x3f	; 63
    2824:	f8 94       	cli
    2826:	9e bf       	out	0x3e, r25	; 62
    2828:	0f be       	out	0x3f, r0	; 63
    282a:	8d bf       	out	0x3d, r24	; 61
    282c:	02 99       	sbic	0x00, 2	; 0
    282e:	02 c0       	rjmp	.+4      	; 0x2834 <main_anzeige+0x1b6>
    {
        return 0x5E; // Display Anzeige ASCII "^"
    }
    else
    {
        return 0x5F; // Display Anzeige ASCII "_"
    2830:	8f e5       	ldi	r24, 0x5F	; 95
    2832:	01 c0       	rjmp	.+2      	; 0x2836 <main_anzeige+0x1b8>
 *************************************************************************/
uint8_t zustand_lcd(uint8_t zustand)
{
    if (zustand) // Ausgang eingeschaltet
    {
        return 0x5E; // Display Anzeige ASCII "^"
    2834:	8e e5       	ldi	r24, 0x5E	; 94
	/*************************************************************************
	* Zustände der Ausgänge in Linie 4 anzeigen 
	*'^' entspricht eingeschaltet '_' entspricht ausgeschaltet
	*************************************************************************/
    lcd_printlc(4,1,(unsigned char*)"H:");	// Heizer = H
    lcd_putchar(zustand_lcd(( HEIZER_ZUSTAND))); //Zustand abfragen und entsprechendes Zeichen anzeigen
    2836:	0e 94 22 04 	call	0x844	; 0x844 <lcd_putchar>
    lcd_print((unsigned char *)" K:");		// Lüfter = Kühler = K, da L schon belegt
    283a:	8f eb       	ldi	r24, 0xBF	; 191
    283c:	92 e0       	ldi	r25, 0x02	; 2
    283e:	0e 94 44 04 	call	0x888	; 0x888 <lcd_print>
 * PE:uint8_t zustand // 1 = Ein , 0 = Aus
 * PA:uint8_t			// Hex Zeichen retournieren Ein=^  Aus=_
 *************************************************************************/
uint8_t zustand_lcd(uint8_t zustand)
{
    if (zustand) // Ausgang eingeschaltet
    2842:	01 99       	sbic	0x00, 1	; 0
    2844:	02 c0       	rjmp	.+4      	; 0x284a <main_anzeige+0x1cc>
    {
        return 0x5E; // Display Anzeige ASCII "^"
    }
    else
    {
        return 0x5F; // Display Anzeige ASCII "_"
    2846:	8f e5       	ldi	r24, 0x5F	; 95
    2848:	01 c0       	rjmp	.+2      	; 0x284c <main_anzeige+0x1ce>
 *************************************************************************/
uint8_t zustand_lcd(uint8_t zustand)
{
    if (zustand) // Ausgang eingeschaltet
    {
        return 0x5E; // Display Anzeige ASCII "^"
    284a:	8e e5       	ldi	r24, 0x5E	; 94
	*'^' entspricht eingeschaltet '_' entspricht ausgeschaltet
	*************************************************************************/
    lcd_printlc(4,1,(unsigned char*)"H:");	// Heizer = H
    lcd_putchar(zustand_lcd(( HEIZER_ZUSTAND))); //Zustand abfragen und entsprechendes Zeichen anzeigen
    lcd_print((unsigned char *)" K:");		// Lüfter = Kühler = K, da L schon belegt
    lcd_putchar(zustand_lcd(( LUEFTER_ZUSTAND)));//Zustand abfragen und entsprechendes Zeichen anzeigen
    284c:	0e 94 22 04 	call	0x844	; 0x844 <lcd_putchar>
    lcd_print((unsigned char *)" L:");			// Lampe = L
    2850:	83 ec       	ldi	r24, 0xC3	; 195
    2852:	92 e0       	ldi	r25, 0x02	; 2
    2854:	0e 94 44 04 	call	0x888	; 0x888 <lcd_print>
 * PE:uint8_t zustand // 1 = Ein , 0 = Aus
 * PA:uint8_t			// Hex Zeichen retournieren Ein=^  Aus=_
 *************************************************************************/
uint8_t zustand_lcd(uint8_t zustand)
{
    if (zustand) // Ausgang eingeschaltet
    2858:	03 99       	sbic	0x00, 3	; 0
    285a:	02 c0       	rjmp	.+4      	; 0x2860 <main_anzeige+0x1e2>
    {
        return 0x5E; // Display Anzeige ASCII "^"
    }
    else
    {
        return 0x5F; // Display Anzeige ASCII "_"
    285c:	8f e5       	ldi	r24, 0x5F	; 95
    285e:	01 c0       	rjmp	.+2      	; 0x2862 <main_anzeige+0x1e4>
 *************************************************************************/
uint8_t zustand_lcd(uint8_t zustand)
{
    if (zustand) // Ausgang eingeschaltet
    {
        return 0x5E; // Display Anzeige ASCII "^"
    2860:	8e e5       	ldi	r24, 0x5E	; 94
    lcd_printlc(4,1,(unsigned char*)"H:");	// Heizer = H
    lcd_putchar(zustand_lcd(( HEIZER_ZUSTAND))); //Zustand abfragen und entsprechendes Zeichen anzeigen
    lcd_print((unsigned char *)" K:");		// Lüfter = Kühler = K, da L schon belegt
    lcd_putchar(zustand_lcd(( LUEFTER_ZUSTAND)));//Zustand abfragen und entsprechendes Zeichen anzeigen
    lcd_print((unsigned char *)" L:");			// Lampe = L
    lcd_putchar(zustand_lcd(( LAMPE_ZUSTAND)));	//Zustand abfragen und entsprechendes Zeichen anzeigen
    2862:	0e 94 22 04 	call	0x844	; 0x844 <lcd_putchar>
    lcd_print((unsigned char *)" ML:");			// Mondlicht = ML
    2866:	87 ec       	ldi	r24, 0xC7	; 199
    2868:	92 e0       	ldi	r25, 0x02	; 2
    286a:	0e 94 44 04 	call	0x888	; 0x888 <lcd_print>
    lcd_putchar(zustand_lcd(zustandsbit.mondlicht)); //Zustand abfragen und entsprechendes Zeichen anzeigen
    286e:	80 91 91 04 	lds	r24, 0x0491	; 0x800491 <zustandsbit>
 * PE:uint8_t zustand // 1 = Ein , 0 = Aus
 * PA:uint8_t			// Hex Zeichen retournieren Ein=^  Aus=_
 *************************************************************************/
uint8_t zustand_lcd(uint8_t zustand)
{
    if (zustand) // Ausgang eingeschaltet
    2872:	83 fd       	sbrc	r24, 3
    2874:	02 c0       	rjmp	.+4      	; 0x287a <main_anzeige+0x1fc>
    {
        return 0x5E; // Display Anzeige ASCII "^"
    }
    else
    {
        return 0x5F; // Display Anzeige ASCII "_"
    2876:	8f e5       	ldi	r24, 0x5F	; 95
    2878:	01 c0       	rjmp	.+2      	; 0x287c <main_anzeige+0x1fe>
 *************************************************************************/
uint8_t zustand_lcd(uint8_t zustand)
{
    if (zustand) // Ausgang eingeschaltet
    {
        return 0x5E; // Display Anzeige ASCII "^"
    287a:	8e e5       	ldi	r24, 0x5E	; 94
    lcd_print((unsigned char *)" K:");		// Lüfter = Kühler = K, da L schon belegt
    lcd_putchar(zustand_lcd(( LUEFTER_ZUSTAND)));//Zustand abfragen und entsprechendes Zeichen anzeigen
    lcd_print((unsigned char *)" L:");			// Lampe = L
    lcd_putchar(zustand_lcd(( LAMPE_ZUSTAND)));	//Zustand abfragen und entsprechendes Zeichen anzeigen
    lcd_print((unsigned char *)" ML:");			// Mondlicht = ML
    lcd_putchar(zustand_lcd(zustandsbit.mondlicht)); //Zustand abfragen und entsprechendes Zeichen anzeigen
    287c:	0e 94 22 04 	call	0x844	; 0x844 <lcd_putchar>
	lcd_print((unsigned char *)" P:");			// Strömungspumpe = P
    2880:	8c ec       	ldi	r24, 0xCC	; 204
    2882:	92 e0       	ldi	r25, 0x02	; 2
    2884:	0e 94 44 04 	call	0x888	; 0x888 <lcd_print>
 * PE:uint8_t zustand // 1 = Ein , 0 = Aus
 * PA:uint8_t			// Hex Zeichen retournieren Ein=^  Aus=_
 *************************************************************************/
uint8_t zustand_lcd(uint8_t zustand)
{
    if (zustand) // Ausgang eingeschaltet
    2888:	00 99       	sbic	0x00, 0	; 0
    288a:	02 c0       	rjmp	.+4      	; 0x2890 <main_anzeige+0x212>
    {
        return 0x5E; // Display Anzeige ASCII "^"
    }
    else
    {
        return 0x5F; // Display Anzeige ASCII "_"
    288c:	8f e5       	ldi	r24, 0x5F	; 95
    288e:	01 c0       	rjmp	.+2      	; 0x2892 <main_anzeige+0x214>
 *************************************************************************/
uint8_t zustand_lcd(uint8_t zustand)
{
    if (zustand) // Ausgang eingeschaltet
    {
        return 0x5E; // Display Anzeige ASCII "^"
    2890:	8e e5       	ldi	r24, 0x5E	; 94
    lcd_print((unsigned char *)" L:");			// Lampe = L
    lcd_putchar(zustand_lcd(( LAMPE_ZUSTAND)));	//Zustand abfragen und entsprechendes Zeichen anzeigen
    lcd_print((unsigned char *)" ML:");			// Mondlicht = ML
    lcd_putchar(zustand_lcd(zustandsbit.mondlicht)); //Zustand abfragen und entsprechendes Zeichen anzeigen
	lcd_print((unsigned char *)" P:");			// Strömungspumpe = P
	lcd_putchar(zustand_lcd(( PUMPE_ZUSTAND)));	//Zustand abfragen und entsprechendes Zeichen anzeigen
    2892:	0e 94 22 04 	call	0x844	; 0x844 <lcd_putchar>
	//lcd_printlc(1,13,anzeigetext1);
	/*************************************************************************
	* Alarmzustand oben rechts im Display anzeigen
	*************************************************************************/
	//Alarmstring aus Array holen und anzeigen
    lcd_printlc(1,13,strcpy_P (anzeigetext,alarm_strings[alarm_vektor])); 
    2896:	60 91 ef 02 	lds	r22, 0x02EF	; 0x8002ef <alarm_vektor>
    289a:	99 e0       	ldi	r25, 0x09	; 9
    289c:	69 9f       	mul	r22, r25
    289e:	b0 01       	movw	r22, r0
    28a0:	11 24       	eor	r1, r1
    28a2:	65 5d       	subi	r22, 0xD5	; 213
    28a4:	7b 4f       	sbci	r23, 0xFB	; 251
    28a6:	87 eb       	ldi	r24, 0xB7	; 183
    28a8:	93 e0       	ldi	r25, 0x03	; 3
    28aa:	0e 94 d7 17 	call	0x2fae	; 0x2fae <strcpy_P>
    28ae:	ac 01       	movw	r20, r24
    28b0:	6d e0       	ldi	r22, 0x0D	; 13
    28b2:	81 e0       	ldi	r24, 0x01	; 1
}
    28b4:	df 91       	pop	r29
    28b6:	cf 91       	pop	r28
	//lcd_printlc(1,13,anzeigetext1);
	/*************************************************************************
	* Alarmzustand oben rechts im Display anzeigen
	*************************************************************************/
	//Alarmstring aus Array holen und anzeigen
    lcd_printlc(1,13,strcpy_P (anzeigetext,alarm_strings[alarm_vektor])); 
    28b8:	0c 94 8d 04 	jmp	0x91a	; 0x91a <lcd_printlc>

000028bc <main>:
{

 	/*************************************************************************
	*Hardware initialisieren 
	*************************************************************************/
	if (MCUSR & (1<<WDRF))		// Auswerten ob Reset durch Watchdog
    28bc:	04 b6       	in	r0, 0x34	; 52
    28be:	03 fe       	sbrs	r0, 3
    28c0:	06 c0       	rjmp	.+12     	; 0x28ce <main+0x12>
	{
		alarm_vektor = 6;		// Watchdog alarm
    28c2:	86 e0       	ldi	r24, 0x06	; 6
    28c4:	80 93 ef 02 	sts	0x02EF, r24	; 0x8002ef <alarm_vektor>
		MCUSR &= ~(1<<WDRF);	// Watchdog Reset Flag resetten
    28c8:	84 b7       	in	r24, 0x34	; 52
    28ca:	87 7f       	andi	r24, 0xF7	; 247
    28cc:	84 bf       	out	0x34, r24	; 52
		);
	}
	else
	{
        uint8_t register temp_reg;
		__asm__ __volatile__ (
    28ce:	0f b6       	in	r0, 0x3f	; 63
    28d0:	f8 94       	cli
    28d2:	a8 95       	wdr
    28d4:	80 91 60 00 	lds	r24, 0x0060	; 0x800060 <__DATA_REGION_ORIGIN__>
    28d8:	88 61       	ori	r24, 0x18	; 24
    28da:	80 93 60 00 	sts	0x0060, r24	; 0x800060 <__DATA_REGION_ORIGIN__>
    28de:	10 92 60 00 	sts	0x0060, r1	; 0x800060 <__DATA_REGION_ORIGIN__>
    28e2:	0f be       	out	0x3f, r0	; 63
	}
	wdt_disable();				// Watchdog deaktivieren

    timer_init();				// Timer initialisieren
    28e4:	0e 94 f4 06 	call	0xde8	; 0xde8 <timer_init>
    read_eeprom_daten();		// gespeicherte Daten aus dem EEPROM laden
    28e8:	0e 94 04 11 	call	0x2208	; 0x2208 <read_eeprom_daten>
    init_taster();				// Tasten entprellen initialisieren
    28ec:	0e 94 9d 16 	call	0x2d3a	; 0x2d3a <init_taster>
    i2c_init();					// I2C-Bus initialisieren
    28f0:	0e 94 3d 05 	call	0xa7a	; 0xa7a <i2c_init>
    ds_1307_init();				// DS1307 initialisieren
    28f4:	0e 94 6d 02 	call	0x4da	; 0x4da <ds_1307_init>
    lcd_init();					// LCD initialisieren
    28f8:	0e 94 11 05 	call	0xa22	; 0xa22 <lcd_init>
    init_ports();				// Ports Ein-Ausgänge initialisieren
    28fc:	0e 94 05 07 	call	0xe0a	; 0xe0a <init_ports>
	//adc_init();					// AD-Wandler initialisieren
    //uart_init( UART_BAUD_SELECT(UART_BAUD_RATE,F_CPU) ); // UART für RS232 initialisieren
    sei();						// Global Interrupt freigeben
    2900:	78 94       	sei
    2902:	2f ef       	ldi	r18, 0xFF	; 255
    2904:	83 ed       	ldi	r24, 0xD3	; 211
    2906:	90 e3       	ldi	r25, 0x30	; 48
    2908:	21 50       	subi	r18, 0x01	; 1
    290a:	80 40       	sbci	r24, 0x00	; 0
    290c:	90 40       	sbci	r25, 0x00	; 0
    290e:	e1 f7       	brne	.-8      	; 0x2908 <main+0x4c>
    2910:	00 c0       	rjmp	.+0      	; 0x2912 <main+0x56>
    2912:	00 00       	nop
				: "r0"
		);
	}
	else
	{
		__asm__ __volatile__ (
    2914:	9e e0       	ldi	r25, 0x0E	; 14
    2916:	88 e1       	ldi	r24, 0x18	; 24
    2918:	0f b6       	in	r0, 0x3f	; 63
    291a:	f8 94       	cli
    291c:	a8 95       	wdr
    291e:	80 93 60 00 	sts	0x0060, r24	; 0x800060 <__DATA_REGION_ORIGIN__>
    2922:	0f be       	out	0x3f, r0	; 63
    2924:	90 93 60 00 	sts	0x0060, r25	; 0x800060 <__DATA_REGION_ORIGIN__>
	/*************************************************************************
	* Sensorwerte erstes mal auslesen und Anfangswerte der Variablen setzen
	*************************************************************************/
    _delay_ms(1000);            // 1s warten, um LM76 genügend zeit zu geben die erste Temperatur zu berechnen
	wdt_enable(WDTO_1S);		// Watchdog aktivieren -> Timer 1s
	for ( i = 0;i<3; i++)
    2928:	10 92 08 04 	sts	0x0408, r1	; 0x800408 <i>
    292c:	e0 91 08 04 	lds	r30, 0x0408	; 0x800408 <i>
    2930:	e3 30       	cpi	r30, 0x03	; 3
    2932:	e8 f4       	brcc	.+58     	; 0x296e <main+0xb2>
	{
		temperatur[i] = get_lm76_temperatur(LM76_ADRESS[i])+ temperatur_offset[i]; // Erstes mal die Temperatur vom LM76 holen, so das die Ausgänge von anfang an richtig gesetzt werden
    2934:	f0 e0       	ldi	r31, 0x00	; 0
    2936:	e0 53       	subi	r30, 0x30	; 48
    2938:	fd 4f       	sbci	r31, 0xFD	; 253
    293a:	80 81       	ld	r24, Z
    293c:	0e 94 c7 06 	call	0xd8e	; 0xd8e <get_lm76_temperatur>
    2940:	20 91 08 04 	lds	r18, 0x0408	; 0x800408 <i>
    2944:	42 2f       	mov	r20, r18
    2946:	50 e0       	ldi	r21, 0x00	; 0
    2948:	fa 01       	movw	r30, r20
    294a:	ee 0f       	add	r30, r30
    294c:	ff 1f       	adc	r31, r31
    294e:	ea 50       	subi	r30, 0x0A	; 10
    2950:	fd 4f       	sbci	r31, 0xFD	; 253
    2952:	da 01       	movw	r26, r20
    2954:	a4 50       	subi	r26, 0x04	; 4
    2956:	bd 4f       	sbci	r27, 0xFD	; 253
    2958:	3c 91       	ld	r19, X
    295a:	83 0f       	add	r24, r19
    295c:	91 1d       	adc	r25, r1
    295e:	37 fd       	sbrc	r19, 7
    2960:	9a 95       	dec	r25
    2962:	91 83       	std	Z+1, r25	; 0x01
    2964:	80 83       	st	Z, r24
	/*************************************************************************
	* Sensorwerte erstes mal auslesen und Anfangswerte der Variablen setzen
	*************************************************************************/
    _delay_ms(1000);            // 1s warten, um LM76 genügend zeit zu geben die erste Temperatur zu berechnen
	wdt_enable(WDTO_1S);		// Watchdog aktivieren -> Timer 1s
	for ( i = 0;i<3; i++)
    2966:	2f 5f       	subi	r18, 0xFF	; 255
    2968:	20 93 08 04 	sts	0x0408, r18	; 0x800408 <i>
    296c:	df cf       	rjmp	.-66     	; 0x292c <main+0x70>
	{
		temperatur[i] = get_lm76_temperatur(LM76_ADRESS[i])+ temperatur_offset[i]; // Erstes mal die Temperatur vom LM76 holen, so das die Ausgänge von anfang an richtig gesetzt werden
	}
    
    get_ds1307_zeit_datum(&zeit);// Erstes mal die Zeit vom DS1307 holen, so das die Ausgänge von anfang an richtig gesetzt werden
    296e:	87 ee       	ldi	r24, 0xE7	; 231
    2970:	93 e0       	ldi	r25, 0x03	; 3
    2972:	0e 94 92 02 	call	0x524	; 0x524 <get_ds1307_zeit_datum>
	get_hih6131_data(hih6131_adress, &huminity, &hih_temperatur);
    2976:	42 ef       	ldi	r20, 0xF2	; 242
    2978:	52 e0       	ldi	r21, 0x02	; 2
    297a:	64 ef       	ldi	r22, 0xF4	; 244
    297c:	72 e0       	ldi	r23, 0x02	; 2
    297e:	8e e4       	ldi	r24, 0x4E	; 78
    2980:	0e 94 8a 03 	call	0x714	; 0x714 <get_hih6131_data>
	//ph_wert = read_phwert(&phwert_referenzen); // Erstes mal den pH Wert einlesen, so das die Ausgänge von anfang an richtig gesetzt werden
    extrem_temperatur.max_wert = temperatur[0]; // Tages Min/Max Werte auf aktuelle Temperatur setzen
    2984:	80 91 f6 02 	lds	r24, 0x02F6	; 0x8002f6 <temperatur>
    2988:	90 91 f7 02 	lds	r25, 0x02F7	; 0x8002f7 <temperatur+0x1>
    298c:	90 93 f5 03 	sts	0x03F5, r25	; 0x8003f5 <extrem_temperatur+0x1>
    2990:	80 93 f4 03 	sts	0x03F4, r24	; 0x8003f4 <extrem_temperatur>
    extrem_temperatur.min_wert = temperatur[0];
    2994:	90 93 f7 03 	sts	0x03F7, r25	; 0x8003f7 <extrem_temperatur+0x3>
    2998:	80 93 f6 03 	sts	0x03F6, r24	; 0x8003f6 <extrem_temperatur+0x2>
	extrem_huminity.max_wert = huminity;			 // Tages Min/Max Werte auf aktuellen pH Wert setzen
    299c:	80 91 f4 02 	lds	r24, 0x02F4	; 0x8002f4 <huminity>
    29a0:	90 91 f5 02 	lds	r25, 0x02F5	; 0x8002f5 <huminity+0x1>
    29a4:	90 93 54 04 	sts	0x0454, r25	; 0x800454 <extrem_huminity+0x1>
    29a8:	80 93 53 04 	sts	0x0453, r24	; 0x800453 <extrem_huminity>
	extrem_huminity.min_wert = huminity;
    29ac:	90 93 56 04 	sts	0x0456, r25	; 0x800456 <extrem_huminity+0x3>
    29b0:	80 93 55 04 	sts	0x0455, r24	; 0x800455 <extrem_huminity+0x2>
	zustandsbit.run = 1;		// Steuerung in Run Mode
    29b4:	80 91 91 04 	lds	r24, 0x0491	; 0x800491 <zustandsbit>
	zustandsbit.pumpe = 0;		// Pumpe eingeschaltet
    29b8:	80 61       	ori	r24, 0x10	; 16
    29ba:	8f 7d       	andi	r24, 0xDF	; 223
    29bc:	80 93 91 04 	sts	0x0491, r24	; 0x800491 <zustandsbit>
    /*************************************************************************
    * Menü initialisieren
    *************************************************************************/
    init_menu();				// Menü Struktur initialisieren
    29c0:	0e 94 bb 05 	call	0xb76	; 0xb76 <init_menu>
    menu(5);					// Hauptmenü laden
    29c4:	85 e0       	ldi	r24, 0x05	; 5
    29c6:	0e 94 fa 05 	call	0xbf4	; 0xbf4 <menu>
	/*************************************************************************
	* LCD einschalten
	*************************************************************************/
    lcd_command(LCD_CLEAR);     // LCD-Anzeige löschen
    29ca:	81 e0       	ldi	r24, 0x01	; 1
    29cc:	0e 94 02 05 	call	0xa04	; 0xa04 <lcd_command>
    lcd_backlight(ON);			// LCD-Hintergrundbeleuchtung an
    29d0:	80 e0       	ldi	r24, 0x00	; 0
    29d2:	90 e0       	ldi	r25, 0x00	; 0
    29d4:	0e 94 38 05 	call	0xa70	; 0xa70 <lcd_backlight>
    lcd_command(LCD_CURSOROFF); // LCD-Cursor off
    29d8:	8c e0       	ldi	r24, 0x0C	; 12
    29da:	0e 94 02 05 	call	0xa04	; 0xa04 <lcd_command>
    29de:	c8 e1       	ldi	r28, 0x18	; 24
    29e0:	de e0       	ldi	r29, 0x0E	; 14
	/*************************************************************************
	* Main Schleife -> In dieser läuft das ganze Programm ab
	*************************************************************************/
    while (true) 
    {	
		sei();
    29e2:	78 94       	sei
    29e4:	2f ef       	ldi	r18, 0xFF	; 255
    29e6:	84 e3       	ldi	r24, 0x34	; 52
    29e8:	9c e0       	ldi	r25, 0x0C	; 12
    29ea:	21 50       	subi	r18, 0x01	; 1
    29ec:	80 40       	sbci	r24, 0x00	; 0
    29ee:	90 40       	sbci	r25, 0x00	; 0
    29f0:	e1 f7       	brne	.-8      	; 0x29ea <main+0x12e>
    29f2:	00 c0       	rjmp	.+0      	; 0x29f4 <main+0x138>
    29f4:	00 00       	nop
			_delay_ms(250);
			cli(); 
    29f6:	f8 94       	cli
		wdt_reset();	// Watchdog bei jedem Durchlauf resetten
    29f8:	a8 95       	wdr
		main_anzeige(); //Hauptbildschirm anzeigen
    29fa:	0e 94 3f 13 	call	0x267e	; 0x267e <main_anzeige>
		/*************************************************************************
		* Taste OK gedrückt ->Menü aufrufen und darin navigieren und 
		* Einstellungen vornehmen
		*************************************************************************/
		if (get_key_press(1<<KEY_OK)) // Wenn Taste OK gedrückt -> Hauptmenü anzeigen
    29fe:	84 e0       	ldi	r24, 0x04	; 4
    2a00:	0e 94 80 16 	call	0x2d00	; 0x2d00 <get_key_press>
    2a04:	88 23       	and	r24, r24
    2a06:	09 f4       	brne	.+2      	; 0x2a0a <main+0x14e>
    2a08:	4e c0       	rjmp	.+156    	; 0x2aa6 <main+0x1ea>
		);
	}
	else
	{
        uint8_t register temp_reg;
		__asm__ __volatile__ (
    2a0a:	0f b6       	in	r0, 0x3f	; 63
    2a0c:	f8 94       	cli
    2a0e:	a8 95       	wdr
    2a10:	80 91 60 00 	lds	r24, 0x0060	; 0x800060 <__DATA_REGION_ORIGIN__>
    2a14:	88 61       	ori	r24, 0x18	; 24
    2a16:	80 93 60 00 	sts	0x0060, r24	; 0x800060 <__DATA_REGION_ORIGIN__>
    2a1a:	10 92 60 00 	sts	0x0060, r1	; 0x800060 <__DATA_REGION_ORIGIN__>
    2a1e:	0f be       	out	0x3f, r0	; 63
		{
			wdt_disable(); // Im Menü ist der Watchdog nicht aktiv, da in den Routinen auf Tasteneingaben gewartet werden muss 
			lcd_command(LCD_CLEAR); // LCD löschen
    2a20:	81 e0       	ldi	r24, 0x01	; 1
    2a22:	0e 94 02 05 	call	0xa04	; 0xa04 <lcd_command>
			lcd_backlight(ON);		// Backlight ein
    2a26:	80 e0       	ldi	r24, 0x00	; 0
    2a28:	90 e0       	ldi	r25, 0x00	; 0
    2a2a:	0e 94 38 05 	call	0xa70	; 0xa70 <lcd_backlight>
			displayMenu();          // Hauptmenü anzeigen
    2a2e:	0e 94 84 06 	call	0xd08	; 0xd08 <displayMenu>
			while(true)				// Auf Tasteneingaben warten und Menübaum aktualisieren
			{
				if(get_key_press(1<<KEY_UP))		menu(KEY_UP);// Im Menübaum eine Stelle nach oben
    2a32:	81 e0       	ldi	r24, 0x01	; 1
    2a34:	0e 94 80 16 	call	0x2d00	; 0x2d00 <get_key_press>
    2a38:	88 23       	and	r24, r24
    2a3a:	11 f0       	breq	.+4      	; 0x2a40 <main+0x184>
    2a3c:	80 e0       	ldi	r24, 0x00	; 0
    2a3e:	06 c0       	rjmp	.+12     	; 0x2a4c <main+0x190>
				else if(get_key_press(1<<KEY_LEFT)) menu(KEY_LEFT);// Vorheriges Menü anzeigen
    2a40:	82 e0       	ldi	r24, 0x02	; 2
    2a42:	0e 94 80 16 	call	0x2d00	; 0x2d00 <get_key_press>
    2a46:	88 23       	and	r24, r24
    2a48:	21 f0       	breq	.+8      	; 0x2a52 <main+0x196>
    2a4a:	81 e0       	ldi	r24, 0x01	; 1
    2a4c:	0e 94 fa 05 	call	0xbf4	; 0xbf4 <menu>
    2a50:	ee cf       	rjmp	.-36     	; 0x2a2e <main+0x172>
				else if(get_key_press(1<<KEY_OK))	menu(KEY_OK);// Untermenü oder Funktion aufrufen
    2a52:	84 e0       	ldi	r24, 0x04	; 4
    2a54:	0e 94 80 16 	call	0x2d00	; 0x2d00 <get_key_press>
    2a58:	88 23       	and	r24, r24
    2a5a:	11 f0       	breq	.+4      	; 0x2a60 <main+0x1a4>
    2a5c:	82 e0       	ldi	r24, 0x02	; 2
    2a5e:	f6 cf       	rjmp	.-20     	; 0x2a4c <main+0x190>
				else if(get_key_press(1<<KEY_RIGHT))menu(KEY_RIGHT);// Untermenü oder Funktion aufrufen
    2a60:	88 e0       	ldi	r24, 0x08	; 8
    2a62:	0e 94 80 16 	call	0x2d00	; 0x2d00 <get_key_press>
    2a66:	88 23       	and	r24, r24
    2a68:	11 f0       	breq	.+4      	; 0x2a6e <main+0x1b2>
    2a6a:	83 e0       	ldi	r24, 0x03	; 3
    2a6c:	ef cf       	rjmp	.-34     	; 0x2a4c <main+0x190>
				else if(get_key_press(1<<KEY_DOWN)) menu(KEY_DOWN);// Im Menübaum eine Stelle nach unten
    2a6e:	80 e1       	ldi	r24, 0x10	; 16
    2a70:	0e 94 80 16 	call	0x2d00	; 0x2d00 <get_key_press>
    2a74:	88 23       	and	r24, r24
    2a76:	11 f0       	breq	.+4      	; 0x2a7c <main+0x1c0>
    2a78:	84 e0       	ldi	r24, 0x04	; 4
    2a7a:	e8 cf       	rjmp	.-48     	; 0x2a4c <main+0x190>
				else if(get_key_press(1<<KEY_ESC))			// Menü verlassen -> Hauptbildschirm anzeigen
    2a7c:	80 e2       	ldi	r24, 0x20	; 32
    2a7e:	0e 94 80 16 	call	0x2d00	; 0x2d00 <get_key_press>
    2a82:	88 23       	and	r24, r24
    2a84:	a1 f2       	breq	.-88     	; 0x2a2e <main+0x172>
				: "r0"
		);
	}
	else
	{
		__asm__ __volatile__ (
    2a86:	0f b6       	in	r0, 0x3f	; 63
    2a88:	f8 94       	cli
    2a8a:	a8 95       	wdr
    2a8c:	c0 93 60 00 	sts	0x0060, r28	; 0x800060 <__DATA_REGION_ORIGIN__>
    2a90:	0f be       	out	0x3f, r0	; 63
    2a92:	d0 93 60 00 	sts	0x0060, r29	; 0x800060 <__DATA_REGION_ORIGIN__>
				{
					wdt_enable(WDTO_1S);					// Watchdog einschalten
					menu(KEY_ESC);							// Hauptmenü 
    2a96:	85 e0       	ldi	r24, 0x05	; 5
    2a98:	0e 94 fa 05 	call	0xbf4	; 0xbf4 <menu>
					lcd_command(LCD_CLEAR);					// LCD löschen
    2a9c:	81 e0       	ldi	r24, 0x01	; 1
    2a9e:	0e 94 02 05 	call	0xa04	; 0xa04 <lcd_command>
					lichtaus = 0;							// Counter für Backlight resetten
    2aa2:	10 92 ee 02 	sts	0x02EE, r1	; 0x8002ee <lichtaus.2536>
		* wird irgendeine Taste gedrückt -> Backlight ein
		*************************************************************************/
		/*************************************************************************
		* Taste RUN gedrückt -> Steuerung zwischen Run und Wartungsmodus umschalten
		*************************************************************************/
		if(get_key_press(1<<KEY_RUN))
    2aa6:	80 e8       	ldi	r24, 0x80	; 128
    2aa8:	0e 94 80 16 	call	0x2d00	; 0x2d00 <get_key_press>
    2aac:	88 23       	and	r24, r24
    2aae:	89 f0       	breq	.+34     	; 0x2ad2 <main+0x216>
		{
			zustandsbit.run ^= 1;	// Steuerung Run oder Wartungs Mode
    2ab0:	80 91 91 04 	lds	r24, 0x0491	; 0x800491 <zustandsbit>
    2ab4:	84 fb       	bst	r24, 4
    2ab6:	22 27       	eor	r18, r18
    2ab8:	20 f9       	bld	r18, 0
    2aba:	91 e0       	ldi	r25, 0x01	; 1
    2abc:	92 27       	eor	r25, r18
    2abe:	90 fb       	bst	r25, 0
    2ac0:	84 f9       	bld	r24, 4
    2ac2:	80 93 91 04 	sts	0x0491, r24	; 0x800491 <zustandsbit>
			lcd_backlight(ON);		// Backlight ein
    2ac6:	80 e0       	ldi	r24, 0x00	; 0
    2ac8:	90 e0       	ldi	r25, 0x00	; 0
    2aca:	0e 94 38 05 	call	0xa70	; 0xa70 <lcd_backlight>
			lichtaus = 0;			// Counter für Backlight resetten
    2ace:	10 92 ee 02 	sts	0x02EE, r1	; 0x8002ee <lichtaus.2536>

		}	
		/*************************************************************************
		* Taste F gedrückt -> Pumpe ausschalten für Fütterung 
		*************************************************************************/
		if(get_key_press(1<<KEY_F))
    2ad2:	80 e4       	ldi	r24, 0x40	; 64
    2ad4:	0e 94 80 16 	call	0x2d00	; 0x2d00 <get_key_press>
    2ad8:	88 23       	and	r24, r24
    2ada:	51 f0       	breq	.+20     	; 0x2af0 <main+0x234>
		{
			regenpumpe_aktivieren(&regenpumpe_einzeit);
    2adc:	8a e8       	ldi	r24, 0x8A	; 138
    2ade:	94 e0       	ldi	r25, 0x04	; 4
    2ae0:	0e 94 78 10 	call	0x20f0	; 0x20f0 <regenpumpe_aktivieren>
			lcd_backlight(ON);	// Backlight ein
    2ae4:	80 e0       	ldi	r24, 0x00	; 0
    2ae6:	90 e0       	ldi	r25, 0x00	; 0
    2ae8:	0e 94 38 05 	call	0xa70	; 0xa70 <lcd_backlight>
			lichtaus = 0;		// Counter für Backlight resetten
    2aec:	10 92 ee 02 	sts	0x02EE, r1	; 0x8002ee <lichtaus.2536>
		/*************************************************************************
		* Taste ESC gedrückt und Backlight ein -> Alarm löschen
		* Wenn Backlight aus -> Alarm nicht löschen, so kann der Alarm auch im 
		* Dunkeln überprüft werden
		*************************************************************************/
		if(get_key_press(1<<KEY_ESC))
    2af0:	80 e2       	ldi	r24, 0x20	; 32
    2af2:	0e 94 80 16 	call	0x2d00	; 0x2d00 <get_key_press>
    2af6:	88 23       	and	r24, r24
    2af8:	61 f0       	breq	.+24     	; 0x2b12 <main+0x256>
		{
			if(lichtaus < LCDBACKLIGHT_ON_ZEIT) alarm_vektor = 0; // Backlight eingeschaltet? Alarm Vektor löschen
    2afa:	80 91 ee 02 	lds	r24, 0x02EE	; 0x8002ee <lichtaus.2536>
    2afe:	8e 31       	cpi	r24, 0x1E	; 30
    2b00:	10 f4       	brcc	.+4      	; 0x2b06 <main+0x24a>
    2b02:	10 92 ef 02 	sts	0x02EF, r1	; 0x8002ef <alarm_vektor>
			lcd_backlight(ON);	// Backlight ein
    2b06:	80 e0       	ldi	r24, 0x00	; 0
    2b08:	90 e0       	ldi	r25, 0x00	; 0
    2b0a:	0e 94 38 05 	call	0xa70	; 0xa70 <lcd_backlight>
			lichtaus = 0;		// Counter für Backlight resetten
    2b0e:	10 92 ee 02 	sts	0x02EE, r1	; 0x8002ee <lichtaus.2536>
		}	
		/*************************************************************************
		* Falls eine der anderen Tasten gedrückt -> Backlight ein
		*************************************************************************/	
		if(get_key_press(1<<KEY_UP | 1<<KEY_DOWN | 1<<KEY_LEFT | 1<<KEY_RIGHT | 1<<KEY_ESC))
    2b12:	8b e3       	ldi	r24, 0x3B	; 59
    2b14:	0e 94 80 16 	call	0x2d00	; 0x2d00 <get_key_press>
    2b18:	88 23       	and	r24, r24
    2b1a:	31 f0       	breq	.+12     	; 0x2b28 <main+0x26c>
		{
			
			lcd_backlight(ON);	// Backlight ein
    2b1c:	80 e0       	ldi	r24, 0x00	; 0
    2b1e:	90 e0       	ldi	r25, 0x00	; 0
    2b20:	0e 94 38 05 	call	0xa70	; 0xa70 <lcd_backlight>
			lichtaus = 0;		// Counter für Backlight resetten
    2b24:	10 92 ee 02 	sts	0x02EE, r1	; 0x8002ee <lichtaus.2536>
		*************************************************************************/
		/*************************************************************************
		* Alle 0.5 sec wird die Zeit eingelesen und die Ausgänge
		* angesteuert
		*************************************************************************/			
		if (messflag_05s) // Wenn 0.5s vorbei, wird durch Timerinterrupt gesteuert
    2b28:	80 91 af 03 	lds	r24, 0x03AF	; 0x8003af <messflag_05s>
    2b2c:	88 23       	and	r24, r24
    2b2e:	f9 f0       	breq	.+62     	; 0x2b6e <main+0x2b2>
        {
            messflag_05s =0;				// ISR Flag zurücksetzen
    2b30:	10 92 af 03 	sts	0x03AF, r1	; 0x8003af <messflag_05s>
            get_ds1307_zeit_datum(&zeit);	// Zeit vom DS1307 holen;
    2b34:	87 ee       	ldi	r24, 0xE7	; 231
    2b36:	93 e0       	ldi	r25, 0x03	; 3
    2b38:	0e 94 92 02 	call	0x524	; 0x524 <get_ds1307_zeit_datum>
            lampen_schalten(); 				// Lampen Ausgänge ansteuern	
    2b3c:	0e 94 b9 10 	call	0x2172	; 0x2172 <lampen_schalten>
			reset_tageswerte(); // Um Mitternacht Tages Min- und Maxwerte löschen
    2b40:	0e 94 f5 12 	call	0x25ea	; 0x25ea <reset_tageswerte>
			if (timer_counter)				// Pumpenstopp aktiv
    2b44:	40 91 a4 03 	lds	r20, 0x03A4	; 0x8003a4 <timer_counter>
    2b48:	50 91 a5 03 	lds	r21, 0x03A5	; 0x8003a5 <timer_counter+0x1>
    2b4c:	60 91 a6 03 	lds	r22, 0x03A6	; 0x8003a6 <timer_counter+0x2>
    2b50:	70 91 a7 03 	lds	r23, 0x03A7	; 0x8003a7 <timer_counter+0x3>
    2b54:	80 91 91 04 	lds	r24, 0x0491	; 0x800491 <zustandsbit>
    2b58:	45 2b       	or	r20, r21
    2b5a:	46 2b       	or	r20, r22
    2b5c:	47 2b       	or	r20, r23
    2b5e:	11 f0       	breq	.+4      	; 0x2b64 <main+0x2a8>
			{
				zustandsbit.pumpe = 1;		// Zustandsbit für Pumpe ein
    2b60:	80 62       	ori	r24, 0x20	; 32
    2b62:	01 c0       	rjmp	.+2      	; 0x2b66 <main+0x2aa>
			}
			else zustandsbit.pumpe = 0;		// Zustandsbit für Pumpe aus
    2b64:	8f 7d       	andi	r24, 0xDF	; 223
    2b66:	80 93 91 04 	sts	0x0491, r24	; 0x800491 <zustandsbit>
			ausgaenge_ansteuern();	
    2b6a:	0e 94 42 12 	call	0x2484	; 0x2484 <ausgaenge_ansteuern>
		/*************************************************************************
		* Alle 1 sec werden die Temperatur und der pH Wert eingelesen 
		* die Zustandsbits entsprechend gesetzt, die aktuellen Werte per UART
		* gesendet und überprüft ob das Backlight ausgeschaltet werden muss
		*************************************************************************/	
        if (messflag_1s) // Wenn 1s vorbei, wird durch Timerinterrupt gesteuert 
    2b6e:	80 91 aa 03 	lds	r24, 0x03AA	; 0x8003aa <messflag_1s>
    2b72:	88 23       	and	r24, r24
    2b74:	09 f4       	brne	.+2      	; 0x2b78 <main+0x2bc>
    2b76:	35 cf       	rjmp	.-406    	; 0x29e2 <main+0x126>
        {
            messflag_1s =0;								// ISR Flag zurücksetzen
    2b78:	10 92 aa 03 	sts	0x03AA, r1	; 0x8003aa <messflag_1s>
			for ( i = 0;i<sizeof(LM76_ADRESS); i++)
    2b7c:	10 92 08 04 	sts	0x0408, r1	; 0x800408 <i>
    2b80:	e0 91 08 04 	lds	r30, 0x0408	; 0x800408 <i>
    2b84:	e3 30       	cpi	r30, 0x03	; 3
    2b86:	28 f5       	brcc	.+74     	; 0x2bd2 <main+0x316>
			{
				temperatur[i] = get_lm76_temperatur(LM76_ADRESS[i])+ temperatur_offset[i]; // Temperatur vom LM76 holen und Offset addieren;
    2b88:	f0 e0       	ldi	r31, 0x00	; 0
    2b8a:	e0 53       	subi	r30, 0x30	; 48
    2b8c:	fd 4f       	sbci	r31, 0xFD	; 253
    2b8e:	80 81       	ld	r24, Z
    2b90:	0e 94 c7 06 	call	0xd8e	; 0xd8e <get_lm76_temperatur>
    2b94:	20 91 08 04 	lds	r18, 0x0408	; 0x800408 <i>
    2b98:	30 e0       	ldi	r19, 0x00	; 0
    2b9a:	f9 01       	movw	r30, r18
    2b9c:	ee 0f       	add	r30, r30
    2b9e:	ff 1f       	adc	r31, r31
    2ba0:	ea 50       	subi	r30, 0x0A	; 10
    2ba2:	fd 4f       	sbci	r31, 0xFD	; 253
    2ba4:	d9 01       	movw	r26, r18
    2ba6:	a4 50       	subi	r26, 0x04	; 4
    2ba8:	bd 4f       	sbci	r27, 0xFD	; 253
    2baa:	2c 91       	ld	r18, X
    2bac:	82 0f       	add	r24, r18
    2bae:	91 1d       	adc	r25, r1
    2bb0:	27 fd       	sbrc	r18, 7
    2bb2:	9a 95       	dec	r25
    2bb4:	91 83       	std	Z+1, r25	; 0x01
    2bb6:	80 83       	st	Z, r24
				get_hih6131_data(hih6131_adress, &huminity, &hih_temperatur);
    2bb8:	42 ef       	ldi	r20, 0xF2	; 242
    2bba:	52 e0       	ldi	r21, 0x02	; 2
    2bbc:	64 ef       	ldi	r22, 0xF4	; 244
    2bbe:	72 e0       	ldi	r23, 0x02	; 2
    2bc0:	8e e4       	ldi	r24, 0x4E	; 78
    2bc2:	0e 94 8a 03 	call	0x714	; 0x714 <get_hih6131_data>
		* gesendet und überprüft ob das Backlight ausgeschaltet werden muss
		*************************************************************************/	
        if (messflag_1s) // Wenn 1s vorbei, wird durch Timerinterrupt gesteuert 
        {
            messflag_1s =0;								// ISR Flag zurücksetzen
			for ( i = 0;i<sizeof(LM76_ADRESS); i++)
    2bc6:	80 91 08 04 	lds	r24, 0x0408	; 0x800408 <i>
    2bca:	8f 5f       	subi	r24, 0xFF	; 255
    2bcc:	80 93 08 04 	sts	0x0408, r24	; 0x800408 <i>
    2bd0:	d7 cf       	rjmp	.-82     	; 0x2b80 <main+0x2c4>
				temperatur[i] = get_lm76_temperatur(LM76_ADRESS[i])+ temperatur_offset[i]; // Temperatur vom LM76 holen und Offset addieren;
				get_hih6131_data(hih6131_adress, &huminity, &hih_temperatur);
			}	
				//temperatur[0] = get_lm76_temperatur_4x(LM76_1_ADRESSE)+ temperatur_offset; // Temperatur vom LM76 holen und Offset addieren;
				//ph_wert = read_phwert(&phwert_referenzen);	// pH Wert über ADC holen 
				temperatuen_schalten();						// Zustandsbit für Temperatur gesteuerte Ausgänge schalten
    2bd2:	0e 94 1c 10 	call	0x2038	; 0x2038 <temperatuen_schalten>
				//send_to_uart();								// aktuelle Werte über UART senden
				if(lichtaus > LCDBACKLIGHT_ON_ZEIT) lcd_backlight(OFF);	// überprüfen ob Zeit für Backlight in abgelaufen		
    2bd6:	80 91 ee 02 	lds	r24, 0x02EE	; 0x8002ee <lichtaus.2536>
    2bda:	8f 31       	cpi	r24, 0x1F	; 31
    2bdc:	28 f0       	brcs	.+10     	; 0x2be8 <main+0x32c>
    2bde:	81 e0       	ldi	r24, 0x01	; 1
    2be0:	90 e0       	ldi	r25, 0x00	; 0
    2be2:	0e 94 38 05 	call	0xa70	; 0xa70 <lcd_backlight>
    2be6:	fd ce       	rjmp	.-518    	; 0x29e2 <main+0x126>
				else lichtaus++;
    2be8:	8f 5f       	subi	r24, 0xFF	; 255
    2bea:	80 93 ee 02 	sts	0x02EE, r24	; 0x8002ee <lichtaus.2536>
    2bee:	f9 ce       	rjmp	.-526    	; 0x29e2 <main+0x126>

00002bf0 <__vector_18>:

///////////////////////////////////////////////////////////////////
//
uint8_t get_key_long( uint8_t key_mask )
{
    return get_key_press( get_key_rpt( key_mask ));
    2bf0:	1f 92       	push	r1
    2bf2:	0f 92       	push	r0
    2bf4:	0f b6       	in	r0, 0x3f	; 63
    2bf6:	0f 92       	push	r0
    2bf8:	11 24       	eor	r1, r1
    2bfa:	2f 93       	push	r18
    2bfc:	8f 93       	push	r24
    2bfe:	9f 93       	push	r25
    2c00:	af 93       	push	r26
    2c02:	bf 93       	push	r27
    2c04:	84 e6       	ldi	r24, 0x64	; 100
    2c06:	86 bd       	out	0x26, r24	; 38
    2c08:	83 b1       	in	r24, 0x03	; 3
    2c0a:	90 91 b0 03 	lds	r25, 0x03B0	; 0x8003b0 <key_state>
    2c0e:	80 95       	com	r24
    2c10:	28 2f       	mov	r18, r24
    2c12:	29 27       	eor	r18, r25
    2c14:	90 91 03 03 	lds	r25, 0x0303	; 0x800303 <ct0.1625>
    2c18:	92 23       	and	r25, r18
    2c1a:	89 2f       	mov	r24, r25
    2c1c:	80 95       	com	r24
    2c1e:	80 93 03 03 	sts	0x0303, r24	; 0x800303 <ct0.1625>
    2c22:	90 91 02 03 	lds	r25, 0x0302	; 0x800302 <ct1.1626>
    2c26:	92 23       	and	r25, r18
    2c28:	98 27       	eor	r25, r24
    2c2a:	90 93 02 03 	sts	0x0302, r25	; 0x800302 <ct1.1626>
    2c2e:	82 23       	and	r24, r18
    2c30:	89 23       	and	r24, r25
    2c32:	90 91 b0 03 	lds	r25, 0x03B0	; 0x8003b0 <key_state>
    2c36:	98 27       	eor	r25, r24
    2c38:	90 93 b0 03 	sts	0x03B0, r25	; 0x8003b0 <key_state>
    2c3c:	20 91 b0 03 	lds	r18, 0x03B0	; 0x8003b0 <key_state>
    2c40:	90 91 ae 03 	lds	r25, 0x03AE	; 0x8003ae <key_press>
    2c44:	82 23       	and	r24, r18
    2c46:	89 2b       	or	r24, r25
    2c48:	80 93 ae 03 	sts	0x03AE, r24	; 0x8003ae <key_press>
    2c4c:	80 91 b0 03 	lds	r24, 0x03B0	; 0x8003b0 <key_state>
    2c50:	81 11       	cpse	r24, r1
    2c52:	03 c0       	rjmp	.+6      	; 0x2c5a <__vector_18+0x6a>
    2c54:	82 e3       	ldi	r24, 0x32	; 50
    2c56:	80 93 01 03 	sts	0x0301, r24	; 0x800301 <rpt.1627>
    2c5a:	80 91 01 03 	lds	r24, 0x0301	; 0x800301 <rpt.1627>
    2c5e:	81 50       	subi	r24, 0x01	; 1
    2c60:	19 f0       	breq	.+6      	; 0x2c68 <__vector_18+0x78>
    2c62:	80 93 01 03 	sts	0x0301, r24	; 0x800301 <rpt.1627>
    2c66:	0a c0       	rjmp	.+20     	; 0x2c7c <__vector_18+0x8c>
    2c68:	8a e0       	ldi	r24, 0x0A	; 10
    2c6a:	80 93 01 03 	sts	0x0301, r24	; 0x800301 <rpt.1627>
    2c6e:	90 91 b0 03 	lds	r25, 0x03B0	; 0x8003b0 <key_state>
    2c72:	80 91 ab 03 	lds	r24, 0x03AB	; 0x8003ab <key_rpt>
    2c76:	89 2b       	or	r24, r25
    2c78:	80 93 ab 03 	sts	0x03AB, r24	; 0x8003ab <key_rpt>
    2c7c:	80 91 00 03 	lds	r24, 0x0300	; 0x800300 <messcounter1.1628>
    2c80:	8f 5f       	subi	r24, 0xFF	; 255
    2c82:	82 33       	cpi	r24, 0x32	; 50
    2c84:	19 f0       	breq	.+6      	; 0x2c8c <__vector_18+0x9c>
    2c86:	80 93 00 03 	sts	0x0300, r24	; 0x800300 <messcounter1.1628>
    2c8a:	30 c0       	rjmp	.+96     	; 0x2cec <__vector_18+0xfc>
    2c8c:	10 92 00 03 	sts	0x0300, r1	; 0x800300 <messcounter1.1628>
    2c90:	91 e0       	ldi	r25, 0x01	; 1
    2c92:	90 93 af 03 	sts	0x03AF, r25	; 0x8003af <messflag_05s>
    2c96:	80 91 ff 02 	lds	r24, 0x02FF	; 0x8002ff <messcounter2.1629>
    2c9a:	8f 5f       	subi	r24, 0xFF	; 255
    2c9c:	82 30       	cpi	r24, 0x02	; 2
    2c9e:	19 f0       	breq	.+6      	; 0x2ca6 <__vector_18+0xb6>
    2ca0:	80 93 ff 02 	sts	0x02FF, r24	; 0x8002ff <messcounter2.1629>
    2ca4:	23 c0       	rjmp	.+70     	; 0x2cec <__vector_18+0xfc>
    2ca6:	10 92 ff 02 	sts	0x02FF, r1	; 0x8002ff <messcounter2.1629>
    2caa:	90 93 aa 03 	sts	0x03AA, r25	; 0x8003aa <messflag_1s>
    2cae:	80 91 a4 03 	lds	r24, 0x03A4	; 0x8003a4 <timer_counter>
    2cb2:	90 91 a5 03 	lds	r25, 0x03A5	; 0x8003a5 <timer_counter+0x1>
    2cb6:	a0 91 a6 03 	lds	r26, 0x03A6	; 0x8003a6 <timer_counter+0x2>
    2cba:	b0 91 a7 03 	lds	r27, 0x03A7	; 0x8003a7 <timer_counter+0x3>
    2cbe:	89 2b       	or	r24, r25
    2cc0:	8a 2b       	or	r24, r26
    2cc2:	8b 2b       	or	r24, r27
    2cc4:	99 f0       	breq	.+38     	; 0x2cec <__vector_18+0xfc>
    2cc6:	80 91 a4 03 	lds	r24, 0x03A4	; 0x8003a4 <timer_counter>
    2cca:	90 91 a5 03 	lds	r25, 0x03A5	; 0x8003a5 <timer_counter+0x1>
    2cce:	a0 91 a6 03 	lds	r26, 0x03A6	; 0x8003a6 <timer_counter+0x2>
    2cd2:	b0 91 a7 03 	lds	r27, 0x03A7	; 0x8003a7 <timer_counter+0x3>
    2cd6:	01 97       	sbiw	r24, 0x01	; 1
    2cd8:	a1 09       	sbc	r26, r1
    2cda:	b1 09       	sbc	r27, r1
    2cdc:	80 93 a4 03 	sts	0x03A4, r24	; 0x8003a4 <timer_counter>
    2ce0:	90 93 a5 03 	sts	0x03A5, r25	; 0x8003a5 <timer_counter+0x1>
    2ce4:	a0 93 a6 03 	sts	0x03A6, r26	; 0x8003a6 <timer_counter+0x2>
    2ce8:	b0 93 a7 03 	sts	0x03A7, r27	; 0x8003a7 <timer_counter+0x3>
    2cec:	bf 91       	pop	r27
    2cee:	af 91       	pop	r26
    2cf0:	9f 91       	pop	r25
    2cf2:	8f 91       	pop	r24
    2cf4:	2f 91       	pop	r18
    2cf6:	0f 90       	pop	r0
    2cf8:	0f be       	out	0x3f, r0	; 63
    2cfa:	0f 90       	pop	r0
    2cfc:	1f 90       	pop	r1
    2cfe:	18 95       	reti

00002d00 <get_key_press>:
    2d00:	f8 94       	cli
    2d02:	90 91 ae 03 	lds	r25, 0x03AE	; 0x8003ae <key_press>
    2d06:	89 23       	and	r24, r25
    2d08:	90 91 ae 03 	lds	r25, 0x03AE	; 0x8003ae <key_press>
    2d0c:	98 27       	eor	r25, r24
    2d0e:	90 93 ae 03 	sts	0x03AE, r25	; 0x8003ae <key_press>
    2d12:	78 94       	sei
    2d14:	08 95       	ret

00002d16 <get_key_rpt>:
    2d16:	f8 94       	cli
    2d18:	90 91 ab 03 	lds	r25, 0x03AB	; 0x8003ab <key_rpt>
    2d1c:	89 23       	and	r24, r25
    2d1e:	90 91 ab 03 	lds	r25, 0x03AB	; 0x8003ab <key_rpt>
    2d22:	98 27       	eor	r25, r24
    2d24:	90 93 ab 03 	sts	0x03AB, r25	; 0x8003ab <key_rpt>
    2d28:	78 94       	sei
    2d2a:	08 95       	ret

00002d2c <get_key_short>:
    2d2c:	f8 94       	cli
    2d2e:	90 91 b0 03 	lds	r25, 0x03B0	; 0x8003b0 <key_state>
    2d32:	90 95       	com	r25
    2d34:	89 23       	and	r24, r25
    2d36:	0c 94 80 16 	jmp	0x2d00	; 0x2d00 <get_key_press>

00002d3a <init_taster>:
}
void init_taster()
{
	timer_counter =0;
    2d3a:	10 92 a4 03 	sts	0x03A4, r1	; 0x8003a4 <timer_counter>
    2d3e:	10 92 a5 03 	sts	0x03A5, r1	; 0x8003a5 <timer_counter+0x1>
    2d42:	10 92 a6 03 	sts	0x03A6, r1	; 0x8003a6 <timer_counter+0x2>
    2d46:	10 92 a7 03 	sts	0x03A7, r1	; 0x8003a7 <timer_counter+0x3>
    KEY_DDR &= ~ALL_KEYS;                // configure key port for input
    2d4a:	84 b1       	in	r24, 0x04	; 4
    2d4c:	14 b8       	out	0x04, r1	; 4
    KEY_PORT |= ALL_KEYS;                // and turn on pull up resistors
    2d4e:	85 b1       	in	r24, 0x05	; 5
    2d50:	8f ef       	ldi	r24, 0xFF	; 255
    2d52:	85 b9       	out	0x05, r24	; 5
    2d54:	08 95       	ret

00002d56 <__vector_20>:
    register char c;

    while ( (c = pgm_read_byte(progmem_s++)) )
        uart_putc(c);

}/* uart_puts_p */
    2d56:	1f 92       	push	r1
    2d58:	0f 92       	push	r0
    2d5a:	0f b6       	in	r0, 0x3f	; 63
    2d5c:	0f 92       	push	r0
    2d5e:	11 24       	eor	r1, r1
    2d60:	2f 93       	push	r18
    2d62:	8f 93       	push	r24
    2d64:	9f 93       	push	r25
    2d66:	ef 93       	push	r30
    2d68:	ff 93       	push	r31
    2d6a:	80 91 c0 00 	lds	r24, 0x00C0	; 0x8000c0 <__DATA_REGION_ORIGIN__+0x60>
    2d6e:	90 91 c6 00 	lds	r25, 0x00C6	; 0x8000c6 <__DATA_REGION_ORIGIN__+0x66>
    2d72:	88 71       	andi	r24, 0x18	; 24
    2d74:	e0 91 4b 03 	lds	r30, 0x034B	; 0x80034b <UART_RxHead>
    2d78:	ef 5f       	subi	r30, 0xFF	; 255
    2d7a:	ef 71       	andi	r30, 0x1F	; 31
    2d7c:	20 91 4a 03 	lds	r18, 0x034A	; 0x80034a <UART_RxTail>
    2d80:	e2 17       	cp	r30, r18
    2d82:	39 f0       	breq	.+14     	; 0x2d92 <__vector_20+0x3c>
    2d84:	e0 93 4b 03 	sts	0x034B, r30	; 0x80034b <UART_RxHead>
    2d88:	f0 e0       	ldi	r31, 0x00	; 0
    2d8a:	e2 5b       	subi	r30, 0xB2	; 178
    2d8c:	fc 4f       	sbci	r31, 0xFC	; 252
    2d8e:	90 83       	st	Z, r25
    2d90:	01 c0       	rjmp	.+2      	; 0x2d94 <__vector_20+0x3e>
    2d92:	82 e0       	ldi	r24, 0x02	; 2
    2d94:	80 93 49 03 	sts	0x0349, r24	; 0x800349 <UART_LastRxError>
    2d98:	ff 91       	pop	r31
    2d9a:	ef 91       	pop	r30
    2d9c:	9f 91       	pop	r25
    2d9e:	8f 91       	pop	r24
    2da0:	2f 91       	pop	r18
    2da2:	0f 90       	pop	r0
    2da4:	0f be       	out	0x3f, r0	; 63
    2da6:	0f 90       	pop	r0
    2da8:	1f 90       	pop	r1
    2daa:	18 95       	reti

00002dac <__vector_22>:
    2dac:	1f 92       	push	r1
    2dae:	0f 92       	push	r0
    2db0:	0f b6       	in	r0, 0x3f	; 63
    2db2:	0f 92       	push	r0
    2db4:	11 24       	eor	r1, r1
    2db6:	8f 93       	push	r24
    2db8:	9f 93       	push	r25
    2dba:	ef 93       	push	r30
    2dbc:	ff 93       	push	r31
    2dbe:	90 91 4d 03 	lds	r25, 0x034D	; 0x80034d <UART_TxHead>
    2dc2:	80 91 4c 03 	lds	r24, 0x034C	; 0x80034c <UART_TxTail>
    2dc6:	98 17       	cp	r25, r24
    2dc8:	69 f0       	breq	.+26     	; 0x2de4 <__vector_22+0x38>
    2dca:	e0 91 4c 03 	lds	r30, 0x034C	; 0x80034c <UART_TxTail>
    2dce:	ef 5f       	subi	r30, 0xFF	; 255
    2dd0:	ef 71       	andi	r30, 0x1F	; 31
    2dd2:	e0 93 4c 03 	sts	0x034C, r30	; 0x80034c <UART_TxTail>
    2dd6:	f0 e0       	ldi	r31, 0x00	; 0
    2dd8:	e2 59       	subi	r30, 0x92	; 146
    2dda:	fc 4f       	sbci	r31, 0xFC	; 252
    2ddc:	80 81       	ld	r24, Z
    2dde:	80 93 c6 00 	sts	0x00C6, r24	; 0x8000c6 <__DATA_REGION_ORIGIN__+0x66>
    2de2:	05 c0       	rjmp	.+10     	; 0x2dee <__vector_22+0x42>
    2de4:	80 91 c1 00 	lds	r24, 0x00C1	; 0x8000c1 <__DATA_REGION_ORIGIN__+0x61>
    2de8:	8f 7d       	andi	r24, 0xDF	; 223
    2dea:	80 93 c1 00 	sts	0x00C1, r24	; 0x8000c1 <__DATA_REGION_ORIGIN__+0x61>
    2dee:	ff 91       	pop	r31
    2df0:	ef 91       	pop	r30
    2df2:	9f 91       	pop	r25
    2df4:	8f 91       	pop	r24
    2df6:	0f 90       	pop	r0
    2df8:	0f be       	out	0x3f, r0	; 63
    2dfa:	0f 90       	pop	r0
    2dfc:	1f 90       	pop	r1
    2dfe:	18 95       	reti

00002e00 <__vector_28>:
ISR(USART1_RX_vect)
/*************************************************************************
Function: UART1 Receive Complete interrupt
Purpose:  called when the UART1 has received a character
**************************************************************************/
{
    2e00:	1f 92       	push	r1
    2e02:	0f 92       	push	r0
    2e04:	0f b6       	in	r0, 0x3f	; 63
    2e06:	0f 92       	push	r0
    2e08:	11 24       	eor	r1, r1
    2e0a:	2f 93       	push	r18
    2e0c:	8f 93       	push	r24
    2e0e:	9f 93       	push	r25
    2e10:	ef 93       	push	r30
    2e12:	ff 93       	push	r31
    unsigned char usr;
    unsigned char lastRxError;


    /* read UART status register and UART data register */
    usr  = UART1_STATUS;
    2e14:	80 91 c8 00 	lds	r24, 0x00C8	; 0x8000c8 <__DATA_REGION_ORIGIN__+0x68>
    data = UART1_DATA;
    2e18:	90 91 ce 00 	lds	r25, 0x00CE	; 0x8000ce <__DATA_REGION_ORIGIN__+0x6e>

    /* */
    lastRxError = (usr & (_BV(FE1)|_BV(DOR1)) );
    2e1c:	88 71       	andi	r24, 0x18	; 24

    /* calculate buffer index */
    tmphead = ( UART1_RxHead + 1) & UART_RX_BUFFER_MASK;
    2e1e:	e0 91 06 03 	lds	r30, 0x0306	; 0x800306 <UART1_RxHead>
    2e22:	ef 5f       	subi	r30, 0xFF	; 255
    2e24:	ef 71       	andi	r30, 0x1F	; 31

    if ( tmphead == UART1_RxTail )
    2e26:	20 91 05 03 	lds	r18, 0x0305	; 0x800305 <UART1_RxTail>
    2e2a:	e2 17       	cp	r30, r18
    2e2c:	39 f0       	breq	.+14     	; 0x2e3c <__vector_28+0x3c>
        lastRxError = UART_BUFFER_OVERFLOW >> 8;
    }
    else
    {
        /* store new index */
        UART1_RxHead = tmphead;
    2e2e:	e0 93 06 03 	sts	0x0306, r30	; 0x800306 <UART1_RxHead>
        /* store received data in buffer */
        UART1_RxBuf[tmphead] = data;
    2e32:	f0 e0       	ldi	r31, 0x00	; 0
    2e34:	e7 5f       	subi	r30, 0xF7	; 247
    2e36:	fc 4f       	sbci	r31, 0xFC	; 252
    2e38:	90 83       	st	Z, r25
    2e3a:	01 c0       	rjmp	.+2      	; 0x2e3e <__vector_28+0x3e>
    tmphead = ( UART1_RxHead + 1) & UART_RX_BUFFER_MASK;

    if ( tmphead == UART1_RxTail )
    {
        /* error: receive buffer overflow */
        lastRxError = UART_BUFFER_OVERFLOW >> 8;
    2e3c:	82 e0       	ldi	r24, 0x02	; 2
        /* store new index */
        UART1_RxHead = tmphead;
        /* store received data in buffer */
        UART1_RxBuf[tmphead] = data;
    }
    UART1_LastRxError = lastRxError;
    2e3e:	80 93 04 03 	sts	0x0304, r24	; 0x800304 <UART1_LastRxError>
}
    2e42:	ff 91       	pop	r31
    2e44:	ef 91       	pop	r30
    2e46:	9f 91       	pop	r25
    2e48:	8f 91       	pop	r24
    2e4a:	2f 91       	pop	r18
    2e4c:	0f 90       	pop	r0
    2e4e:	0f be       	out	0x3f, r0	; 63
    2e50:	0f 90       	pop	r0
    2e52:	1f 90       	pop	r1
    2e54:	18 95       	reti

00002e56 <__vector_30>:
SIGNAL(UART1_TRANSMIT_INTERRUPT)
/*************************************************************************
Function: UART1 Data Register Empty interrupt
Purpose:  called when the UART1 is ready to transmit the next byte
**************************************************************************/
{
    2e56:	1f 92       	push	r1
    2e58:	0f 92       	push	r0
    2e5a:	0f b6       	in	r0, 0x3f	; 63
    2e5c:	0f 92       	push	r0
    2e5e:	11 24       	eor	r1, r1
    2e60:	8f 93       	push	r24
    2e62:	9f 93       	push	r25
    2e64:	ef 93       	push	r30
    2e66:	ff 93       	push	r31
    unsigned char tmptail;


    if ( UART1_TxHead != UART1_TxTail)
    2e68:	90 91 08 03 	lds	r25, 0x0308	; 0x800308 <UART1_TxHead>
    2e6c:	80 91 07 03 	lds	r24, 0x0307	; 0x800307 <UART1_TxTail>
    2e70:	98 17       	cp	r25, r24
    2e72:	69 f0       	breq	.+26     	; 0x2e8e <__vector_30+0x38>
    {
        /* calculate and store new buffer index */
        tmptail = (UART1_TxTail + 1) & UART_TX_BUFFER_MASK;
    2e74:	e0 91 07 03 	lds	r30, 0x0307	; 0x800307 <UART1_TxTail>
    2e78:	ef 5f       	subi	r30, 0xFF	; 255
    2e7a:	ef 71       	andi	r30, 0x1F	; 31
        UART1_TxTail = tmptail;
    2e7c:	e0 93 07 03 	sts	0x0307, r30	; 0x800307 <UART1_TxTail>
        /* get one byte from buffer and write it to UART */
        UART1_DATA = UART1_TxBuf[tmptail];  /* start transmission */
    2e80:	f0 e0       	ldi	r31, 0x00	; 0
    2e82:	e7 5d       	subi	r30, 0xD7	; 215
    2e84:	fc 4f       	sbci	r31, 0xFC	; 252
    2e86:	80 81       	ld	r24, Z
    2e88:	80 93 ce 00 	sts	0x00CE, r24	; 0x8000ce <__DATA_REGION_ORIGIN__+0x6e>
    2e8c:	05 c0       	rjmp	.+10     	; 0x2e98 <__vector_30+0x42>
    }
    else
    {
        /* tx buffer empty, disable UDRE interrupt */
        UART1_CONTROL &= ~_BV(UART1_UDRIE);
    2e8e:	80 91 c9 00 	lds	r24, 0x00C9	; 0x8000c9 <__DATA_REGION_ORIGIN__+0x69>
    2e92:	8f 7d       	andi	r24, 0xDF	; 223
    2e94:	80 93 c9 00 	sts	0x00C9, r24	; 0x8000c9 <__DATA_REGION_ORIGIN__+0x69>
    }
}
    2e98:	ff 91       	pop	r31
    2e9a:	ef 91       	pop	r30
    2e9c:	9f 91       	pop	r25
    2e9e:	8f 91       	pop	r24
    2ea0:	0f 90       	pop	r0
    2ea2:	0f be       	out	0x3f, r0	; 63
    2ea4:	0f 90       	pop	r0
    2ea6:	1f 90       	pop	r1
    2ea8:	18 95       	reti

00002eaa <__udivmodqi4>:
    2eaa:	99 1b       	sub	r25, r25
    2eac:	79 e0       	ldi	r23, 0x09	; 9
    2eae:	04 c0       	rjmp	.+8      	; 0x2eb8 <__udivmodqi4_ep>

00002eb0 <__udivmodqi4_loop>:
    2eb0:	99 1f       	adc	r25, r25
    2eb2:	96 17       	cp	r25, r22
    2eb4:	08 f0       	brcs	.+2      	; 0x2eb8 <__udivmodqi4_ep>
    2eb6:	96 1b       	sub	r25, r22

00002eb8 <__udivmodqi4_ep>:
    2eb8:	88 1f       	adc	r24, r24
    2eba:	7a 95       	dec	r23
    2ebc:	c9 f7       	brne	.-14     	; 0x2eb0 <__udivmodqi4_loop>
    2ebe:	80 95       	com	r24
    2ec0:	08 95       	ret

00002ec2 <__udivmodhi4>:
    2ec2:	aa 1b       	sub	r26, r26
    2ec4:	bb 1b       	sub	r27, r27
    2ec6:	51 e1       	ldi	r21, 0x11	; 17
    2ec8:	07 c0       	rjmp	.+14     	; 0x2ed8 <__udivmodhi4_ep>

00002eca <__udivmodhi4_loop>:
    2eca:	aa 1f       	adc	r26, r26
    2ecc:	bb 1f       	adc	r27, r27
    2ece:	a6 17       	cp	r26, r22
    2ed0:	b7 07       	cpc	r27, r23
    2ed2:	10 f0       	brcs	.+4      	; 0x2ed8 <__udivmodhi4_ep>
    2ed4:	a6 1b       	sub	r26, r22
    2ed6:	b7 0b       	sbc	r27, r23

00002ed8 <__udivmodhi4_ep>:
    2ed8:	88 1f       	adc	r24, r24
    2eda:	99 1f       	adc	r25, r25
    2edc:	5a 95       	dec	r21
    2ede:	a9 f7       	brne	.-22     	; 0x2eca <__udivmodhi4_loop>
    2ee0:	80 95       	com	r24
    2ee2:	90 95       	com	r25
    2ee4:	bc 01       	movw	r22, r24
    2ee6:	cd 01       	movw	r24, r26
    2ee8:	08 95       	ret

00002eea <__udivmodsi4>:
    2eea:	a1 e2       	ldi	r26, 0x21	; 33
    2eec:	1a 2e       	mov	r1, r26
    2eee:	aa 1b       	sub	r26, r26
    2ef0:	bb 1b       	sub	r27, r27
    2ef2:	fd 01       	movw	r30, r26
    2ef4:	0d c0       	rjmp	.+26     	; 0x2f10 <__udivmodsi4_ep>

00002ef6 <__udivmodsi4_loop>:
    2ef6:	aa 1f       	adc	r26, r26
    2ef8:	bb 1f       	adc	r27, r27
    2efa:	ee 1f       	adc	r30, r30
    2efc:	ff 1f       	adc	r31, r31
    2efe:	a2 17       	cp	r26, r18
    2f00:	b3 07       	cpc	r27, r19
    2f02:	e4 07       	cpc	r30, r20
    2f04:	f5 07       	cpc	r31, r21
    2f06:	20 f0       	brcs	.+8      	; 0x2f10 <__udivmodsi4_ep>
    2f08:	a2 1b       	sub	r26, r18
    2f0a:	b3 0b       	sbc	r27, r19
    2f0c:	e4 0b       	sbc	r30, r20
    2f0e:	f5 0b       	sbc	r31, r21

00002f10 <__udivmodsi4_ep>:
    2f10:	66 1f       	adc	r22, r22
    2f12:	77 1f       	adc	r23, r23
    2f14:	88 1f       	adc	r24, r24
    2f16:	99 1f       	adc	r25, r25
    2f18:	1a 94       	dec	r1
    2f1a:	69 f7       	brne	.-38     	; 0x2ef6 <__udivmodsi4_loop>
    2f1c:	60 95       	com	r22
    2f1e:	70 95       	com	r23
    2f20:	80 95       	com	r24
    2f22:	90 95       	com	r25
    2f24:	9b 01       	movw	r18, r22
    2f26:	ac 01       	movw	r20, r24
    2f28:	bd 01       	movw	r22, r26
    2f2a:	cf 01       	movw	r24, r30
    2f2c:	08 95       	ret

00002f2e <__divmodsi4>:
    2f2e:	05 2e       	mov	r0, r21
    2f30:	97 fb       	bst	r25, 7
    2f32:	1e f4       	brtc	.+6      	; 0x2f3a <__divmodsi4+0xc>
    2f34:	00 94       	com	r0
    2f36:	0e 94 ae 17 	call	0x2f5c	; 0x2f5c <__negsi2>
    2f3a:	57 fd       	sbrc	r21, 7
    2f3c:	07 d0       	rcall	.+14     	; 0x2f4c <__divmodsi4_neg2>
    2f3e:	0e 94 75 17 	call	0x2eea	; 0x2eea <__udivmodsi4>
    2f42:	07 fc       	sbrc	r0, 7
    2f44:	03 d0       	rcall	.+6      	; 0x2f4c <__divmodsi4_neg2>
    2f46:	4e f4       	brtc	.+18     	; 0x2f5a <__divmodsi4_exit>
    2f48:	0c 94 ae 17 	jmp	0x2f5c	; 0x2f5c <__negsi2>

00002f4c <__divmodsi4_neg2>:
    2f4c:	50 95       	com	r21
    2f4e:	40 95       	com	r20
    2f50:	30 95       	com	r19
    2f52:	21 95       	neg	r18
    2f54:	3f 4f       	sbci	r19, 0xFF	; 255
    2f56:	4f 4f       	sbci	r20, 0xFF	; 255
    2f58:	5f 4f       	sbci	r21, 0xFF	; 255

00002f5a <__divmodsi4_exit>:
    2f5a:	08 95       	ret

00002f5c <__negsi2>:
    2f5c:	90 95       	com	r25
    2f5e:	80 95       	com	r24
    2f60:	70 95       	com	r23
    2f62:	61 95       	neg	r22
    2f64:	7f 4f       	sbci	r23, 0xFF	; 255
    2f66:	8f 4f       	sbci	r24, 0xFF	; 255
    2f68:	9f 4f       	sbci	r25, 0xFF	; 255
    2f6a:	08 95       	ret

00002f6c <__umulhisi3>:
    2f6c:	a2 9f       	mul	r26, r18
    2f6e:	b0 01       	movw	r22, r0
    2f70:	b3 9f       	mul	r27, r19
    2f72:	c0 01       	movw	r24, r0
    2f74:	a3 9f       	mul	r26, r19
    2f76:	70 0d       	add	r23, r0
    2f78:	81 1d       	adc	r24, r1
    2f7a:	11 24       	eor	r1, r1
    2f7c:	91 1d       	adc	r25, r1
    2f7e:	b2 9f       	mul	r27, r18
    2f80:	70 0d       	add	r23, r0
    2f82:	81 1d       	adc	r24, r1
    2f84:	11 24       	eor	r1, r1
    2f86:	91 1d       	adc	r25, r1
    2f88:	08 95       	ret

00002f8a <__usmulhisi3>:
    2f8a:	0e 94 b6 17 	call	0x2f6c	; 0x2f6c <__umulhisi3>

00002f8e <__usmulhisi3_tail>:
    2f8e:	b7 ff       	sbrs	r27, 7
    2f90:	08 95       	ret
    2f92:	82 1b       	sub	r24, r18
    2f94:	93 0b       	sbc	r25, r19
    2f96:	08 95       	ret

00002f98 <__muluhisi3>:
    2f98:	0e 94 b6 17 	call	0x2f6c	; 0x2f6c <__umulhisi3>
    2f9c:	a5 9f       	mul	r26, r21
    2f9e:	90 0d       	add	r25, r0
    2fa0:	b4 9f       	mul	r27, r20
    2fa2:	90 0d       	add	r25, r0
    2fa4:	a4 9f       	mul	r26, r20
    2fa6:	80 0d       	add	r24, r0
    2fa8:	91 1d       	adc	r25, r1
    2faa:	11 24       	eor	r1, r1
    2fac:	08 95       	ret

00002fae <strcpy_P>:
    2fae:	fb 01       	movw	r30, r22
    2fb0:	dc 01       	movw	r26, r24
    2fb2:	05 90       	lpm	r0, Z+
    2fb4:	0d 92       	st	X+, r0
    2fb6:	00 20       	and	r0, r0
    2fb8:	e1 f7       	brne	.-8      	; 0x2fb2 <strcpy_P+0x4>
    2fba:	08 95       	ret

00002fbc <memcpy>:
    2fbc:	fb 01       	movw	r30, r22
    2fbe:	dc 01       	movw	r26, r24
    2fc0:	02 c0       	rjmp	.+4      	; 0x2fc6 <memcpy+0xa>
    2fc2:	01 90       	ld	r0, Z+
    2fc4:	0d 92       	st	X+, r0
    2fc6:	41 50       	subi	r20, 0x01	; 1
    2fc8:	50 40       	sbci	r21, 0x00	; 0
    2fca:	d8 f7       	brcc	.-10     	; 0x2fc2 <memcpy+0x6>
    2fcc:	08 95       	ret

00002fce <itoa>:
    2fce:	45 32       	cpi	r20, 0x25	; 37
    2fd0:	51 05       	cpc	r21, r1
    2fd2:	20 f4       	brcc	.+8      	; 0x2fdc <itoa+0xe>
    2fd4:	42 30       	cpi	r20, 0x02	; 2
    2fd6:	10 f0       	brcs	.+4      	; 0x2fdc <itoa+0xe>
    2fd8:	0c 94 f2 17 	jmp	0x2fe4	; 0x2fe4 <__itoa_ncheck>
    2fdc:	fb 01       	movw	r30, r22
    2fde:	10 82       	st	Z, r1
    2fe0:	cb 01       	movw	r24, r22
    2fe2:	08 95       	ret

00002fe4 <__itoa_ncheck>:
    2fe4:	bb 27       	eor	r27, r27
    2fe6:	4a 30       	cpi	r20, 0x0A	; 10
    2fe8:	31 f4       	brne	.+12     	; 0x2ff6 <__itoa_ncheck+0x12>
    2fea:	99 23       	and	r25, r25
    2fec:	22 f4       	brpl	.+8      	; 0x2ff6 <__itoa_ncheck+0x12>
    2fee:	bd e2       	ldi	r27, 0x2D	; 45
    2ff0:	90 95       	com	r25
    2ff2:	81 95       	neg	r24
    2ff4:	9f 4f       	sbci	r25, 0xFF	; 255
    2ff6:	0c 94 fe 17 	jmp	0x2ffc	; 0x2ffc <__utoa_common>

00002ffa <__utoa_ncheck>:
    2ffa:	bb 27       	eor	r27, r27

00002ffc <__utoa_common>:
    2ffc:	fb 01       	movw	r30, r22
    2ffe:	55 27       	eor	r21, r21
    3000:	aa 27       	eor	r26, r26
    3002:	88 0f       	add	r24, r24
    3004:	99 1f       	adc	r25, r25
    3006:	aa 1f       	adc	r26, r26
    3008:	a4 17       	cp	r26, r20
    300a:	10 f0       	brcs	.+4      	; 0x3010 <__utoa_common+0x14>
    300c:	a4 1b       	sub	r26, r20
    300e:	83 95       	inc	r24
    3010:	50 51       	subi	r21, 0x10	; 16
    3012:	b9 f7       	brne	.-18     	; 0x3002 <__utoa_common+0x6>
    3014:	a0 5d       	subi	r26, 0xD0	; 208
    3016:	aa 33       	cpi	r26, 0x3A	; 58
    3018:	08 f0       	brcs	.+2      	; 0x301c <__utoa_common+0x20>
    301a:	a9 5d       	subi	r26, 0xD9	; 217
    301c:	a1 93       	st	Z+, r26
    301e:	00 97       	sbiw	r24, 0x00	; 0
    3020:	79 f7       	brne	.-34     	; 0x3000 <__utoa_common+0x4>
    3022:	b1 11       	cpse	r27, r1
    3024:	b1 93       	st	Z+, r27
    3026:	11 92       	st	Z+, r1
    3028:	cb 01       	movw	r24, r22
    302a:	0c 94 30 1a 	jmp	0x3460	; 0x3460 <strrev>

0000302e <sprintf>:
    302e:	ae e0       	ldi	r26, 0x0E	; 14
    3030:	b0 e0       	ldi	r27, 0x00	; 0
    3032:	ed e1       	ldi	r30, 0x1D	; 29
    3034:	f8 e1       	ldi	r31, 0x18	; 24
    3036:	0c 94 18 1b 	jmp	0x3630	; 0x3630 <__prologue_saves__+0x1c>
    303a:	0d 89       	ldd	r16, Y+21	; 0x15
    303c:	1e 89       	ldd	r17, Y+22	; 0x16
    303e:	86 e0       	ldi	r24, 0x06	; 6
    3040:	8c 83       	std	Y+4, r24	; 0x04
    3042:	1a 83       	std	Y+2, r17	; 0x02
    3044:	09 83       	std	Y+1, r16	; 0x01
    3046:	8f ef       	ldi	r24, 0xFF	; 255
    3048:	9f e7       	ldi	r25, 0x7F	; 127
    304a:	9e 83       	std	Y+6, r25	; 0x06
    304c:	8d 83       	std	Y+5, r24	; 0x05
    304e:	ae 01       	movw	r20, r28
    3050:	47 5e       	subi	r20, 0xE7	; 231
    3052:	5f 4f       	sbci	r21, 0xFF	; 255
    3054:	6f 89       	ldd	r22, Y+23	; 0x17
    3056:	78 8d       	ldd	r23, Y+24	; 0x18
    3058:	ce 01       	movw	r24, r28
    305a:	01 96       	adiw	r24, 0x01	; 1
    305c:	0e 94 39 18 	call	0x3072	; 0x3072 <vfprintf>
    3060:	ef 81       	ldd	r30, Y+7	; 0x07
    3062:	f8 85       	ldd	r31, Y+8	; 0x08
    3064:	e0 0f       	add	r30, r16
    3066:	f1 1f       	adc	r31, r17
    3068:	10 82       	st	Z, r1
    306a:	2e 96       	adiw	r28, 0x0e	; 14
    306c:	e4 e0       	ldi	r30, 0x04	; 4
    306e:	0c 94 34 1b 	jmp	0x3668	; 0x3668 <__epilogue_restores__+0x1c>

00003072 <vfprintf>:
    3072:	ab e0       	ldi	r26, 0x0B	; 11
    3074:	b0 e0       	ldi	r27, 0x00	; 0
    3076:	ef e3       	ldi	r30, 0x3F	; 63
    3078:	f8 e1       	ldi	r31, 0x18	; 24
    307a:	0c 94 0a 1b 	jmp	0x3614	; 0x3614 <__prologue_saves__>
    307e:	6c 01       	movw	r12, r24
    3080:	7b 01       	movw	r14, r22
    3082:	8a 01       	movw	r16, r20
    3084:	fc 01       	movw	r30, r24
    3086:	17 82       	std	Z+7, r1	; 0x07
    3088:	16 82       	std	Z+6, r1	; 0x06
    308a:	83 81       	ldd	r24, Z+3	; 0x03
    308c:	81 ff       	sbrs	r24, 1
    308e:	cc c1       	rjmp	.+920    	; 0x3428 <vfprintf+0x3b6>
    3090:	ce 01       	movw	r24, r28
    3092:	01 96       	adiw	r24, 0x01	; 1
    3094:	3c 01       	movw	r6, r24
    3096:	f6 01       	movw	r30, r12
    3098:	93 81       	ldd	r25, Z+3	; 0x03
    309a:	f7 01       	movw	r30, r14
    309c:	93 fd       	sbrc	r25, 3
    309e:	85 91       	lpm	r24, Z+
    30a0:	93 ff       	sbrs	r25, 3
    30a2:	81 91       	ld	r24, Z+
    30a4:	7f 01       	movw	r14, r30
    30a6:	88 23       	and	r24, r24
    30a8:	09 f4       	brne	.+2      	; 0x30ac <vfprintf+0x3a>
    30aa:	ba c1       	rjmp	.+884    	; 0x3420 <vfprintf+0x3ae>
    30ac:	85 32       	cpi	r24, 0x25	; 37
    30ae:	39 f4       	brne	.+14     	; 0x30be <vfprintf+0x4c>
    30b0:	93 fd       	sbrc	r25, 3
    30b2:	85 91       	lpm	r24, Z+
    30b4:	93 ff       	sbrs	r25, 3
    30b6:	81 91       	ld	r24, Z+
    30b8:	7f 01       	movw	r14, r30
    30ba:	85 32       	cpi	r24, 0x25	; 37
    30bc:	29 f4       	brne	.+10     	; 0x30c8 <vfprintf+0x56>
    30be:	b6 01       	movw	r22, r12
    30c0:	90 e0       	ldi	r25, 0x00	; 0
    30c2:	0e 94 40 1a 	call	0x3480	; 0x3480 <fputc>
    30c6:	e7 cf       	rjmp	.-50     	; 0x3096 <vfprintf+0x24>
    30c8:	91 2c       	mov	r9, r1
    30ca:	21 2c       	mov	r2, r1
    30cc:	31 2c       	mov	r3, r1
    30ce:	ff e1       	ldi	r31, 0x1F	; 31
    30d0:	f3 15       	cp	r31, r3
    30d2:	d8 f0       	brcs	.+54     	; 0x310a <vfprintf+0x98>
    30d4:	8b 32       	cpi	r24, 0x2B	; 43
    30d6:	79 f0       	breq	.+30     	; 0x30f6 <vfprintf+0x84>
    30d8:	38 f4       	brcc	.+14     	; 0x30e8 <vfprintf+0x76>
    30da:	80 32       	cpi	r24, 0x20	; 32
    30dc:	79 f0       	breq	.+30     	; 0x30fc <vfprintf+0x8a>
    30de:	83 32       	cpi	r24, 0x23	; 35
    30e0:	a1 f4       	brne	.+40     	; 0x310a <vfprintf+0x98>
    30e2:	23 2d       	mov	r18, r3
    30e4:	20 61       	ori	r18, 0x10	; 16
    30e6:	1d c0       	rjmp	.+58     	; 0x3122 <vfprintf+0xb0>
    30e8:	8d 32       	cpi	r24, 0x2D	; 45
    30ea:	61 f0       	breq	.+24     	; 0x3104 <vfprintf+0x92>
    30ec:	80 33       	cpi	r24, 0x30	; 48
    30ee:	69 f4       	brne	.+26     	; 0x310a <vfprintf+0x98>
    30f0:	23 2d       	mov	r18, r3
    30f2:	21 60       	ori	r18, 0x01	; 1
    30f4:	16 c0       	rjmp	.+44     	; 0x3122 <vfprintf+0xb0>
    30f6:	83 2d       	mov	r24, r3
    30f8:	82 60       	ori	r24, 0x02	; 2
    30fa:	38 2e       	mov	r3, r24
    30fc:	e3 2d       	mov	r30, r3
    30fe:	e4 60       	ori	r30, 0x04	; 4
    3100:	3e 2e       	mov	r3, r30
    3102:	2a c0       	rjmp	.+84     	; 0x3158 <vfprintf+0xe6>
    3104:	f3 2d       	mov	r31, r3
    3106:	f8 60       	ori	r31, 0x08	; 8
    3108:	1d c0       	rjmp	.+58     	; 0x3144 <vfprintf+0xd2>
    310a:	37 fc       	sbrc	r3, 7
    310c:	2d c0       	rjmp	.+90     	; 0x3168 <vfprintf+0xf6>
    310e:	20 ed       	ldi	r18, 0xD0	; 208
    3110:	28 0f       	add	r18, r24
    3112:	2a 30       	cpi	r18, 0x0A	; 10
    3114:	40 f0       	brcs	.+16     	; 0x3126 <vfprintf+0xb4>
    3116:	8e 32       	cpi	r24, 0x2E	; 46
    3118:	b9 f4       	brne	.+46     	; 0x3148 <vfprintf+0xd6>
    311a:	36 fc       	sbrc	r3, 6
    311c:	81 c1       	rjmp	.+770    	; 0x3420 <vfprintf+0x3ae>
    311e:	23 2d       	mov	r18, r3
    3120:	20 64       	ori	r18, 0x40	; 64
    3122:	32 2e       	mov	r3, r18
    3124:	19 c0       	rjmp	.+50     	; 0x3158 <vfprintf+0xe6>
    3126:	36 fe       	sbrs	r3, 6
    3128:	06 c0       	rjmp	.+12     	; 0x3136 <vfprintf+0xc4>
    312a:	8a e0       	ldi	r24, 0x0A	; 10
    312c:	98 9e       	mul	r9, r24
    312e:	20 0d       	add	r18, r0
    3130:	11 24       	eor	r1, r1
    3132:	92 2e       	mov	r9, r18
    3134:	11 c0       	rjmp	.+34     	; 0x3158 <vfprintf+0xe6>
    3136:	ea e0       	ldi	r30, 0x0A	; 10
    3138:	2e 9e       	mul	r2, r30
    313a:	20 0d       	add	r18, r0
    313c:	11 24       	eor	r1, r1
    313e:	22 2e       	mov	r2, r18
    3140:	f3 2d       	mov	r31, r3
    3142:	f0 62       	ori	r31, 0x20	; 32
    3144:	3f 2e       	mov	r3, r31
    3146:	08 c0       	rjmp	.+16     	; 0x3158 <vfprintf+0xe6>
    3148:	8c 36       	cpi	r24, 0x6C	; 108
    314a:	21 f4       	brne	.+8      	; 0x3154 <vfprintf+0xe2>
    314c:	83 2d       	mov	r24, r3
    314e:	80 68       	ori	r24, 0x80	; 128
    3150:	38 2e       	mov	r3, r24
    3152:	02 c0       	rjmp	.+4      	; 0x3158 <vfprintf+0xe6>
    3154:	88 36       	cpi	r24, 0x68	; 104
    3156:	41 f4       	brne	.+16     	; 0x3168 <vfprintf+0xf6>
    3158:	f7 01       	movw	r30, r14
    315a:	93 fd       	sbrc	r25, 3
    315c:	85 91       	lpm	r24, Z+
    315e:	93 ff       	sbrs	r25, 3
    3160:	81 91       	ld	r24, Z+
    3162:	7f 01       	movw	r14, r30
    3164:	81 11       	cpse	r24, r1
    3166:	b3 cf       	rjmp	.-154    	; 0x30ce <vfprintf+0x5c>
    3168:	98 2f       	mov	r25, r24
    316a:	9f 7d       	andi	r25, 0xDF	; 223
    316c:	95 54       	subi	r25, 0x45	; 69
    316e:	93 30       	cpi	r25, 0x03	; 3
    3170:	28 f4       	brcc	.+10     	; 0x317c <vfprintf+0x10a>
    3172:	0c 5f       	subi	r16, 0xFC	; 252
    3174:	1f 4f       	sbci	r17, 0xFF	; 255
    3176:	9f e3       	ldi	r25, 0x3F	; 63
    3178:	99 83       	std	Y+1, r25	; 0x01
    317a:	0d c0       	rjmp	.+26     	; 0x3196 <vfprintf+0x124>
    317c:	83 36       	cpi	r24, 0x63	; 99
    317e:	31 f0       	breq	.+12     	; 0x318c <vfprintf+0x11a>
    3180:	83 37       	cpi	r24, 0x73	; 115
    3182:	71 f0       	breq	.+28     	; 0x31a0 <vfprintf+0x12e>
    3184:	83 35       	cpi	r24, 0x53	; 83
    3186:	09 f0       	breq	.+2      	; 0x318a <vfprintf+0x118>
    3188:	59 c0       	rjmp	.+178    	; 0x323c <vfprintf+0x1ca>
    318a:	21 c0       	rjmp	.+66     	; 0x31ce <vfprintf+0x15c>
    318c:	f8 01       	movw	r30, r16
    318e:	80 81       	ld	r24, Z
    3190:	89 83       	std	Y+1, r24	; 0x01
    3192:	0e 5f       	subi	r16, 0xFE	; 254
    3194:	1f 4f       	sbci	r17, 0xFF	; 255
    3196:	88 24       	eor	r8, r8
    3198:	83 94       	inc	r8
    319a:	91 2c       	mov	r9, r1
    319c:	53 01       	movw	r10, r6
    319e:	13 c0       	rjmp	.+38     	; 0x31c6 <vfprintf+0x154>
    31a0:	28 01       	movw	r4, r16
    31a2:	f2 e0       	ldi	r31, 0x02	; 2
    31a4:	4f 0e       	add	r4, r31
    31a6:	51 1c       	adc	r5, r1
    31a8:	f8 01       	movw	r30, r16
    31aa:	a0 80       	ld	r10, Z
    31ac:	b1 80       	ldd	r11, Z+1	; 0x01
    31ae:	36 fe       	sbrs	r3, 6
    31b0:	03 c0       	rjmp	.+6      	; 0x31b8 <vfprintf+0x146>
    31b2:	69 2d       	mov	r22, r9
    31b4:	70 e0       	ldi	r23, 0x00	; 0
    31b6:	02 c0       	rjmp	.+4      	; 0x31bc <vfprintf+0x14a>
    31b8:	6f ef       	ldi	r22, 0xFF	; 255
    31ba:	7f ef       	ldi	r23, 0xFF	; 255
    31bc:	c5 01       	movw	r24, r10
    31be:	0e 94 25 1a 	call	0x344a	; 0x344a <strnlen>
    31c2:	4c 01       	movw	r8, r24
    31c4:	82 01       	movw	r16, r4
    31c6:	f3 2d       	mov	r31, r3
    31c8:	ff 77       	andi	r31, 0x7F	; 127
    31ca:	3f 2e       	mov	r3, r31
    31cc:	16 c0       	rjmp	.+44     	; 0x31fa <vfprintf+0x188>
    31ce:	28 01       	movw	r4, r16
    31d0:	22 e0       	ldi	r18, 0x02	; 2
    31d2:	42 0e       	add	r4, r18
    31d4:	51 1c       	adc	r5, r1
    31d6:	f8 01       	movw	r30, r16
    31d8:	a0 80       	ld	r10, Z
    31da:	b1 80       	ldd	r11, Z+1	; 0x01
    31dc:	36 fe       	sbrs	r3, 6
    31de:	03 c0       	rjmp	.+6      	; 0x31e6 <vfprintf+0x174>
    31e0:	69 2d       	mov	r22, r9
    31e2:	70 e0       	ldi	r23, 0x00	; 0
    31e4:	02 c0       	rjmp	.+4      	; 0x31ea <vfprintf+0x178>
    31e6:	6f ef       	ldi	r22, 0xFF	; 255
    31e8:	7f ef       	ldi	r23, 0xFF	; 255
    31ea:	c5 01       	movw	r24, r10
    31ec:	0e 94 1a 1a 	call	0x3434	; 0x3434 <strnlen_P>
    31f0:	4c 01       	movw	r8, r24
    31f2:	f3 2d       	mov	r31, r3
    31f4:	f0 68       	ori	r31, 0x80	; 128
    31f6:	3f 2e       	mov	r3, r31
    31f8:	82 01       	movw	r16, r4
    31fa:	33 fc       	sbrc	r3, 3
    31fc:	1b c0       	rjmp	.+54     	; 0x3234 <vfprintf+0x1c2>
    31fe:	82 2d       	mov	r24, r2
    3200:	90 e0       	ldi	r25, 0x00	; 0
    3202:	88 16       	cp	r8, r24
    3204:	99 06       	cpc	r9, r25
    3206:	b0 f4       	brcc	.+44     	; 0x3234 <vfprintf+0x1c2>
    3208:	b6 01       	movw	r22, r12
    320a:	80 e2       	ldi	r24, 0x20	; 32
    320c:	90 e0       	ldi	r25, 0x00	; 0
    320e:	0e 94 40 1a 	call	0x3480	; 0x3480 <fputc>
    3212:	2a 94       	dec	r2
    3214:	f4 cf       	rjmp	.-24     	; 0x31fe <vfprintf+0x18c>
    3216:	f5 01       	movw	r30, r10
    3218:	37 fc       	sbrc	r3, 7
    321a:	85 91       	lpm	r24, Z+
    321c:	37 fe       	sbrs	r3, 7
    321e:	81 91       	ld	r24, Z+
    3220:	5f 01       	movw	r10, r30
    3222:	b6 01       	movw	r22, r12
    3224:	90 e0       	ldi	r25, 0x00	; 0
    3226:	0e 94 40 1a 	call	0x3480	; 0x3480 <fputc>
    322a:	21 10       	cpse	r2, r1
    322c:	2a 94       	dec	r2
    322e:	21 e0       	ldi	r18, 0x01	; 1
    3230:	82 1a       	sub	r8, r18
    3232:	91 08       	sbc	r9, r1
    3234:	81 14       	cp	r8, r1
    3236:	91 04       	cpc	r9, r1
    3238:	71 f7       	brne	.-36     	; 0x3216 <vfprintf+0x1a4>
    323a:	e8 c0       	rjmp	.+464    	; 0x340c <vfprintf+0x39a>
    323c:	84 36       	cpi	r24, 0x64	; 100
    323e:	11 f0       	breq	.+4      	; 0x3244 <vfprintf+0x1d2>
    3240:	89 36       	cpi	r24, 0x69	; 105
    3242:	41 f5       	brne	.+80     	; 0x3294 <vfprintf+0x222>
    3244:	f8 01       	movw	r30, r16
    3246:	37 fe       	sbrs	r3, 7
    3248:	07 c0       	rjmp	.+14     	; 0x3258 <vfprintf+0x1e6>
    324a:	60 81       	ld	r22, Z
    324c:	71 81       	ldd	r23, Z+1	; 0x01
    324e:	82 81       	ldd	r24, Z+2	; 0x02
    3250:	93 81       	ldd	r25, Z+3	; 0x03
    3252:	0c 5f       	subi	r16, 0xFC	; 252
    3254:	1f 4f       	sbci	r17, 0xFF	; 255
    3256:	08 c0       	rjmp	.+16     	; 0x3268 <vfprintf+0x1f6>
    3258:	60 81       	ld	r22, Z
    325a:	71 81       	ldd	r23, Z+1	; 0x01
    325c:	07 2e       	mov	r0, r23
    325e:	00 0c       	add	r0, r0
    3260:	88 0b       	sbc	r24, r24
    3262:	99 0b       	sbc	r25, r25
    3264:	0e 5f       	subi	r16, 0xFE	; 254
    3266:	1f 4f       	sbci	r17, 0xFF	; 255
    3268:	f3 2d       	mov	r31, r3
    326a:	ff 76       	andi	r31, 0x6F	; 111
    326c:	3f 2e       	mov	r3, r31
    326e:	97 ff       	sbrs	r25, 7
    3270:	09 c0       	rjmp	.+18     	; 0x3284 <vfprintf+0x212>
    3272:	90 95       	com	r25
    3274:	80 95       	com	r24
    3276:	70 95       	com	r23
    3278:	61 95       	neg	r22
    327a:	7f 4f       	sbci	r23, 0xFF	; 255
    327c:	8f 4f       	sbci	r24, 0xFF	; 255
    327e:	9f 4f       	sbci	r25, 0xFF	; 255
    3280:	f0 68       	ori	r31, 0x80	; 128
    3282:	3f 2e       	mov	r3, r31
    3284:	2a e0       	ldi	r18, 0x0A	; 10
    3286:	30 e0       	ldi	r19, 0x00	; 0
    3288:	a3 01       	movw	r20, r6
    328a:	0e 94 7c 1a 	call	0x34f8	; 0x34f8 <__ultoa_invert>
    328e:	88 2e       	mov	r8, r24
    3290:	86 18       	sub	r8, r6
    3292:	45 c0       	rjmp	.+138    	; 0x331e <vfprintf+0x2ac>
    3294:	85 37       	cpi	r24, 0x75	; 117
    3296:	31 f4       	brne	.+12     	; 0x32a4 <vfprintf+0x232>
    3298:	23 2d       	mov	r18, r3
    329a:	2f 7e       	andi	r18, 0xEF	; 239
    329c:	b2 2e       	mov	r11, r18
    329e:	2a e0       	ldi	r18, 0x0A	; 10
    32a0:	30 e0       	ldi	r19, 0x00	; 0
    32a2:	25 c0       	rjmp	.+74     	; 0x32ee <vfprintf+0x27c>
    32a4:	93 2d       	mov	r25, r3
    32a6:	99 7f       	andi	r25, 0xF9	; 249
    32a8:	b9 2e       	mov	r11, r25
    32aa:	8f 36       	cpi	r24, 0x6F	; 111
    32ac:	c1 f0       	breq	.+48     	; 0x32de <vfprintf+0x26c>
    32ae:	18 f4       	brcc	.+6      	; 0x32b6 <vfprintf+0x244>
    32b0:	88 35       	cpi	r24, 0x58	; 88
    32b2:	79 f0       	breq	.+30     	; 0x32d2 <vfprintf+0x260>
    32b4:	b5 c0       	rjmp	.+362    	; 0x3420 <vfprintf+0x3ae>
    32b6:	80 37       	cpi	r24, 0x70	; 112
    32b8:	19 f0       	breq	.+6      	; 0x32c0 <vfprintf+0x24e>
    32ba:	88 37       	cpi	r24, 0x78	; 120
    32bc:	21 f0       	breq	.+8      	; 0x32c6 <vfprintf+0x254>
    32be:	b0 c0       	rjmp	.+352    	; 0x3420 <vfprintf+0x3ae>
    32c0:	e9 2f       	mov	r30, r25
    32c2:	e0 61       	ori	r30, 0x10	; 16
    32c4:	be 2e       	mov	r11, r30
    32c6:	b4 fe       	sbrs	r11, 4
    32c8:	0d c0       	rjmp	.+26     	; 0x32e4 <vfprintf+0x272>
    32ca:	fb 2d       	mov	r31, r11
    32cc:	f4 60       	ori	r31, 0x04	; 4
    32ce:	bf 2e       	mov	r11, r31
    32d0:	09 c0       	rjmp	.+18     	; 0x32e4 <vfprintf+0x272>
    32d2:	34 fe       	sbrs	r3, 4
    32d4:	0a c0       	rjmp	.+20     	; 0x32ea <vfprintf+0x278>
    32d6:	29 2f       	mov	r18, r25
    32d8:	26 60       	ori	r18, 0x06	; 6
    32da:	b2 2e       	mov	r11, r18
    32dc:	06 c0       	rjmp	.+12     	; 0x32ea <vfprintf+0x278>
    32de:	28 e0       	ldi	r18, 0x08	; 8
    32e0:	30 e0       	ldi	r19, 0x00	; 0
    32e2:	05 c0       	rjmp	.+10     	; 0x32ee <vfprintf+0x27c>
    32e4:	20 e1       	ldi	r18, 0x10	; 16
    32e6:	30 e0       	ldi	r19, 0x00	; 0
    32e8:	02 c0       	rjmp	.+4      	; 0x32ee <vfprintf+0x27c>
    32ea:	20 e1       	ldi	r18, 0x10	; 16
    32ec:	32 e0       	ldi	r19, 0x02	; 2
    32ee:	f8 01       	movw	r30, r16
    32f0:	b7 fe       	sbrs	r11, 7
    32f2:	07 c0       	rjmp	.+14     	; 0x3302 <vfprintf+0x290>
    32f4:	60 81       	ld	r22, Z
    32f6:	71 81       	ldd	r23, Z+1	; 0x01
    32f8:	82 81       	ldd	r24, Z+2	; 0x02
    32fa:	93 81       	ldd	r25, Z+3	; 0x03
    32fc:	0c 5f       	subi	r16, 0xFC	; 252
    32fe:	1f 4f       	sbci	r17, 0xFF	; 255
    3300:	06 c0       	rjmp	.+12     	; 0x330e <vfprintf+0x29c>
    3302:	60 81       	ld	r22, Z
    3304:	71 81       	ldd	r23, Z+1	; 0x01
    3306:	80 e0       	ldi	r24, 0x00	; 0
    3308:	90 e0       	ldi	r25, 0x00	; 0
    330a:	0e 5f       	subi	r16, 0xFE	; 254
    330c:	1f 4f       	sbci	r17, 0xFF	; 255
    330e:	a3 01       	movw	r20, r6
    3310:	0e 94 7c 1a 	call	0x34f8	; 0x34f8 <__ultoa_invert>
    3314:	88 2e       	mov	r8, r24
    3316:	86 18       	sub	r8, r6
    3318:	fb 2d       	mov	r31, r11
    331a:	ff 77       	andi	r31, 0x7F	; 127
    331c:	3f 2e       	mov	r3, r31
    331e:	36 fe       	sbrs	r3, 6
    3320:	0d c0       	rjmp	.+26     	; 0x333c <vfprintf+0x2ca>
    3322:	23 2d       	mov	r18, r3
    3324:	2e 7f       	andi	r18, 0xFE	; 254
    3326:	a2 2e       	mov	r10, r18
    3328:	89 14       	cp	r8, r9
    332a:	58 f4       	brcc	.+22     	; 0x3342 <vfprintf+0x2d0>
    332c:	34 fe       	sbrs	r3, 4
    332e:	0b c0       	rjmp	.+22     	; 0x3346 <vfprintf+0x2d4>
    3330:	32 fc       	sbrc	r3, 2
    3332:	09 c0       	rjmp	.+18     	; 0x3346 <vfprintf+0x2d4>
    3334:	83 2d       	mov	r24, r3
    3336:	8e 7e       	andi	r24, 0xEE	; 238
    3338:	a8 2e       	mov	r10, r24
    333a:	05 c0       	rjmp	.+10     	; 0x3346 <vfprintf+0x2d4>
    333c:	b8 2c       	mov	r11, r8
    333e:	a3 2c       	mov	r10, r3
    3340:	03 c0       	rjmp	.+6      	; 0x3348 <vfprintf+0x2d6>
    3342:	b8 2c       	mov	r11, r8
    3344:	01 c0       	rjmp	.+2      	; 0x3348 <vfprintf+0x2d6>
    3346:	b9 2c       	mov	r11, r9
    3348:	a4 fe       	sbrs	r10, 4
    334a:	0f c0       	rjmp	.+30     	; 0x336a <vfprintf+0x2f8>
    334c:	fe 01       	movw	r30, r28
    334e:	e8 0d       	add	r30, r8
    3350:	f1 1d       	adc	r31, r1
    3352:	80 81       	ld	r24, Z
    3354:	80 33       	cpi	r24, 0x30	; 48
    3356:	21 f4       	brne	.+8      	; 0x3360 <vfprintf+0x2ee>
    3358:	9a 2d       	mov	r25, r10
    335a:	99 7e       	andi	r25, 0xE9	; 233
    335c:	a9 2e       	mov	r10, r25
    335e:	09 c0       	rjmp	.+18     	; 0x3372 <vfprintf+0x300>
    3360:	a2 fe       	sbrs	r10, 2
    3362:	06 c0       	rjmp	.+12     	; 0x3370 <vfprintf+0x2fe>
    3364:	b3 94       	inc	r11
    3366:	b3 94       	inc	r11
    3368:	04 c0       	rjmp	.+8      	; 0x3372 <vfprintf+0x300>
    336a:	8a 2d       	mov	r24, r10
    336c:	86 78       	andi	r24, 0x86	; 134
    336e:	09 f0       	breq	.+2      	; 0x3372 <vfprintf+0x300>
    3370:	b3 94       	inc	r11
    3372:	a3 fc       	sbrc	r10, 3
    3374:	11 c0       	rjmp	.+34     	; 0x3398 <vfprintf+0x326>
    3376:	a0 fe       	sbrs	r10, 0
    3378:	06 c0       	rjmp	.+12     	; 0x3386 <vfprintf+0x314>
    337a:	b2 14       	cp	r11, r2
    337c:	88 f4       	brcc	.+34     	; 0x33a0 <vfprintf+0x32e>
    337e:	28 0c       	add	r2, r8
    3380:	92 2c       	mov	r9, r2
    3382:	9b 18       	sub	r9, r11
    3384:	0e c0       	rjmp	.+28     	; 0x33a2 <vfprintf+0x330>
    3386:	b2 14       	cp	r11, r2
    3388:	60 f4       	brcc	.+24     	; 0x33a2 <vfprintf+0x330>
    338a:	b6 01       	movw	r22, r12
    338c:	80 e2       	ldi	r24, 0x20	; 32
    338e:	90 e0       	ldi	r25, 0x00	; 0
    3390:	0e 94 40 1a 	call	0x3480	; 0x3480 <fputc>
    3394:	b3 94       	inc	r11
    3396:	f7 cf       	rjmp	.-18     	; 0x3386 <vfprintf+0x314>
    3398:	b2 14       	cp	r11, r2
    339a:	18 f4       	brcc	.+6      	; 0x33a2 <vfprintf+0x330>
    339c:	2b 18       	sub	r2, r11
    339e:	02 c0       	rjmp	.+4      	; 0x33a4 <vfprintf+0x332>
    33a0:	98 2c       	mov	r9, r8
    33a2:	21 2c       	mov	r2, r1
    33a4:	a4 fe       	sbrs	r10, 4
    33a6:	10 c0       	rjmp	.+32     	; 0x33c8 <vfprintf+0x356>
    33a8:	b6 01       	movw	r22, r12
    33aa:	80 e3       	ldi	r24, 0x30	; 48
    33ac:	90 e0       	ldi	r25, 0x00	; 0
    33ae:	0e 94 40 1a 	call	0x3480	; 0x3480 <fputc>
    33b2:	a2 fe       	sbrs	r10, 2
    33b4:	17 c0       	rjmp	.+46     	; 0x33e4 <vfprintf+0x372>
    33b6:	a1 fc       	sbrc	r10, 1
    33b8:	03 c0       	rjmp	.+6      	; 0x33c0 <vfprintf+0x34e>
    33ba:	88 e7       	ldi	r24, 0x78	; 120
    33bc:	90 e0       	ldi	r25, 0x00	; 0
    33be:	02 c0       	rjmp	.+4      	; 0x33c4 <vfprintf+0x352>
    33c0:	88 e5       	ldi	r24, 0x58	; 88
    33c2:	90 e0       	ldi	r25, 0x00	; 0
    33c4:	b6 01       	movw	r22, r12
    33c6:	0c c0       	rjmp	.+24     	; 0x33e0 <vfprintf+0x36e>
    33c8:	8a 2d       	mov	r24, r10
    33ca:	86 78       	andi	r24, 0x86	; 134
    33cc:	59 f0       	breq	.+22     	; 0x33e4 <vfprintf+0x372>
    33ce:	a1 fe       	sbrs	r10, 1
    33d0:	02 c0       	rjmp	.+4      	; 0x33d6 <vfprintf+0x364>
    33d2:	8b e2       	ldi	r24, 0x2B	; 43
    33d4:	01 c0       	rjmp	.+2      	; 0x33d8 <vfprintf+0x366>
    33d6:	80 e2       	ldi	r24, 0x20	; 32
    33d8:	a7 fc       	sbrc	r10, 7
    33da:	8d e2       	ldi	r24, 0x2D	; 45
    33dc:	b6 01       	movw	r22, r12
    33de:	90 e0       	ldi	r25, 0x00	; 0
    33e0:	0e 94 40 1a 	call	0x3480	; 0x3480 <fputc>
    33e4:	89 14       	cp	r8, r9
    33e6:	38 f4       	brcc	.+14     	; 0x33f6 <vfprintf+0x384>
    33e8:	b6 01       	movw	r22, r12
    33ea:	80 e3       	ldi	r24, 0x30	; 48
    33ec:	90 e0       	ldi	r25, 0x00	; 0
    33ee:	0e 94 40 1a 	call	0x3480	; 0x3480 <fputc>
    33f2:	9a 94       	dec	r9
    33f4:	f7 cf       	rjmp	.-18     	; 0x33e4 <vfprintf+0x372>
    33f6:	8a 94       	dec	r8
    33f8:	f3 01       	movw	r30, r6
    33fa:	e8 0d       	add	r30, r8
    33fc:	f1 1d       	adc	r31, r1
    33fe:	80 81       	ld	r24, Z
    3400:	b6 01       	movw	r22, r12
    3402:	90 e0       	ldi	r25, 0x00	; 0
    3404:	0e 94 40 1a 	call	0x3480	; 0x3480 <fputc>
    3408:	81 10       	cpse	r8, r1
    340a:	f5 cf       	rjmp	.-22     	; 0x33f6 <vfprintf+0x384>
    340c:	22 20       	and	r2, r2
    340e:	09 f4       	brne	.+2      	; 0x3412 <vfprintf+0x3a0>
    3410:	42 ce       	rjmp	.-892    	; 0x3096 <vfprintf+0x24>
    3412:	b6 01       	movw	r22, r12
    3414:	80 e2       	ldi	r24, 0x20	; 32
    3416:	90 e0       	ldi	r25, 0x00	; 0
    3418:	0e 94 40 1a 	call	0x3480	; 0x3480 <fputc>
    341c:	2a 94       	dec	r2
    341e:	f6 cf       	rjmp	.-20     	; 0x340c <vfprintf+0x39a>
    3420:	f6 01       	movw	r30, r12
    3422:	86 81       	ldd	r24, Z+6	; 0x06
    3424:	97 81       	ldd	r25, Z+7	; 0x07
    3426:	02 c0       	rjmp	.+4      	; 0x342c <vfprintf+0x3ba>
    3428:	8f ef       	ldi	r24, 0xFF	; 255
    342a:	9f ef       	ldi	r25, 0xFF	; 255
    342c:	2b 96       	adiw	r28, 0x0b	; 11
    342e:	e2 e1       	ldi	r30, 0x12	; 18
    3430:	0c 94 26 1b 	jmp	0x364c	; 0x364c <__epilogue_restores__>

00003434 <strnlen_P>:
    3434:	fc 01       	movw	r30, r24
    3436:	05 90       	lpm	r0, Z+
    3438:	61 50       	subi	r22, 0x01	; 1
    343a:	70 40       	sbci	r23, 0x00	; 0
    343c:	01 10       	cpse	r0, r1
    343e:	d8 f7       	brcc	.-10     	; 0x3436 <strnlen_P+0x2>
    3440:	80 95       	com	r24
    3442:	90 95       	com	r25
    3444:	8e 0f       	add	r24, r30
    3446:	9f 1f       	adc	r25, r31
    3448:	08 95       	ret

0000344a <strnlen>:
    344a:	fc 01       	movw	r30, r24
    344c:	61 50       	subi	r22, 0x01	; 1
    344e:	70 40       	sbci	r23, 0x00	; 0
    3450:	01 90       	ld	r0, Z+
    3452:	01 10       	cpse	r0, r1
    3454:	d8 f7       	brcc	.-10     	; 0x344c <strnlen+0x2>
    3456:	80 95       	com	r24
    3458:	90 95       	com	r25
    345a:	8e 0f       	add	r24, r30
    345c:	9f 1f       	adc	r25, r31
    345e:	08 95       	ret

00003460 <strrev>:
    3460:	dc 01       	movw	r26, r24
    3462:	fc 01       	movw	r30, r24
    3464:	67 2f       	mov	r22, r23
    3466:	71 91       	ld	r23, Z+
    3468:	77 23       	and	r23, r23
    346a:	e1 f7       	brne	.-8      	; 0x3464 <strrev+0x4>
    346c:	32 97       	sbiw	r30, 0x02	; 2
    346e:	04 c0       	rjmp	.+8      	; 0x3478 <strrev+0x18>
    3470:	7c 91       	ld	r23, X
    3472:	6d 93       	st	X+, r22
    3474:	70 83       	st	Z, r23
    3476:	62 91       	ld	r22, -Z
    3478:	ae 17       	cp	r26, r30
    347a:	bf 07       	cpc	r27, r31
    347c:	c8 f3       	brcs	.-14     	; 0x3470 <strrev+0x10>
    347e:	08 95       	ret

00003480 <fputc>:
    3480:	0f 93       	push	r16
    3482:	1f 93       	push	r17
    3484:	cf 93       	push	r28
    3486:	df 93       	push	r29
    3488:	fb 01       	movw	r30, r22
    348a:	23 81       	ldd	r18, Z+3	; 0x03
    348c:	21 fd       	sbrc	r18, 1
    348e:	03 c0       	rjmp	.+6      	; 0x3496 <fputc+0x16>
    3490:	8f ef       	ldi	r24, 0xFF	; 255
    3492:	9f ef       	ldi	r25, 0xFF	; 255
    3494:	2c c0       	rjmp	.+88     	; 0x34ee <fputc+0x6e>
    3496:	22 ff       	sbrs	r18, 2
    3498:	16 c0       	rjmp	.+44     	; 0x34c6 <fputc+0x46>
    349a:	46 81       	ldd	r20, Z+6	; 0x06
    349c:	57 81       	ldd	r21, Z+7	; 0x07
    349e:	24 81       	ldd	r18, Z+4	; 0x04
    34a0:	35 81       	ldd	r19, Z+5	; 0x05
    34a2:	42 17       	cp	r20, r18
    34a4:	53 07       	cpc	r21, r19
    34a6:	44 f4       	brge	.+16     	; 0x34b8 <fputc+0x38>
    34a8:	a0 81       	ld	r26, Z
    34aa:	b1 81       	ldd	r27, Z+1	; 0x01
    34ac:	9d 01       	movw	r18, r26
    34ae:	2f 5f       	subi	r18, 0xFF	; 255
    34b0:	3f 4f       	sbci	r19, 0xFF	; 255
    34b2:	31 83       	std	Z+1, r19	; 0x01
    34b4:	20 83       	st	Z, r18
    34b6:	8c 93       	st	X, r24
    34b8:	26 81       	ldd	r18, Z+6	; 0x06
    34ba:	37 81       	ldd	r19, Z+7	; 0x07
    34bc:	2f 5f       	subi	r18, 0xFF	; 255
    34be:	3f 4f       	sbci	r19, 0xFF	; 255
    34c0:	37 83       	std	Z+7, r19	; 0x07
    34c2:	26 83       	std	Z+6, r18	; 0x06
    34c4:	14 c0       	rjmp	.+40     	; 0x34ee <fputc+0x6e>
    34c6:	8b 01       	movw	r16, r22
    34c8:	ec 01       	movw	r28, r24
    34ca:	fb 01       	movw	r30, r22
    34cc:	00 84       	ldd	r0, Z+8	; 0x08
    34ce:	f1 85       	ldd	r31, Z+9	; 0x09
    34d0:	e0 2d       	mov	r30, r0
    34d2:	09 95       	icall
    34d4:	89 2b       	or	r24, r25
    34d6:	e1 f6       	brne	.-72     	; 0x3490 <fputc+0x10>
    34d8:	d8 01       	movw	r26, r16
    34da:	16 96       	adiw	r26, 0x06	; 6
    34dc:	8d 91       	ld	r24, X+
    34de:	9c 91       	ld	r25, X
    34e0:	17 97       	sbiw	r26, 0x07	; 7
    34e2:	01 96       	adiw	r24, 0x01	; 1
    34e4:	17 96       	adiw	r26, 0x07	; 7
    34e6:	9c 93       	st	X, r25
    34e8:	8e 93       	st	-X, r24
    34ea:	16 97       	sbiw	r26, 0x06	; 6
    34ec:	ce 01       	movw	r24, r28
    34ee:	df 91       	pop	r29
    34f0:	cf 91       	pop	r28
    34f2:	1f 91       	pop	r17
    34f4:	0f 91       	pop	r16
    34f6:	08 95       	ret

000034f8 <__ultoa_invert>:
    34f8:	fa 01       	movw	r30, r20
    34fa:	aa 27       	eor	r26, r26
    34fc:	28 30       	cpi	r18, 0x08	; 8
    34fe:	51 f1       	breq	.+84     	; 0x3554 <__ultoa_invert+0x5c>
    3500:	20 31       	cpi	r18, 0x10	; 16
    3502:	81 f1       	breq	.+96     	; 0x3564 <__ultoa_invert+0x6c>
    3504:	e8 94       	clt
    3506:	6f 93       	push	r22
    3508:	6e 7f       	andi	r22, 0xFE	; 254
    350a:	6e 5f       	subi	r22, 0xFE	; 254
    350c:	7f 4f       	sbci	r23, 0xFF	; 255
    350e:	8f 4f       	sbci	r24, 0xFF	; 255
    3510:	9f 4f       	sbci	r25, 0xFF	; 255
    3512:	af 4f       	sbci	r26, 0xFF	; 255
    3514:	b1 e0       	ldi	r27, 0x01	; 1
    3516:	3e d0       	rcall	.+124    	; 0x3594 <__ultoa_invert+0x9c>
    3518:	b4 e0       	ldi	r27, 0x04	; 4
    351a:	3c d0       	rcall	.+120    	; 0x3594 <__ultoa_invert+0x9c>
    351c:	67 0f       	add	r22, r23
    351e:	78 1f       	adc	r23, r24
    3520:	89 1f       	adc	r24, r25
    3522:	9a 1f       	adc	r25, r26
    3524:	a1 1d       	adc	r26, r1
    3526:	68 0f       	add	r22, r24
    3528:	79 1f       	adc	r23, r25
    352a:	8a 1f       	adc	r24, r26
    352c:	91 1d       	adc	r25, r1
    352e:	a1 1d       	adc	r26, r1
    3530:	6a 0f       	add	r22, r26
    3532:	71 1d       	adc	r23, r1
    3534:	81 1d       	adc	r24, r1
    3536:	91 1d       	adc	r25, r1
    3538:	a1 1d       	adc	r26, r1
    353a:	20 d0       	rcall	.+64     	; 0x357c <__ultoa_invert+0x84>
    353c:	09 f4       	brne	.+2      	; 0x3540 <__ultoa_invert+0x48>
    353e:	68 94       	set
    3540:	3f 91       	pop	r19
    3542:	2a e0       	ldi	r18, 0x0A	; 10
    3544:	26 9f       	mul	r18, r22
    3546:	11 24       	eor	r1, r1
    3548:	30 19       	sub	r19, r0
    354a:	30 5d       	subi	r19, 0xD0	; 208
    354c:	31 93       	st	Z+, r19
    354e:	de f6       	brtc	.-74     	; 0x3506 <__ultoa_invert+0xe>
    3550:	cf 01       	movw	r24, r30
    3552:	08 95       	ret
    3554:	46 2f       	mov	r20, r22
    3556:	47 70       	andi	r20, 0x07	; 7
    3558:	40 5d       	subi	r20, 0xD0	; 208
    355a:	41 93       	st	Z+, r20
    355c:	b3 e0       	ldi	r27, 0x03	; 3
    355e:	0f d0       	rcall	.+30     	; 0x357e <__ultoa_invert+0x86>
    3560:	c9 f7       	brne	.-14     	; 0x3554 <__ultoa_invert+0x5c>
    3562:	f6 cf       	rjmp	.-20     	; 0x3550 <__ultoa_invert+0x58>
    3564:	46 2f       	mov	r20, r22
    3566:	4f 70       	andi	r20, 0x0F	; 15
    3568:	40 5d       	subi	r20, 0xD0	; 208
    356a:	4a 33       	cpi	r20, 0x3A	; 58
    356c:	18 f0       	brcs	.+6      	; 0x3574 <__ultoa_invert+0x7c>
    356e:	49 5d       	subi	r20, 0xD9	; 217
    3570:	31 fd       	sbrc	r19, 1
    3572:	40 52       	subi	r20, 0x20	; 32
    3574:	41 93       	st	Z+, r20
    3576:	02 d0       	rcall	.+4      	; 0x357c <__ultoa_invert+0x84>
    3578:	a9 f7       	brne	.-22     	; 0x3564 <__ultoa_invert+0x6c>
    357a:	ea cf       	rjmp	.-44     	; 0x3550 <__ultoa_invert+0x58>
    357c:	b4 e0       	ldi	r27, 0x04	; 4
    357e:	a6 95       	lsr	r26
    3580:	97 95       	ror	r25
    3582:	87 95       	ror	r24
    3584:	77 95       	ror	r23
    3586:	67 95       	ror	r22
    3588:	ba 95       	dec	r27
    358a:	c9 f7       	brne	.-14     	; 0x357e <__ultoa_invert+0x86>
    358c:	00 97       	sbiw	r24, 0x00	; 0
    358e:	61 05       	cpc	r22, r1
    3590:	71 05       	cpc	r23, r1
    3592:	08 95       	ret
    3594:	9b 01       	movw	r18, r22
    3596:	ac 01       	movw	r20, r24
    3598:	0a 2e       	mov	r0, r26
    359a:	06 94       	lsr	r0
    359c:	57 95       	ror	r21
    359e:	47 95       	ror	r20
    35a0:	37 95       	ror	r19
    35a2:	27 95       	ror	r18
    35a4:	ba 95       	dec	r27
    35a6:	c9 f7       	brne	.-14     	; 0x359a <__ultoa_invert+0xa2>
    35a8:	62 0f       	add	r22, r18
    35aa:	73 1f       	adc	r23, r19
    35ac:	84 1f       	adc	r24, r20
    35ae:	95 1f       	adc	r25, r21
    35b0:	a0 1d       	adc	r26, r0
    35b2:	08 95       	ret

000035b4 <eeprom_read_block>:
    35b4:	dc 01       	movw	r26, r24
    35b6:	cb 01       	movw	r24, r22

000035b8 <eeprom_read_blraw>:
    35b8:	fc 01       	movw	r30, r24
    35ba:	f9 99       	sbic	0x1f, 1	; 31
    35bc:	fe cf       	rjmp	.-4      	; 0x35ba <eeprom_read_blraw+0x2>
    35be:	06 c0       	rjmp	.+12     	; 0x35cc <eeprom_read_blraw+0x14>
    35c0:	f2 bd       	out	0x22, r31	; 34
    35c2:	e1 bd       	out	0x21, r30	; 33
    35c4:	f8 9a       	sbi	0x1f, 0	; 31
    35c6:	31 96       	adiw	r30, 0x01	; 1
    35c8:	00 b4       	in	r0, 0x20	; 32
    35ca:	0d 92       	st	X+, r0
    35cc:	41 50       	subi	r20, 0x01	; 1
    35ce:	50 40       	sbci	r21, 0x00	; 0
    35d0:	b8 f7       	brcc	.-18     	; 0x35c0 <eeprom_read_blraw+0x8>
    35d2:	08 95       	ret

000035d4 <eeprom_read_byte>:
    35d4:	f9 99       	sbic	0x1f, 1	; 31
    35d6:	fe cf       	rjmp	.-4      	; 0x35d4 <eeprom_read_byte>
    35d8:	92 bd       	out	0x22, r25	; 34
    35da:	81 bd       	out	0x21, r24	; 33
    35dc:	f8 9a       	sbi	0x1f, 0	; 31
    35de:	99 27       	eor	r25, r25
    35e0:	80 b5       	in	r24, 0x20	; 32
    35e2:	08 95       	ret

000035e4 <eeprom_write_block>:
    35e4:	dc 01       	movw	r26, r24
    35e6:	cb 01       	movw	r24, r22
    35e8:	03 c0       	rjmp	.+6      	; 0x35f0 <eeprom_write_block+0xc>
    35ea:	2d 91       	ld	r18, X+
    35ec:	0e 94 fd 1a 	call	0x35fa	; 0x35fa <eeprom_write_r18>
    35f0:	41 50       	subi	r20, 0x01	; 1
    35f2:	50 40       	sbci	r21, 0x00	; 0
    35f4:	d0 f7       	brcc	.-12     	; 0x35ea <eeprom_write_block+0x6>
    35f6:	08 95       	ret

000035f8 <eeprom_write_byte>:
    35f8:	26 2f       	mov	r18, r22

000035fa <eeprom_write_r18>:
    35fa:	f9 99       	sbic	0x1f, 1	; 31
    35fc:	fe cf       	rjmp	.-4      	; 0x35fa <eeprom_write_r18>
    35fe:	1f ba       	out	0x1f, r1	; 31
    3600:	92 bd       	out	0x22, r25	; 34
    3602:	81 bd       	out	0x21, r24	; 33
    3604:	20 bd       	out	0x20, r18	; 32
    3606:	0f b6       	in	r0, 0x3f	; 63
    3608:	f8 94       	cli
    360a:	fa 9a       	sbi	0x1f, 2	; 31
    360c:	f9 9a       	sbi	0x1f, 1	; 31
    360e:	0f be       	out	0x3f, r0	; 63
    3610:	01 96       	adiw	r24, 0x01	; 1
    3612:	08 95       	ret

00003614 <__prologue_saves__>:
    3614:	2f 92       	push	r2
    3616:	3f 92       	push	r3
    3618:	4f 92       	push	r4
    361a:	5f 92       	push	r5
    361c:	6f 92       	push	r6
    361e:	7f 92       	push	r7
    3620:	8f 92       	push	r8
    3622:	9f 92       	push	r9
    3624:	af 92       	push	r10
    3626:	bf 92       	push	r11
    3628:	cf 92       	push	r12
    362a:	df 92       	push	r13
    362c:	ef 92       	push	r14
    362e:	ff 92       	push	r15
    3630:	0f 93       	push	r16
    3632:	1f 93       	push	r17
    3634:	cf 93       	push	r28
    3636:	df 93       	push	r29
    3638:	cd b7       	in	r28, 0x3d	; 61
    363a:	de b7       	in	r29, 0x3e	; 62
    363c:	ca 1b       	sub	r28, r26
    363e:	db 0b       	sbc	r29, r27
    3640:	0f b6       	in	r0, 0x3f	; 63
    3642:	f8 94       	cli
    3644:	de bf       	out	0x3e, r29	; 62
    3646:	0f be       	out	0x3f, r0	; 63
    3648:	cd bf       	out	0x3d, r28	; 61
    364a:	09 94       	ijmp

0000364c <__epilogue_restores__>:
    364c:	2a 88       	ldd	r2, Y+18	; 0x12
    364e:	39 88       	ldd	r3, Y+17	; 0x11
    3650:	48 88       	ldd	r4, Y+16	; 0x10
    3652:	5f 84       	ldd	r5, Y+15	; 0x0f
    3654:	6e 84       	ldd	r6, Y+14	; 0x0e
    3656:	7d 84       	ldd	r7, Y+13	; 0x0d
    3658:	8c 84       	ldd	r8, Y+12	; 0x0c
    365a:	9b 84       	ldd	r9, Y+11	; 0x0b
    365c:	aa 84       	ldd	r10, Y+10	; 0x0a
    365e:	b9 84       	ldd	r11, Y+9	; 0x09
    3660:	c8 84       	ldd	r12, Y+8	; 0x08
    3662:	df 80       	ldd	r13, Y+7	; 0x07
    3664:	ee 80       	ldd	r14, Y+6	; 0x06
    3666:	fd 80       	ldd	r15, Y+5	; 0x05
    3668:	0c 81       	ldd	r16, Y+4	; 0x04
    366a:	1b 81       	ldd	r17, Y+3	; 0x03
    366c:	aa 81       	ldd	r26, Y+2	; 0x02
    366e:	b9 81       	ldd	r27, Y+1	; 0x01
    3670:	ce 0f       	add	r28, r30
    3672:	d1 1d       	adc	r29, r1
    3674:	0f b6       	in	r0, 0x3f	; 63
    3676:	f8 94       	cli
    3678:	de bf       	out	0x3e, r29	; 62
    367a:	0f be       	out	0x3f, r0	; 63
    367c:	cd bf       	out	0x3d, r28	; 61
    367e:	ed 01       	movw	r28, r26
    3680:	08 95       	ret

00003682 <_exit>:
    3682:	f8 94       	cli

00003684 <__stop_program>:
    3684:	ff cf       	rjmp	.-2      	; 0x3684 <__stop_program>
