
uQuarium.elf:     file format elf32-avr

Sections:
Idx Name          Size      VMA       LMA       File off  Algn
  0 .data         000001e8  00800100  00004202  000042b6  2**0
                  CONTENTS, ALLOC, LOAD, DATA
  1 .text         00004202  00000000  00000000  000000b4  2**1
                  CONTENTS, ALLOC, LOAD, READONLY, CODE
  2 .bss          000001b4  008002e8  008002e8  0000449e  2**0
                  ALLOC
  3 .eeprom       00000077  00810000  00810000  0000449e  2**0
                  CONTENTS, ALLOC, LOAD, DATA
  4 .stab         000012c0  00000000  00000000  00004518  2**2
                  CONTENTS, READONLY, DEBUGGING
  5 .stabstr      000004ed  00000000  00000000  000057d8  2**0
                  CONTENTS, READONLY, DEBUGGING
  6 .debug_aranges 00000060  00000000  00000000  00005cc5  2**0
                  CONTENTS, READONLY, DEBUGGING
  7 .debug_pubnames 00000059  00000000  00000000  00005d25  2**0
                  CONTENTS, READONLY, DEBUGGING
  8 .debug_info   0000066e  00000000  00000000  00005d7e  2**0
                  CONTENTS, READONLY, DEBUGGING
  9 .debug_abbrev 00000335  00000000  00000000  000063ec  2**0
                  CONTENTS, READONLY, DEBUGGING
 10 .debug_line   000009a9  00000000  00000000  00006721  2**0
                  CONTENTS, READONLY, DEBUGGING
 11 .debug_frame  00000060  00000000  00000000  000070cc  2**2
                  CONTENTS, READONLY, DEBUGGING
 12 .debug_str    00000207  00000000  00000000  0000712c  2**0
                  CONTENTS, READONLY, DEBUGGING
 13 .debug_loc    000006f1  00000000  00000000  00007333  2**0
                  CONTENTS, READONLY, DEBUGGING
 14 .debug_pubtypes 000000c4  00000000  00000000  00007a24  2**0
                  CONTENTS, READONLY, DEBUGGING
 15 .debug_ranges 00000048  00000000  00000000  00007ae8  2**0
                  CONTENTS, READONLY, DEBUGGING

Disassembly of section .text:

00000000 <__vectors>:
       0:	0c 94 d0 02 	jmp	0x5a0	; 0x5a0 <__ctors_end>
       4:	0c 94 ed 02 	jmp	0x5da	; 0x5da <__bad_interrupt>
       8:	0c 94 ed 02 	jmp	0x5da	; 0x5da <__bad_interrupt>
       c:	0c 94 ed 02 	jmp	0x5da	; 0x5da <__bad_interrupt>
      10:	0c 94 ed 02 	jmp	0x5da	; 0x5da <__bad_interrupt>
      14:	0c 94 ed 02 	jmp	0x5da	; 0x5da <__bad_interrupt>
      18:	0c 94 ed 02 	jmp	0x5da	; 0x5da <__bad_interrupt>
      1c:	0c 94 ed 02 	jmp	0x5da	; 0x5da <__bad_interrupt>
      20:	0c 94 ed 02 	jmp	0x5da	; 0x5da <__bad_interrupt>
      24:	0c 94 ed 02 	jmp	0x5da	; 0x5da <__bad_interrupt>
      28:	0c 94 ed 02 	jmp	0x5da	; 0x5da <__bad_interrupt>
      2c:	0c 94 ed 02 	jmp	0x5da	; 0x5da <__bad_interrupt>
      30:	0c 94 ed 02 	jmp	0x5da	; 0x5da <__bad_interrupt>
      34:	0c 94 ed 02 	jmp	0x5da	; 0x5da <__bad_interrupt>
      38:	0c 94 ed 02 	jmp	0x5da	; 0x5da <__bad_interrupt>
      3c:	0c 94 ed 02 	jmp	0x5da	; 0x5da <__bad_interrupt>
      40:	0c 94 ed 02 	jmp	0x5da	; 0x5da <__bad_interrupt>
      44:	0c 94 ed 02 	jmp	0x5da	; 0x5da <__bad_interrupt>
      48:	0c 94 01 1b 	jmp	0x3602	; 0x3602 <__vector_18>
      4c:	0c 94 ed 02 	jmp	0x5da	; 0x5da <__bad_interrupt>
      50:	0c 94 b6 1b 	jmp	0x376c	; 0x376c <__vector_20>
      54:	0c 94 e1 1b 	jmp	0x37c2	; 0x37c2 <__vector_21>
      58:	0c 94 ed 02 	jmp	0x5da	; 0x5da <__bad_interrupt>
      5c:	0c 94 ed 02 	jmp	0x5da	; 0x5da <__bad_interrupt>
      60:	0c 94 ed 02 	jmp	0x5da	; 0x5da <__bad_interrupt>
      64:	0c 94 ed 02 	jmp	0x5da	; 0x5da <__bad_interrupt>
      68:	0c 94 ed 02 	jmp	0x5da	; 0x5da <__bad_interrupt>
      6c:	0c 94 ed 02 	jmp	0x5da	; 0x5da <__bad_interrupt>
      70:	0c 94 76 1c 	jmp	0x38ec	; 0x38ec <__vector_28>
      74:	0c 94 a1 1c 	jmp	0x3942	; 0x3942 <__vector_29>
      78:	0c 94 ed 02 	jmp	0x5da	; 0x5da <__bad_interrupt>

0000007c <str0>:
      7c:	31 20 54 65 6d 70 65 72 61 74 75 72 00              1 Temperatur.

00000089 <str1>:
      89:	32 20 5a 65 69 74 20 20 20 20 20 20 20 00           2 Zeit       .

00000097 <str2>:
      97:	33 20 4c 69 63 68 74 20 20 20 20 20 20 00           3 Licht      .

000000a5 <str3>:
      a5:	34 20 52 65 67 65 6e 7a 65 69 74 65 6e 00           4 Regenzeiten.

000000b3 <str4>:
      b3:	35 20 54 61 67 65 73 77 65 72 74 65 20 00           5 Tageswerte .

000000c1 <str5>:
      c1:	36 20 41 62 6f 75 74 20 20 20 20 20 20 00           6 About      .

000000cf <str10>:
      cf:	31 2d 31 20 54 65 6d 70 20 4f 66 66 73 65 74 00     1-1 Temp Offset.

000000df <str11>:
      df:	31 2d 32 20 48 65 69 7a 65 72 00                    1-2 Heizer.

000000ea <str12>:
      ea:	31 2d 33 20 4c 75 65 66 74 65 72 00                 1-3 Luefter.

000000f6 <str13>:
      f6:	31 2d 34 20 41 6c 61 72 6d 20 00                    1-4 Alarm .

00000101 <str20>:
     101:	32 2d 31 20 5a 65 69 74 20 65 69 6e 73 74 2e 00     2-1 Zeit einst..

00000111 <str21>:
     111:	32 2d 32 20 44 61 74 75 6d 20 65 69 6e 73 74 2e     2-2 Datum einst.
	...

00000122 <str30>:
     122:	33 2d 31 20 4c 61 6d 70 65 20 65 69 6e 00           3-1 Lampe ein.

00000130 <str31>:
     130:	33 2d 32 20 4c 61 6d 70 65 20 61 75 73 00           3-2 Lampe aus.

0000013e <str32>:
     13e:	33 2d 33 20 4d 4c 20 65 69 6e 00                    3-3 ML ein.

00000149 <str33>:
     149:	33 2d 34 20 4d 4c 20 61 75 73 00                    3-4 ML aus.

00000154 <str34>:
     154:	33 2d 35 20 4d 4c 20 48 65 6c 6c 69 67 6b 65 69     3-5 ML Helligkei
     164:	74 00                                               t.

00000166 <str40>:
     166:	34 2d 31 20 52 65 67 65 6e 7a 65 69 74 20 45 69     4-1 Regenzeit Ei
     176:	6e 00                                               n.

00000178 <str41>:
     178:	34 2d 32 20 41 6e 7a 61 68 6c 20 52 65 67 65 6e     4-2 Anzahl Regen
     188:	7a 00                                               z.

0000018a <str42>:
     18a:	34 2d 33 20 52 65 67 65 6e 7a 65 69 74 20 31 00     4-3 Regenzeit 1.

0000019a <str43>:
     19a:	34 2d 34 20 52 65 67 65 6e 7a 65 69 74 20 32 00     4-4 Regenzeit 2.

000001aa <str44>:
     1aa:	34 2d 35 20 52 65 67 65 6e 7a 65 69 74 20 33 00     4-5 Regenzeit 3.

000001ba <str45>:
     1ba:	34 2d 36 20 52 65 67 65 6e 7a 65 69 74 20 34 00     4-6 Regenzeit 4.

000001ca <str46>:
     1ca:	34 2d 37 20 52 65 67 65 6e 7a 65 69 74 20 35 00     4-7 Regenzeit 5.

000001da <wochentagname>:
     1da:	20 20 00 4d 6f 00 44 69 00 4d 69 00 44 6f 00 46       .Mo.Di.Mi.Do.F
     1ea:	72 00 53 61 00 53 6f 00                             r.Sa.So.

000001f2 <alarm_strings>:
     1f2:	41 6c 6c 65 73 20 4f 4b 00 49 32 43 20 45 52 52     Alles OK.I2C ERR
     202:	21 00 54 65 6d 70 20 2b 2b 21 00 54 65 6d 70 20     !.Temp ++!.Temp 
     212:	2d 2d 21 00 70 48 20 2b 2b 21 00 00 00 70 48 20     --!.pH ++!...pH 
     222:	2d 2d 21 00 00 00 57 44 54 20 45 52 52 21 00        --!...WDT ERR!.

00000231 <__c.2314>:
     231:	70 48 4d 69 6e 3a 00                                pHMin:.

00000238 <__c.2312>:
     238:	70 48 4d 61 78 3a 00                                pHMax:.

0000023f <__c.2310>:
     23f:	54 2d 4d 69 6e 3a 00                                T-Min:.

00000246 <__c.2308>:
     246:	54 2d 4d 61 78 3a 00                                T-Max:.

0000024d <__c.2301>:
     24d:	53 57 3a 56 31 2e 30 00                             SW:V1.0.

00000255 <__c.2299>:
     255:	48 57 20 4d 3a 56 31 2e 30 20 46 3a 56 31 2e 30     HW M:V1.0 F:V1.0
	...

00000266 <__c.2297>:
     266:	53 74 65 66 61 6e 20 4b 65 6c 6c 65 72 00           Stefan Keller.

00000274 <__c.2295>:
     274:	75 51 75 61 72 69 75 6d 20 44 69 70 6c 6f 6d 61     uQuarium Diploma
     284:	72 62 2e 00                                         rb..

00000288 <__c.2287>:
     288:	61 6e 70 61 73 73 65 6e 3a 20 00                    anpassen: .

00000293 <__c.2285>:
     293:	4d 6f 6e 64 6c 69 63 68 74 20 48 65 6c 6c 69 67     Mondlicht Hellig
     2a3:	6b 65 69 74 00                                      keit.

000002a8 <__c.2280>:
     2a8:	5a 65 69 74 20 45 69 6e 73 74 65 6c 6c 75 6e 67     Zeit Einstellung
     2b8:	65 6e 20 20 4d 6f 6e 64 6c 69 63 68 74 20 61 75     en  Mondlicht au
     2c8:	73 73 63 68 61 6c 74 65 6e 3a 00                    sschalten:.

000002d3 <__c.2275>:
     2d3:	5a 65 69 74 20 45 69 6e 73 74 65 6c 6c 75 6e 67     Zeit Einstellung
     2e3:	65 6e 20 20 4d 6f 6e 64 6c 69 63 68 74 20 65 69     en  Mondlicht ei
     2f3:	6e 73 74 65 6c 6c 65 6e 3a 00                       nstellen:.

000002fd <__c.2263>:
     2fd:	52 65 67 65 6e 7a 65 69 74 20 35 3a 00              Regenzeit 5:.

0000030a <__c.2258>:
     30a:	52 65 67 65 6e 7a 65 69 74 20 34 3a 00              Regenzeit 4:.

00000317 <__c.2253>:
     317:	52 65 67 65 6e 7a 65 69 74 20 33 3a 00              Regenzeit 3:.

00000324 <__c.2248>:
     324:	52 65 67 65 6e 7a 65 69 74 20 32 3a 00              Regenzeit 2:.

00000331 <__c.2243>:
     331:	52 65 67 65 6e 7a 65 69 74 20 31 3a 00              Regenzeit 1:.

0000033e <__c.2238>:
     33e:	45 69 6e 73 63 68 61 6c 74 64 61 75 65 72 20 64     Einschaltdauer d
     34e:	65 72 20 52 65 67 65 6e 70 75 6d 70 65 3a 00        er Regenpumpe:.

0000035d <__c.2233>:
     35d:	5a 65 69 74 20 45 69 6e 73 74 65 6c 6c 75 6e 67     Zeit Einstellung
     36d:	65 6e 20 20 4c 61 6d 70 65 20 61 75 73 73 63 68     en  Lampe aussch
     37d:	61 6c 74 65 6e 3a 00                                alten:.

00000384 <__c.2228>:
     384:	5a 65 69 74 20 45 69 6e 73 74 65 6c 6c 75 6e 67     Zeit Einstellung
     394:	65 6e 20 20 4c 61 6d 70 65 20 65 69 6e 73 63 68     en  Lampe einsch
     3a4:	61 6c 74 65 6e 3a 00                                alten:.

000003ab <__c.2223>:
     3ab:	41 6b 74 75 65 6c 6c 65 20 55 68 72 7a 65 69 74     Aktuelle Uhrzeit
     3bb:	20 20 20 20 65 69 6e 67 65 62 65 6e 00                  eingeben.

000003c8 <__c.2218>:
     3c8:	41 6b 74 75 65 6c 6c 65 73 20 44 61 74 75 6d 20     Aktuelles Datum 
     3d8:	20 20 20 20 65 69 6e 67 65 62 65 6e 00                  eingeben.

000003e5 <__c.2213>:
     3e5:	48 79 73 74 65 72 65 73 65 3a 00                    Hysterese:.

000003f0 <__c.2211>:
     3f0:	54 65 6d 70 2e 20 4d 69 6e 3a 00                    Temp. Min:.

000003fb <__c.2209>:
     3fb:	54 65 6d 70 2e 20 4d 61 78 3a 00                    Temp. Max:.

00000406 <__c.2207>:
     406:	54 65 6d 70 65 72 61 74 75 72 20 4d 69 6e 2f 4d     Temperatur Min/M
     416:	61 78 3a 00                                         ax:.

0000041a <__c.2202>:
     41a:	48 79 73 74 65 72 65 73 65 3a 00                    Hysterese:.

00000425 <__c.2200>:
     425:	4c 75 65 66 74 65 72 20 61 75 73 3a 00              Luefter aus:.

00000432 <__c.2198>:
     432:	4c 75 65 66 74 65 72 20 65 69 6e 3a 00              Luefter ein:.

0000043f <__c.2196>:
     43f:	4c 75 65 66 74 65 72 20 65 69 6e 73 74 65 6c 6c     Luefter einstell
     44f:	75 6e 67 00                                         ung.

00000453 <__c.2191>:
     453:	48 79 73 74 65 72 65 73 65 3a 00                    Hysterese:.

0000045e <__c.2189>:
     45e:	48 65 69 7a 65 72 20 61 75 73 3a 00                 Heizer aus:.

0000046a <__c.2187>:
     46a:	48 65 69 7a 65 72 20 65 69 6e 3a 00                 Heizer ein:.

00000476 <__c.2185>:
     476:	48 65 69 7a 65 72 20 45 69 6e 73 74 65 6c 6c 75     Heizer Einstellu
     486:	6e 67 65 6e 00                                      ngen.

0000048b <__c.2176>:
     48b:	45 53 43 20 64 72 75 65 63 6b 65 6e 20 20 20 20     ESC druecken    
     49b:	20 00                                                .

0000049d <__c.2174>:
     49d:	4b 61 6c 69 62 72 69 65 72 75 6e 67 20 20 20 20     Kalibrierung    
     4ad:	20 20 20 20 61 62 67 65 73 63 68 6c 6f 73 73 65         abgeschlosse
     4bd:	6e 00                                               n.

000004bf <__c.2169>:
     4bf:	73 20 77 61 72 74 65 6e 20 2d 3e 20 4f 4b 20 20     s warten -> OK  
	...

000004d0 <__c.2167>:
     4d0:	53 6f 6e 64 65 20 69 6e 20 70 48 39 2e 30 20 20     Sonde in pH9.0  
     4e0:	20 20 20 20 4c 6f 65 73 75 6e 67 20 74 61 75 63         Loesung tauc
     4f0:	68 65 6e 00                                         hen.

000004f4 <__c.2159>:
     4f4:	73 20 77 61 72 74 65 6e 20 2d 3e 20 4f 4b 20 20     s warten -> OK  
	...

00000505 <__c.2157>:
     505:	53 6f 6e 64 65 20 69 6e 20 70 48 37 2e 30 20 20     Sonde in pH7.0  
     515:	20 20 20 20 4c 6f 65 73 75 6e 67 20 74 61 75 63         Loesung tauc
     525:	68 65 6e 00                                         hen.

00000529 <__c.2149>:
     529:	73 20 77 61 72 74 65 6e 20 2d 3e 20 4f 4b 20 20     s warten -> OK  
	...

0000053a <__c.2146>:
     53a:	53 6f 6e 64 65 20 69 6e 20 70 48 34 2e 30 20 20     Sonde in pH4.0  
     54a:	20 20 20 20 4c 6f 65 73 75 6e 67 20 74 61 75 63         Loesung tauc
     55a:	68 65 6e 20 20 20 20 20 20 00                       hen      .

00000564 <__c.2143>:
     564:	45 53 43 20 6b 61 6c 69 62 2e 20 61 62 62 72 65     ESC kalib. abbre
     574:	63 68 65 6e 00                                      chen.

00000579 <__c.2141>:
     579:	4f 4b 20 6b 61 6c 69 62 2e 20 73 74 61 72 74 65     OK kalib. starte
     589:	6e 00                                               n.

0000058b <__c.2139>:
     58b:	70 48 20 53 6f 6e 64 65 20 6b 61 6c 69 62 72 69     pH Sonde kalibri
     59b:	65 72 65 6e 00                                      eren.

000005a0 <__ctors_end>:
     5a0:	11 24       	eor	r1, r1
     5a2:	1f be       	out	0x3f, r1	; 63
     5a4:	cf ef       	ldi	r28, 0xFF	; 255
     5a6:	d0 e1       	ldi	r29, 0x10	; 16
     5a8:	de bf       	out	0x3e, r29	; 62
     5aa:	cd bf       	out	0x3d, r28	; 61

000005ac <__do_copy_data>:
     5ac:	12 e0       	ldi	r17, 0x02	; 2
     5ae:	a0 e0       	ldi	r26, 0x00	; 0
     5b0:	b1 e0       	ldi	r27, 0x01	; 1
     5b2:	e2 e0       	ldi	r30, 0x02	; 2
     5b4:	f2 e4       	ldi	r31, 0x42	; 66
     5b6:	02 c0       	rjmp	.+4      	; 0x5bc <__do_copy_data+0x10>
     5b8:	05 90       	lpm	r0, Z+
     5ba:	0d 92       	st	X+, r0
     5bc:	a8 3e       	cpi	r26, 0xE8	; 232
     5be:	b1 07       	cpc	r27, r17
     5c0:	d9 f7       	brne	.-10     	; 0x5b8 <__do_copy_data+0xc>

000005c2 <__do_clear_bss>:
     5c2:	14 e0       	ldi	r17, 0x04	; 4
     5c4:	a8 ee       	ldi	r26, 0xE8	; 232
     5c6:	b2 e0       	ldi	r27, 0x02	; 2
     5c8:	01 c0       	rjmp	.+2      	; 0x5cc <.do_clear_bss_start>

000005ca <.do_clear_bss_loop>:
     5ca:	1d 92       	st	X+, r1

000005cc <.do_clear_bss_start>:
     5cc:	ac 39       	cpi	r26, 0x9C	; 156
     5ce:	b1 07       	cpc	r27, r17
     5d0:	e1 f7       	brne	.-8      	; 0x5ca <.do_clear_bss_loop>
     5d2:	0e 94 a1 19 	call	0x3342	; 0x3342 <main>
     5d6:	0c 94 ff 20 	jmp	0x41fe	; 0x41fe <_exit>

000005da <__bad_interrupt>:
     5da:	0c 94 00 00 	jmp	0	; 0x0 <__vectors>

000005de <adc_init>:
     5de:	ea e7       	ldi	r30, 0x7A	; 122
     5e0:	f0 e0       	ldi	r31, 0x00	; 0
     5e2:	80 81       	ld	r24, Z
     5e4:	87 60       	ori	r24, 0x07	; 7
     5e6:	80 83       	st	Z, r24
     5e8:	ec e7       	ldi	r30, 0x7C	; 124
     5ea:	f0 e0       	ldi	r31, 0x00	; 0
     5ec:	80 81       	ld	r24, Z
     5ee:	80 83       	st	Z, r24
     5f0:	08 95       	ret

000005f2 <adc_read_channel>:
     5f2:	90 91 7a 00 	lds	r25, 0x007A
     5f6:	90 68       	ori	r25, 0x80	; 128
     5f8:	90 93 7a 00 	sts	0x007A, r25
     5fc:	90 91 7c 00 	lds	r25, 0x007C
     600:	98 2b       	or	r25, r24
     602:	90 93 7c 00 	sts	0x007C, r25
     606:	80 91 7a 00 	lds	r24, 0x007A
     60a:	80 64       	ori	r24, 0x40	; 64
     60c:	80 93 7a 00 	sts	0x007A, r24
     610:	80 91 7a 00 	lds	r24, 0x007A
     614:	86 fd       	sbrc	r24, 6
     616:	fc cf       	rjmp	.-8      	; 0x610 <adc_read_channel+0x1e>
     618:	80 91 78 00 	lds	r24, 0x0078
     61c:	90 91 79 00 	lds	r25, 0x0079
     620:	40 e1       	ldi	r20, 0x10	; 16
     622:	20 e0       	ldi	r18, 0x00	; 0
     624:	30 e0       	ldi	r19, 0x00	; 0
     626:	80 91 7a 00 	lds	r24, 0x007A
     62a:	80 64       	ori	r24, 0x40	; 64
     62c:	80 93 7a 00 	sts	0x007A, r24
     630:	80 91 7a 00 	lds	r24, 0x007A
     634:	86 fd       	sbrc	r24, 6
     636:	fc cf       	rjmp	.-8      	; 0x630 <adc_read_channel+0x3e>
     638:	80 91 78 00 	lds	r24, 0x0078
     63c:	90 91 79 00 	lds	r25, 0x0079
     640:	28 0f       	add	r18, r24
     642:	39 1f       	adc	r19, r25
     644:	41 50       	subi	r20, 0x01	; 1
     646:	79 f7       	brne	.-34     	; 0x626 <adc_read_channel+0x34>
     648:	80 91 7a 00 	lds	r24, 0x007A
     64c:	8f 77       	andi	r24, 0x7F	; 127
     64e:	80 93 7a 00 	sts	0x007A, r24
     652:	84 e0       	ldi	r24, 0x04	; 4
     654:	36 95       	lsr	r19
     656:	27 95       	ror	r18
     658:	8a 95       	dec	r24
     65a:	e1 f7       	brne	.-8      	; 0x654 <adc_read_channel+0x62>
     65c:	c9 01       	movw	r24, r18
     65e:	08 95       	ret

00000660 <phwert_kalibrieren>:
     660:	af 92       	push	r10
     662:	bf 92       	push	r11
     664:	cf 92       	push	r12
     666:	df 92       	push	r13
     668:	ef 92       	push	r14
     66a:	ff 92       	push	r15
     66c:	0f 93       	push	r16
     66e:	1f 93       	push	r17
     670:	cf 93       	push	r28
     672:	df 93       	push	r29
     674:	7c 01       	movw	r14, r24
     676:	6b 01       	movw	r12, r22
     678:	5a 01       	movw	r10, r20
     67a:	e9 01       	movw	r28, r18
     67c:	fb 01       	movw	r30, r22
     67e:	00 81       	ld	r16, Z
     680:	11 81       	ldd	r17, Z+1	; 0x01
     682:	fa 01       	movw	r30, r20
     684:	20 81       	ld	r18, Z
     686:	31 81       	ldd	r19, Z+1	; 0x01
     688:	20 1b       	sub	r18, r16
     68a:	31 0b       	sbc	r19, r17
     68c:	40 e0       	ldi	r20, 0x00	; 0
     68e:	50 e0       	ldi	r21, 0x00	; 0
     690:	60 e2       	ldi	r22, 0x20	; 32
     692:	7e e4       	ldi	r23, 0x4E	; 78
     694:	80 e0       	ldi	r24, 0x00	; 0
     696:	90 e0       	ldi	r25, 0x00	; 0
     698:	0e 94 75 1d 	call	0x3aea	; 0x3aea <__udivmodsi4>
     69c:	f9 01       	movw	r30, r18
     69e:	da 01       	movw	r26, r20
     6a0:	2e 87       	std	Y+14, r18	; 0x0e
     6a2:	ff 87       	std	Y+15, r31	; 0x0f
     6a4:	48 8b       	std	Y+16, r20	; 0x10
     6a6:	b9 8b       	std	Y+17, r27	; 0x11
     6a8:	98 01       	movw	r18, r16
     6aa:	40 e0       	ldi	r20, 0x00	; 0
     6ac:	50 e0       	ldi	r21, 0x00	; 0
     6ae:	bf 01       	movw	r22, r30
     6b0:	cd 01       	movw	r24, r26
     6b2:	0e 94 36 1d 	call	0x3a6c	; 0x3a6c <__mulsi3>
     6b6:	9b 01       	movw	r18, r22
     6b8:	ac 01       	movw	r20, r24
     6ba:	80 e7       	ldi	r24, 0x70	; 112
     6bc:	91 e1       	ldi	r25, 0x11	; 17
     6be:	a1 e0       	ldi	r26, 0x01	; 1
     6c0:	b0 e0       	ldi	r27, 0x00	; 0
     6c2:	82 1b       	sub	r24, r18
     6c4:	93 0b       	sbc	r25, r19
     6c6:	a4 0b       	sbc	r26, r20
     6c8:	b5 0b       	sbc	r27, r21
     6ca:	8a 8b       	std	Y+18, r24	; 0x12
     6cc:	9b 8b       	std	Y+19, r25	; 0x13
     6ce:	ac 8b       	std	Y+20, r26	; 0x14
     6d0:	bd 8b       	std	Y+21, r27	; 0x15
     6d2:	f7 01       	movw	r30, r14
     6d4:	e0 80       	ld	r14, Z
     6d6:	f1 80       	ldd	r15, Z+1	; 0x01
     6d8:	0e 19       	sub	r16, r14
     6da:	1f 09       	sbc	r17, r15
     6dc:	98 01       	movw	r18, r16
     6de:	40 e0       	ldi	r20, 0x00	; 0
     6e0:	50 e0       	ldi	r21, 0x00	; 0
     6e2:	60 e3       	ldi	r22, 0x30	; 48
     6e4:	75 e7       	ldi	r23, 0x75	; 117
     6e6:	80 e0       	ldi	r24, 0x00	; 0
     6e8:	90 e0       	ldi	r25, 0x00	; 0
     6ea:	0e 94 75 1d 	call	0x3aea	; 0x3aea <__udivmodsi4>
     6ee:	f9 01       	movw	r30, r18
     6f0:	da 01       	movw	r26, r20
     6f2:	2e 83       	std	Y+6, r18	; 0x06
     6f4:	ff 83       	std	Y+7, r31	; 0x07
     6f6:	48 87       	std	Y+8, r20	; 0x08
     6f8:	b9 87       	std	Y+9, r27	; 0x09
     6fa:	97 01       	movw	r18, r14
     6fc:	40 e0       	ldi	r20, 0x00	; 0
     6fe:	50 e0       	ldi	r21, 0x00	; 0
     700:	bf 01       	movw	r22, r30
     702:	cd 01       	movw	r24, r26
     704:	0e 94 36 1d 	call	0x3a6c	; 0x3a6c <__mulsi3>
     708:	9b 01       	movw	r18, r22
     70a:	ac 01       	movw	r20, r24
     70c:	80 e4       	ldi	r24, 0x40	; 64
     70e:	9c e9       	ldi	r25, 0x9C	; 156
     710:	a0 e0       	ldi	r26, 0x00	; 0
     712:	b0 e0       	ldi	r27, 0x00	; 0
     714:	82 1b       	sub	r24, r18
     716:	93 0b       	sbc	r25, r19
     718:	a4 0b       	sbc	r26, r20
     71a:	b5 0b       	sbc	r27, r21
     71c:	8a 87       	std	Y+10, r24	; 0x0a
     71e:	9b 87       	std	Y+11, r25	; 0x0b
     720:	ac 87       	std	Y+12, r26	; 0x0c
     722:	bd 87       	std	Y+13, r27	; 0x0d
     724:	f9 82       	std	Y+1, r15	; 0x01
     726:	e8 82       	st	Y, r14
     728:	f6 01       	movw	r30, r12
     72a:	80 81       	ld	r24, Z
     72c:	91 81       	ldd	r25, Z+1	; 0x01
     72e:	9b 83       	std	Y+3, r25	; 0x03
     730:	8a 83       	std	Y+2, r24	; 0x02
     732:	f5 01       	movw	r30, r10
     734:	80 81       	ld	r24, Z
     736:	91 81       	ldd	r25, Z+1	; 0x01
     738:	9d 83       	std	Y+5, r25	; 0x05
     73a:	8c 83       	std	Y+4, r24	; 0x04
     73c:	df 91       	pop	r29
     73e:	cf 91       	pop	r28
     740:	1f 91       	pop	r17
     742:	0f 91       	pop	r16
     744:	ff 90       	pop	r15
     746:	ef 90       	pop	r14
     748:	df 90       	pop	r13
     74a:	cf 90       	pop	r12
     74c:	bf 90       	pop	r11
     74e:	af 90       	pop	r10
     750:	08 95       	ret

00000752 <read_phwert>:
     752:	cf 93       	push	r28
     754:	df 93       	push	r29
     756:	ec 01       	movw	r28, r24
     758:	84 e0       	ldi	r24, 0x04	; 4
     75a:	0e 94 f9 02 	call	0x5f2	; 0x5f2 <adc_read_channel>
     75e:	9c 01       	movw	r18, r24
     760:	4a 81       	ldd	r20, Y+2	; 0x02
     762:	5b 81       	ldd	r21, Y+3	; 0x03
     764:	bc 01       	movw	r22, r24
     766:	80 e0       	ldi	r24, 0x00	; 0
     768:	90 e0       	ldi	r25, 0x00	; 0
     76a:	24 17       	cp	r18, r20
     76c:	35 07       	cpc	r19, r21
     76e:	58 f4       	brcc	.+22     	; 0x786 <read_phwert+0x34>
     770:	2e 81       	ldd	r18, Y+6	; 0x06
     772:	3f 81       	ldd	r19, Y+7	; 0x07
     774:	48 85       	ldd	r20, Y+8	; 0x08
     776:	59 85       	ldd	r21, Y+9	; 0x09
     778:	0e 94 36 1d 	call	0x3a6c	; 0x3a6c <__mulsi3>
     77c:	2a 85       	ldd	r18, Y+10	; 0x0a
     77e:	3b 85       	ldd	r19, Y+11	; 0x0b
     780:	4c 85       	ldd	r20, Y+12	; 0x0c
     782:	5d 85       	ldd	r21, Y+13	; 0x0d
     784:	0a c0       	rjmp	.+20     	; 0x79a <read_phwert+0x48>
     786:	2e 85       	ldd	r18, Y+14	; 0x0e
     788:	3f 85       	ldd	r19, Y+15	; 0x0f
     78a:	48 89       	ldd	r20, Y+16	; 0x10
     78c:	59 89       	ldd	r21, Y+17	; 0x11
     78e:	0e 94 36 1d 	call	0x3a6c	; 0x3a6c <__mulsi3>
     792:	2a 89       	ldd	r18, Y+18	; 0x12
     794:	3b 89       	ldd	r19, Y+19	; 0x13
     796:	4c 89       	ldd	r20, Y+20	; 0x14
     798:	5d 89       	ldd	r21, Y+21	; 0x15
     79a:	62 0f       	add	r22, r18
     79c:	73 1f       	adc	r23, r19
     79e:	84 1f       	adc	r24, r20
     7a0:	95 1f       	adc	r25, r21
     7a2:	2a e0       	ldi	r18, 0x0A	; 10
     7a4:	30 e0       	ldi	r19, 0x00	; 0
     7a6:	40 e0       	ldi	r20, 0x00	; 0
     7a8:	50 e0       	ldi	r21, 0x00	; 0
     7aa:	0e 94 75 1d 	call	0x3aea	; 0x3aea <__udivmodsi4>
     7ae:	c9 01       	movw	r24, r18
     7b0:	df 91       	pop	r29
     7b2:	cf 91       	pop	r28
     7b4:	08 95       	ret

000007b6 <ds_1307_init>:
     7b6:	1f 93       	push	r17
     7b8:	80 ed       	ldi	r24, 0xD0	; 208
     7ba:	0e 94 b8 06 	call	0xd70	; 0xd70 <i2c_start>
     7be:	88 23       	and	r24, r24
     7c0:	31 f0       	breq	.+12     	; 0x7ce <ds_1307_init+0x18>
     7c2:	0e 94 07 07 	call	0xe0e	; 0xe0e <i2c_stop>
     7c6:	81 e0       	ldi	r24, 0x01	; 1
     7c8:	80 93 06 03 	sts	0x0306, r24
     7cc:	17 c0       	rjmp	.+46     	; 0x7fc <ds_1307_init+0x46>
     7ce:	80 e0       	ldi	r24, 0x00	; 0
     7d0:	0e 94 0f 07 	call	0xe1e	; 0xe1e <i2c_write>
     7d4:	81 ed       	ldi	r24, 0xD1	; 209
     7d6:	0e 94 04 07 	call	0xe08	; 0xe08 <i2c_rep_start>
     7da:	0e 94 2a 07 	call	0xe54	; 0xe54 <i2c_readNak>
     7de:	18 2f       	mov	r17, r24
     7e0:	0e 94 07 07 	call	0xe0e	; 0xe0e <i2c_stop>
     7e4:	80 ed       	ldi	r24, 0xD0	; 208
     7e6:	0e 94 b8 06 	call	0xd70	; 0xd70 <i2c_start>
     7ea:	80 e0       	ldi	r24, 0x00	; 0
     7ec:	0e 94 0f 07 	call	0xe1e	; 0xe1e <i2c_write>
     7f0:	81 2f       	mov	r24, r17
     7f2:	8f 77       	andi	r24, 0x7F	; 127
     7f4:	0e 94 0f 07 	call	0xe1e	; 0xe1e <i2c_write>
     7f8:	0e 94 07 07 	call	0xe0e	; 0xe0e <i2c_stop>
     7fc:	1f 91       	pop	r17
     7fe:	08 95       	ret

00000800 <get_ds1307_zeit_datum>:
     800:	cf 92       	push	r12
     802:	df 92       	push	r13
     804:	ef 92       	push	r14
     806:	ff 92       	push	r15
     808:	0f 93       	push	r16
     80a:	1f 93       	push	r17
     80c:	cf 93       	push	r28
     80e:	df 93       	push	r29
     810:	ec 01       	movw	r28, r24
     812:	80 ed       	ldi	r24, 0xD0	; 208
     814:	0e 94 b8 06 	call	0xd70	; 0xd70 <i2c_start>
     818:	88 23       	and	r24, r24
     81a:	31 f0       	breq	.+12     	; 0x828 <get_ds1307_zeit_datum+0x28>
     81c:	0e 94 07 07 	call	0xe0e	; 0xe0e <i2c_stop>
     820:	81 e0       	ldi	r24, 0x01	; 1
     822:	80 93 06 03 	sts	0x0306, r24
     826:	60 c0       	rjmp	.+192    	; 0x8e8 <get_ds1307_zeit_datum+0xe8>
     828:	80 e0       	ldi	r24, 0x00	; 0
     82a:	0e 94 0f 07 	call	0xe1e	; 0xe1e <i2c_write>
     82e:	81 ed       	ldi	r24, 0xD1	; 209
     830:	0e 94 04 07 	call	0xe08	; 0xe08 <i2c_rep_start>
     834:	0e 94 20 07 	call	0xe40	; 0xe40 <i2c_readAck>
     838:	d8 2e       	mov	r13, r24
     83a:	0e 94 20 07 	call	0xe40	; 0xe40 <i2c_readAck>
     83e:	e8 2e       	mov	r14, r24
     840:	0e 94 20 07 	call	0xe40	; 0xe40 <i2c_readAck>
     844:	f8 2e       	mov	r15, r24
     846:	0e 94 20 07 	call	0xe40	; 0xe40 <i2c_readAck>
     84a:	c8 2e       	mov	r12, r24
     84c:	0e 94 20 07 	call	0xe40	; 0xe40 <i2c_readAck>
     850:	08 2f       	mov	r16, r24
     852:	0e 94 20 07 	call	0xe40	; 0xe40 <i2c_readAck>
     856:	18 2f       	mov	r17, r24
     858:	0e 94 2a 07 	call	0xe54	; 0xe54 <i2c_readNak>
     85c:	2d 2d       	mov	r18, r13
     85e:	22 95       	swap	r18
     860:	2f 70       	andi	r18, 0x0F	; 15
     862:	22 0f       	add	r18, r18
     864:	92 2f       	mov	r25, r18
     866:	99 0f       	add	r25, r25
     868:	99 0f       	add	r25, r25
     86a:	92 0f       	add	r25, r18
     86c:	2d 2d       	mov	r18, r13
     86e:	2f 70       	andi	r18, 0x0F	; 15
     870:	92 0f       	add	r25, r18
     872:	99 83       	std	Y+1, r25	; 0x01
     874:	2e 2d       	mov	r18, r14
     876:	22 95       	swap	r18
     878:	2f 70       	andi	r18, 0x0F	; 15
     87a:	22 0f       	add	r18, r18
     87c:	92 2f       	mov	r25, r18
     87e:	99 0f       	add	r25, r25
     880:	99 0f       	add	r25, r25
     882:	92 0f       	add	r25, r18
     884:	2e 2d       	mov	r18, r14
     886:	2f 70       	andi	r18, 0x0F	; 15
     888:	92 0f       	add	r25, r18
     88a:	98 83       	st	Y, r25
     88c:	2f 2d       	mov	r18, r15
     88e:	22 95       	swap	r18
     890:	2f 70       	andi	r18, 0x0F	; 15
     892:	22 0f       	add	r18, r18
     894:	92 2f       	mov	r25, r18
     896:	99 0f       	add	r25, r25
     898:	99 0f       	add	r25, r25
     89a:	92 0f       	add	r25, r18
     89c:	2f 2d       	mov	r18, r15
     89e:	2f 70       	andi	r18, 0x0F	; 15
     8a0:	92 0f       	add	r25, r18
     8a2:	9a 83       	std	Y+2, r25	; 0x02
     8a4:	20 2f       	mov	r18, r16
     8a6:	22 95       	swap	r18
     8a8:	2f 70       	andi	r18, 0x0F	; 15
     8aa:	22 0f       	add	r18, r18
     8ac:	92 2f       	mov	r25, r18
     8ae:	99 0f       	add	r25, r25
     8b0:	99 0f       	add	r25, r25
     8b2:	92 0f       	add	r25, r18
     8b4:	0f 70       	andi	r16, 0x0F	; 15
     8b6:	90 0f       	add	r25, r16
     8b8:	9b 83       	std	Y+3, r25	; 0x03
     8ba:	cc 82       	std	Y+4, r12	; 0x04
     8bc:	21 2f       	mov	r18, r17
     8be:	22 95       	swap	r18
     8c0:	2f 70       	andi	r18, 0x0F	; 15
     8c2:	22 0f       	add	r18, r18
     8c4:	92 2f       	mov	r25, r18
     8c6:	99 0f       	add	r25, r25
     8c8:	99 0f       	add	r25, r25
     8ca:	92 0f       	add	r25, r18
     8cc:	1f 70       	andi	r17, 0x0F	; 15
     8ce:	91 0f       	add	r25, r17
     8d0:	9d 83       	std	Y+5, r25	; 0x05
     8d2:	28 2f       	mov	r18, r24
     8d4:	22 95       	swap	r18
     8d6:	2f 70       	andi	r18, 0x0F	; 15
     8d8:	22 0f       	add	r18, r18
     8da:	92 2f       	mov	r25, r18
     8dc:	99 0f       	add	r25, r25
     8de:	99 0f       	add	r25, r25
     8e0:	92 0f       	add	r25, r18
     8e2:	8f 70       	andi	r24, 0x0F	; 15
     8e4:	98 0f       	add	r25, r24
     8e6:	9e 83       	std	Y+6, r25	; 0x06
     8e8:	df 91       	pop	r29
     8ea:	cf 91       	pop	r28
     8ec:	1f 91       	pop	r17
     8ee:	0f 91       	pop	r16
     8f0:	ff 90       	pop	r15
     8f2:	ef 90       	pop	r14
     8f4:	df 90       	pop	r13
     8f6:	cf 90       	pop	r12
     8f8:	08 95       	ret

000008fa <set_ds1307_zeit>:
     8fa:	1f 93       	push	r17
     8fc:	cf 93       	push	r28
     8fe:	df 93       	push	r29
     900:	ec 01       	movw	r28, r24
     902:	80 ed       	ldi	r24, 0xD0	; 208
     904:	0e 94 b8 06 	call	0xd70	; 0xd70 <i2c_start>
     908:	88 23       	and	r24, r24
     90a:	31 f0       	breq	.+12     	; 0x918 <set_ds1307_zeit+0x1e>
     90c:	0e 94 07 07 	call	0xe0e	; 0xe0e <i2c_stop>
     910:	81 e0       	ldi	r24, 0x01	; 1
     912:	80 93 06 03 	sts	0x0306, r24
     916:	21 c0       	rjmp	.+66     	; 0x95a <set_ds1307_zeit+0x60>
     918:	80 e0       	ldi	r24, 0x00	; 0
     91a:	0e 94 0f 07 	call	0xe1e	; 0xe1e <i2c_write>
     91e:	89 81       	ldd	r24, Y+1	; 0x01
     920:	1a e0       	ldi	r17, 0x0A	; 10
     922:	61 2f       	mov	r22, r17
     924:	0e 94 55 1d 	call	0x3aaa	; 0x3aaa <__udivmodqi4>
     928:	82 95       	swap	r24
     92a:	80 7f       	andi	r24, 0xF0	; 240
     92c:	89 2b       	or	r24, r25
     92e:	0e 94 0f 07 	call	0xe1e	; 0xe1e <i2c_write>
     932:	88 81       	ld	r24, Y
     934:	61 2f       	mov	r22, r17
     936:	0e 94 55 1d 	call	0x3aaa	; 0x3aaa <__udivmodqi4>
     93a:	82 95       	swap	r24
     93c:	80 7f       	andi	r24, 0xF0	; 240
     93e:	89 2b       	or	r24, r25
     940:	0e 94 0f 07 	call	0xe1e	; 0xe1e <i2c_write>
     944:	8a 81       	ldd	r24, Y+2	; 0x02
     946:	61 2f       	mov	r22, r17
     948:	0e 94 55 1d 	call	0x3aaa	; 0x3aaa <__udivmodqi4>
     94c:	82 95       	swap	r24
     94e:	80 7f       	andi	r24, 0xF0	; 240
     950:	89 2b       	or	r24, r25
     952:	0e 94 0f 07 	call	0xe1e	; 0xe1e <i2c_write>
     956:	0e 94 07 07 	call	0xe0e	; 0xe0e <i2c_stop>
     95a:	df 91       	pop	r29
     95c:	cf 91       	pop	r28
     95e:	1f 91       	pop	r17
     960:	08 95       	ret

00000962 <set_ds1307_datum>:
     962:	1f 93       	push	r17
     964:	cf 93       	push	r28
     966:	df 93       	push	r29
     968:	ec 01       	movw	r28, r24
     96a:	80 ed       	ldi	r24, 0xD0	; 208
     96c:	0e 94 b8 06 	call	0xd70	; 0xd70 <i2c_start>
     970:	88 23       	and	r24, r24
     972:	31 f0       	breq	.+12     	; 0x980 <set_ds1307_datum+0x1e>
     974:	0e 94 07 07 	call	0xe0e	; 0xe0e <i2c_stop>
     978:	81 e0       	ldi	r24, 0x01	; 1
     97a:	80 93 06 03 	sts	0x0306, r24
     97e:	24 c0       	rjmp	.+72     	; 0x9c8 <set_ds1307_datum+0x66>
     980:	83 e0       	ldi	r24, 0x03	; 3
     982:	0e 94 0f 07 	call	0xe1e	; 0xe1e <i2c_write>
     986:	8c 81       	ldd	r24, Y+4	; 0x04
     988:	0e 94 0f 07 	call	0xe1e	; 0xe1e <i2c_write>
     98c:	8b 81       	ldd	r24, Y+3	; 0x03
     98e:	1a e0       	ldi	r17, 0x0A	; 10
     990:	61 2f       	mov	r22, r17
     992:	0e 94 55 1d 	call	0x3aaa	; 0x3aaa <__udivmodqi4>
     996:	82 95       	swap	r24
     998:	80 7f       	andi	r24, 0xF0	; 240
     99a:	89 2b       	or	r24, r25
     99c:	0e 94 0f 07 	call	0xe1e	; 0xe1e <i2c_write>
     9a0:	8d 81       	ldd	r24, Y+5	; 0x05
     9a2:	61 2f       	mov	r22, r17
     9a4:	0e 94 55 1d 	call	0x3aaa	; 0x3aaa <__udivmodqi4>
     9a8:	82 95       	swap	r24
     9aa:	80 7f       	andi	r24, 0xF0	; 240
     9ac:	89 2b       	or	r24, r25
     9ae:	0e 94 0f 07 	call	0xe1e	; 0xe1e <i2c_write>
     9b2:	8e 81       	ldd	r24, Y+6	; 0x06
     9b4:	61 2f       	mov	r22, r17
     9b6:	0e 94 55 1d 	call	0x3aaa	; 0x3aaa <__udivmodqi4>
     9ba:	82 95       	swap	r24
     9bc:	80 7f       	andi	r24, 0xF0	; 240
     9be:	89 2b       	or	r24, r25
     9c0:	0e 94 0f 07 	call	0xe1e	; 0xe1e <i2c_write>
     9c4:	0e 94 07 07 	call	0xe0e	; 0xe0e <i2c_stop>
     9c8:	df 91       	pop	r29
     9ca:	cf 91       	pop	r28
     9cc:	1f 91       	pop	r17
     9ce:	08 95       	ret

000009d0 <lcd_write_i2c>:
     9d0:	1f 93       	push	r17
     9d2:	18 2f       	mov	r17, r24
     9d4:	80 e7       	ldi	r24, 0x70	; 112
     9d6:	0e 94 dd 06 	call	0xdba	; 0xdba <i2c_start_wait>
     9da:	20 91 00 01 	lds	r18, 0x0100
     9de:	30 91 01 01 	lds	r19, 0x0101
     9e2:	21 15       	cp	r18, r1
     9e4:	31 05       	cpc	r19, r1
     9e6:	19 f0       	breq	.+6      	; 0x9ee <lcd_write_i2c+0x1e>
     9e8:	81 2f       	mov	r24, r17
     9ea:	80 64       	ori	r24, 0x40	; 64
     9ec:	02 c0       	rjmp	.+4      	; 0x9f2 <lcd_write_i2c+0x22>
     9ee:	81 2f       	mov	r24, r17
     9f0:	8f 7b       	andi	r24, 0xBF	; 191
     9f2:	0e 94 0f 07 	call	0xe1e	; 0xe1e <i2c_write>
     9f6:	0e 94 07 07 	call	0xe0e	; 0xe0e <i2c_stop>
     9fa:	1f 91       	pop	r17
     9fc:	08 95       	ret

000009fe <lcd_write>:
     9fe:	1f 93       	push	r17
     a00:	18 2f       	mov	r17, r24
     a02:	10 68       	ori	r17, 0x80	; 128
     a04:	81 2f       	mov	r24, r17
     a06:	0e 94 e8 04 	call	0x9d0	; 0x9d0 <lcd_write_i2c>
     a0a:	81 2f       	mov	r24, r17
     a0c:	0e 94 e8 04 	call	0x9d0	; 0x9d0 <lcd_write_i2c>
     a10:	80 e0       	ldi	r24, 0x00	; 0
     a12:	0e 94 e8 04 	call	0x9d0	; 0x9d0 <lcd_write_i2c>
     a16:	1f 91       	pop	r17
     a18:	08 95       	ret

00000a1a <lcd_putchar>:
     a1a:	1f 93       	push	r17
     a1c:	18 2f       	mov	r17, r24
     a1e:	82 95       	swap	r24
     a20:	8f 70       	andi	r24, 0x0F	; 15
     a22:	80 61       	ori	r24, 0x10	; 16
     a24:	0e 94 ff 04 	call	0x9fe	; 0x9fe <lcd_write>
     a28:	81 2f       	mov	r24, r17
     a2a:	8f 70       	andi	r24, 0x0F	; 15
     a2c:	80 61       	ori	r24, 0x10	; 16
     a2e:	0e 94 ff 04 	call	0x9fe	; 0x9fe <lcd_write>
     a32:	1f 91       	pop	r17
     a34:	08 95       	ret

00000a36 <lcd_print>:
     a36:	1f 93       	push	r17
     a38:	cf 93       	push	r28
     a3a:	df 93       	push	r29
     a3c:	ec 01       	movw	r28, r24
     a3e:	10 e0       	ldi	r17, 0x00	; 0
     a40:	03 c0       	rjmp	.+6      	; 0xa48 <lcd_print+0x12>
     a42:	0e 94 0d 05 	call	0xa1a	; 0xa1a <lcd_putchar>
     a46:	1f 5f       	subi	r17, 0xFF	; 255
     a48:	fe 01       	movw	r30, r28
     a4a:	e1 0f       	add	r30, r17
     a4c:	f1 1d       	adc	r31, r1
     a4e:	80 81       	ld	r24, Z
     a50:	88 23       	and	r24, r24
     a52:	b9 f7       	brne	.-18     	; 0xa42 <lcd_print+0xc>
     a54:	df 91       	pop	r29
     a56:	cf 91       	pop	r28
     a58:	1f 91       	pop	r17
     a5a:	08 95       	ret

00000a5c <lcd_print_progmem>:
     a5c:	1f 93       	push	r17
     a5e:	bc 01       	movw	r22, r24
     a60:	88 ee       	ldi	r24, 0xE8	; 232
     a62:	92 e0       	ldi	r25, 0x02	; 2
     a64:	0e 94 b2 1d 	call	0x3b64	; 0x3b64 <strcpy_P>
     a68:	10 e0       	ldi	r17, 0x00	; 0
     a6a:	04 c0       	rjmp	.+8      	; 0xa74 <lcd_print_progmem+0x18>
     a6c:	80 81       	ld	r24, Z
     a6e:	0e 94 0d 05 	call	0xa1a	; 0xa1a <lcd_putchar>
     a72:	1f 5f       	subi	r17, 0xFF	; 255
     a74:	e1 2f       	mov	r30, r17
     a76:	f0 e0       	ldi	r31, 0x00	; 0
     a78:	e8 51       	subi	r30, 0x18	; 24
     a7a:	fd 4f       	sbci	r31, 0xFD	; 253
     a7c:	80 81       	ld	r24, Z
     a7e:	88 23       	and	r24, r24
     a80:	a9 f7       	brne	.-22     	; 0xa6c <lcd_print_progmem+0x10>
     a82:	1f 91       	pop	r17
     a84:	08 95       	ret

00000a86 <lcd_gotolr>:
     a86:	1f 93       	push	r17
     a88:	16 2f       	mov	r17, r22
     a8a:	85 30       	cpi	r24, 0x05	; 5
     a8c:	00 f5       	brcc	.+64     	; 0xace <lcd_gotolr+0x48>
     a8e:	65 31       	cpi	r22, 0x15	; 21
     a90:	f0 f4       	brcc	.+60     	; 0xace <lcd_gotolr+0x48>
     a92:	88 23       	and	r24, r24
     a94:	e1 f0       	breq	.+56     	; 0xace <lcd_gotolr+0x48>
     a96:	66 23       	and	r22, r22
     a98:	d1 f0       	breq	.+52     	; 0xace <lcd_gotolr+0x48>
     a9a:	83 30       	cpi	r24, 0x03	; 3
     a9c:	41 f0       	breq	.+16     	; 0xaae <lcd_gotolr+0x28>
     a9e:	84 30       	cpi	r24, 0x04	; 4
     aa0:	41 f0       	breq	.+16     	; 0xab2 <lcd_gotolr+0x2c>
     aa2:	82 30       	cpi	r24, 0x02	; 2
     aa4:	11 f0       	breq	.+4      	; 0xaaa <lcd_gotolr+0x24>
     aa6:	11 58       	subi	r17, 0x81	; 129
     aa8:	05 c0       	rjmp	.+10     	; 0xab4 <lcd_gotolr+0x2e>
     aaa:	11 54       	subi	r17, 0x41	; 65
     aac:	03 c0       	rjmp	.+6      	; 0xab4 <lcd_gotolr+0x2e>
     aae:	1d 56       	subi	r17, 0x6D	; 109
     ab0:	01 c0       	rjmp	.+2      	; 0xab4 <lcd_gotolr+0x2e>
     ab2:	1d 52       	subi	r17, 0x2D	; 45
     ab4:	81 2f       	mov	r24, r17
     ab6:	82 95       	swap	r24
     ab8:	8f 70       	andi	r24, 0x0F	; 15
     aba:	80 68       	ori	r24, 0x80	; 128
     abc:	0e 94 ff 04 	call	0x9fe	; 0x9fe <lcd_write>
     ac0:	81 2f       	mov	r24, r17
     ac2:	8f 70       	andi	r24, 0x0F	; 15
     ac4:	80 68       	ori	r24, 0x80	; 128
     ac6:	0e 94 ff 04 	call	0x9fe	; 0x9fe <lcd_write>
     aca:	81 e0       	ldi	r24, 0x01	; 1
     acc:	01 c0       	rjmp	.+2      	; 0xad0 <lcd_gotolr+0x4a>
     ace:	80 e0       	ldi	r24, 0x00	; 0
     ad0:	1f 91       	pop	r17
     ad2:	08 95       	ret

00000ad4 <lcd_printlr>:
     ad4:	cf 93       	push	r28
     ad6:	df 93       	push	r29
     ad8:	ea 01       	movw	r28, r20
     ada:	0e 94 43 05 	call	0xa86	; 0xa86 <lcd_gotolr>
     ade:	88 23       	and	r24, r24
     ae0:	29 f0       	breq	.+10     	; 0xaec <lcd_printlr+0x18>
     ae2:	ce 01       	movw	r24, r28
     ae4:	0e 94 1b 05 	call	0xa36	; 0xa36 <lcd_print>
     ae8:	81 e0       	ldi	r24, 0x01	; 1
     aea:	01 c0       	rjmp	.+2      	; 0xaee <lcd_printlr+0x1a>
     aec:	80 e0       	ldi	r24, 0x00	; 0
     aee:	df 91       	pop	r29
     af0:	cf 91       	pop	r28
     af2:	08 95       	ret

00000af4 <lcd_putcharlr>:
     af4:	df 93       	push	r29
     af6:	cf 93       	push	r28
     af8:	0f 92       	push	r0
     afa:	cd b7       	in	r28, 0x3d	; 61
     afc:	de b7       	in	r29, 0x3e	; 62
     afe:	49 83       	std	Y+1, r20	; 0x01
     b00:	0e 94 43 05 	call	0xa86	; 0xa86 <lcd_gotolr>
     b04:	49 81       	ldd	r20, Y+1	; 0x01
     b06:	88 23       	and	r24, r24
     b08:	29 f0       	breq	.+10     	; 0xb14 <lcd_putcharlr+0x20>
     b0a:	84 2f       	mov	r24, r20
     b0c:	0e 94 0d 05 	call	0xa1a	; 0xa1a <lcd_putchar>
     b10:	81 e0       	ldi	r24, 0x01	; 1
     b12:	01 c0       	rjmp	.+2      	; 0xb16 <lcd_putcharlr+0x22>
     b14:	80 e0       	ldi	r24, 0x00	; 0
     b16:	0f 90       	pop	r0
     b18:	cf 91       	pop	r28
     b1a:	df 91       	pop	r29
     b1c:	08 95       	ret

00000b1e <lcd_printlrc>:
     b1e:	ff 92       	push	r15
     b20:	0f 93       	push	r16
     b22:	1f 93       	push	r17
     b24:	cf 93       	push	r28
     b26:	df 93       	push	r29
     b28:	08 2f       	mov	r16, r24
     b2a:	16 2f       	mov	r17, r22
     b2c:	ea 01       	movw	r28, r20
     b2e:	ff 24       	eor	r15, r15
     b30:	0f c0       	rjmp	.+30     	; 0xb50 <lcd_printlrc+0x32>
     b32:	80 2f       	mov	r24, r16
     b34:	61 2f       	mov	r22, r17
     b36:	0e 94 7a 05 	call	0xaf4	; 0xaf4 <lcd_putcharlr>
     b3a:	88 23       	and	r24, r24
     b3c:	89 f0       	breq	.+34     	; 0xb60 <lcd_printlrc+0x42>
     b3e:	1f 5f       	subi	r17, 0xFF	; 255
     b40:	15 31       	cpi	r17, 0x15	; 21
     b42:	10 f0       	brcs	.+4      	; 0xb48 <lcd_printlrc+0x2a>
     b44:	0f 5f       	subi	r16, 0xFF	; 255
     b46:	11 e0       	ldi	r17, 0x01	; 1
     b48:	05 30       	cpi	r16, 0x05	; 5
     b4a:	08 f0       	brcs	.+2      	; 0xb4e <lcd_printlrc+0x30>
     b4c:	01 e0       	ldi	r16, 0x01	; 1
     b4e:	f3 94       	inc	r15
     b50:	fe 01       	movw	r30, r28
     b52:	ef 0d       	add	r30, r15
     b54:	f1 1d       	adc	r31, r1
     b56:	40 81       	ld	r20, Z
     b58:	44 23       	and	r20, r20
     b5a:	59 f7       	brne	.-42     	; 0xb32 <lcd_printlrc+0x14>
     b5c:	81 e0       	ldi	r24, 0x01	; 1
     b5e:	01 c0       	rjmp	.+2      	; 0xb62 <lcd_printlrc+0x44>
     b60:	80 e0       	ldi	r24, 0x00	; 0
     b62:	df 91       	pop	r29
     b64:	cf 91       	pop	r28
     b66:	1f 91       	pop	r17
     b68:	0f 91       	pop	r16
     b6a:	ff 90       	pop	r15
     b6c:	08 95       	ret

00000b6e <lcd_printlc>:
     b6e:	ff 92       	push	r15
     b70:	0f 93       	push	r16
     b72:	1f 93       	push	r17
     b74:	cf 93       	push	r28
     b76:	df 93       	push	r29
     b78:	08 2f       	mov	r16, r24
     b7a:	16 2f       	mov	r17, r22
     b7c:	ea 01       	movw	r28, r20
     b7e:	ff 24       	eor	r15, r15
     b80:	0b c0       	rjmp	.+22     	; 0xb98 <lcd_printlc+0x2a>
     b82:	80 2f       	mov	r24, r16
     b84:	61 2f       	mov	r22, r17
     b86:	0e 94 7a 05 	call	0xaf4	; 0xaf4 <lcd_putcharlr>
     b8a:	88 23       	and	r24, r24
     b8c:	69 f0       	breq	.+26     	; 0xba8 <lcd_printlc+0x3a>
     b8e:	1f 5f       	subi	r17, 0xFF	; 255
     b90:	15 31       	cpi	r17, 0x15	; 21
     b92:	08 f0       	brcs	.+2      	; 0xb96 <lcd_printlc+0x28>
     b94:	11 e0       	ldi	r17, 0x01	; 1
     b96:	f3 94       	inc	r15
     b98:	fe 01       	movw	r30, r28
     b9a:	ef 0d       	add	r30, r15
     b9c:	f1 1d       	adc	r31, r1
     b9e:	40 81       	ld	r20, Z
     ba0:	44 23       	and	r20, r20
     ba2:	79 f7       	brne	.-34     	; 0xb82 <lcd_printlc+0x14>
     ba4:	81 e0       	ldi	r24, 0x01	; 1
     ba6:	01 c0       	rjmp	.+2      	; 0xbaa <lcd_printlc+0x3c>
     ba8:	80 e0       	ldi	r24, 0x00	; 0
     baa:	df 91       	pop	r29
     bac:	cf 91       	pop	r28
     bae:	1f 91       	pop	r17
     bb0:	0f 91       	pop	r16
     bb2:	ff 90       	pop	r15
     bb4:	08 95       	ret

00000bb6 <lcd_read_i2c>:
     bb6:	df 93       	push	r29
     bb8:	cf 93       	push	r28
     bba:	0f 92       	push	r0
     bbc:	cd b7       	in	r28, 0x3d	; 61
     bbe:	de b7       	in	r29, 0x3e	; 62
     bc0:	81 e7       	ldi	r24, 0x71	; 113
     bc2:	0e 94 dd 06 	call	0xdba	; 0xdba <i2c_start_wait>
     bc6:	0e 94 2a 07 	call	0xe54	; 0xe54 <i2c_readNak>
     bca:	89 83       	std	Y+1, r24	; 0x01
     bcc:	0e 94 07 07 	call	0xe0e	; 0xe0e <i2c_stop>
     bd0:	89 81       	ldd	r24, Y+1	; 0x01
     bd2:	0f 90       	pop	r0
     bd4:	cf 91       	pop	r28
     bd6:	df 91       	pop	r29
     bd8:	08 95       	ret

00000bda <lcd_read>:
     bda:	1f 93       	push	r17
     bdc:	88 23       	and	r24, r24
     bde:	11 f0       	breq	.+4      	; 0xbe4 <lcd_read+0xa>
     be0:	8f eb       	ldi	r24, 0xBF	; 191
     be2:	01 c0       	rjmp	.+2      	; 0xbe6 <lcd_read+0xc>
     be4:	8f ea       	ldi	r24, 0xAF	; 175
     be6:	0e 94 e8 04 	call	0x9d0	; 0x9d0 <lcd_write_i2c>
     bea:	0e 94 db 05 	call	0xbb6	; 0xbb6 <lcd_read_i2c>
     bee:	18 2f       	mov	r17, r24
     bf0:	80 e0       	ldi	r24, 0x00	; 0
     bf2:	0e 94 e8 04 	call	0x9d0	; 0x9d0 <lcd_write_i2c>
     bf6:	81 2f       	mov	r24, r17
     bf8:	1f 91       	pop	r17
     bfa:	08 95       	ret

00000bfc <lcd_getbyte>:
     bfc:	0f 93       	push	r16
     bfe:	1f 93       	push	r17
     c00:	18 2f       	mov	r17, r24
     c02:	0e 94 ed 05 	call	0xbda	; 0xbda <lcd_read>
     c06:	08 2f       	mov	r16, r24
     c08:	81 2f       	mov	r24, r17
     c0a:	0e 94 ed 05 	call	0xbda	; 0xbda <lcd_read>
     c0e:	8f 70       	andi	r24, 0x0F	; 15
     c10:	02 95       	swap	r16
     c12:	00 7f       	andi	r16, 0xF0	; 240
     c14:	80 0f       	add	r24, r16
     c16:	1f 91       	pop	r17
     c18:	0f 91       	pop	r16
     c1a:	08 95       	ret

00000c1c <lcd_getlr>:
     c1c:	0f 93       	push	r16
     c1e:	1f 93       	push	r17
     c20:	cf 93       	push	r28
     c22:	df 93       	push	r29
     c24:	ec 01       	movw	r28, r24
     c26:	8b 01       	movw	r16, r22
     c28:	80 e0       	ldi	r24, 0x00	; 0
     c2a:	0e 94 fe 05 	call	0xbfc	; 0xbfc <lcd_getbyte>
     c2e:	87 fd       	sbrc	r24, 7
     c30:	1c c0       	rjmp	.+56     	; 0xc6a <lcd_getlr+0x4e>
     c32:	98 2f       	mov	r25, r24
     c34:	90 7f       	andi	r25, 0xF0	; 240
     c36:	94 31       	cpi	r25, 0x14	; 20
     c38:	71 f0       	breq	.+28     	; 0xc56 <lcd_getlr+0x3a>
     c3a:	95 31       	cpi	r25, 0x15	; 21
     c3c:	18 f4       	brcc	.+6      	; 0xc44 <lcd_getlr+0x28>
     c3e:	99 23       	and	r25, r25
     c40:	31 f0       	breq	.+12     	; 0xc4e <lcd_getlr+0x32>
     c42:	13 c0       	rjmp	.+38     	; 0xc6a <lcd_getlr+0x4e>
     c44:	90 34       	cpi	r25, 0x40	; 64
     c46:	29 f0       	breq	.+10     	; 0xc52 <lcd_getlr+0x36>
     c48:	94 35       	cpi	r25, 0x54	; 84
     c4a:	79 f4       	brne	.+30     	; 0xc6a <lcd_getlr+0x4e>
     c4c:	06 c0       	rjmp	.+12     	; 0xc5a <lcd_getlr+0x3e>
     c4e:	91 e0       	ldi	r25, 0x01	; 1
     c50:	05 c0       	rjmp	.+10     	; 0xc5c <lcd_getlr+0x40>
     c52:	92 e0       	ldi	r25, 0x02	; 2
     c54:	03 c0       	rjmp	.+6      	; 0xc5c <lcd_getlr+0x40>
     c56:	93 e0       	ldi	r25, 0x03	; 3
     c58:	01 c0       	rjmp	.+2      	; 0xc5c <lcd_getlr+0x40>
     c5a:	94 e0       	ldi	r25, 0x04	; 4
     c5c:	98 83       	st	Y, r25
     c5e:	8f 70       	andi	r24, 0x0F	; 15
     c60:	8f 5f       	subi	r24, 0xFF	; 255
     c62:	f8 01       	movw	r30, r16
     c64:	80 83       	st	Z, r24
     c66:	81 e0       	ldi	r24, 0x01	; 1
     c68:	01 c0       	rjmp	.+2      	; 0xc6c <lcd_getlr+0x50>
     c6a:	80 e0       	ldi	r24, 0x00	; 0
     c6c:	df 91       	pop	r29
     c6e:	cf 91       	pop	r28
     c70:	1f 91       	pop	r17
     c72:	0f 91       	pop	r16
     c74:	08 95       	ret

00000c76 <lcd_nextline>:
     c76:	df 93       	push	r29
     c78:	cf 93       	push	r28
     c7a:	00 d0       	rcall	.+0      	; 0xc7c <lcd_nextline+0x6>
     c7c:	cd b7       	in	r28, 0x3d	; 61
     c7e:	de b7       	in	r29, 0x3e	; 62
     c80:	19 82       	std	Y+1, r1	; 0x01
     c82:	1a 82       	std	Y+2, r1	; 0x02
     c84:	ce 01       	movw	r24, r28
     c86:	01 96       	adiw	r24, 0x01	; 1
     c88:	be 01       	movw	r22, r28
     c8a:	6e 5f       	subi	r22, 0xFE	; 254
     c8c:	7f 4f       	sbci	r23, 0xFF	; 255
     c8e:	0e 94 0e 06 	call	0xc1c	; 0xc1c <lcd_getlr>
     c92:	89 81       	ldd	r24, Y+1	; 0x01
     c94:	8f 5f       	subi	r24, 0xFF	; 255
     c96:	61 e0       	ldi	r22, 0x01	; 1
     c98:	0e 94 43 05 	call	0xa86	; 0xa86 <lcd_gotolr>
     c9c:	0f 90       	pop	r0
     c9e:	0f 90       	pop	r0
     ca0:	cf 91       	pop	r28
     ca2:	df 91       	pop	r29
     ca4:	08 95       	ret

00000ca6 <lcd_busy>:
     ca6:	80 e0       	ldi	r24, 0x00	; 0
     ca8:	0e 94 fe 05 	call	0xbfc	; 0xbfc <lcd_getbyte>
     cac:	88 1f       	adc	r24, r24
     cae:	88 27       	eor	r24, r24
     cb0:	88 1f       	adc	r24, r24
     cb2:	08 95       	ret

00000cb4 <lcd_wait_us>:
     cb4:	20 e0       	ldi	r18, 0x00	; 0
     cb6:	30 e0       	ldi	r19, 0x00	; 0
     cb8:	55 e0       	ldi	r21, 0x05	; 5
     cba:	05 c0       	rjmp	.+10     	; 0xcc6 <lcd_wait_us+0x12>
     cbc:	45 2f       	mov	r20, r21
     cbe:	4a 95       	dec	r20
     cc0:	f1 f7       	brne	.-4      	; 0xcbe <lcd_wait_us+0xa>
     cc2:	2f 5f       	subi	r18, 0xFF	; 255
     cc4:	3f 4f       	sbci	r19, 0xFF	; 255
     cc6:	28 17       	cp	r18, r24
     cc8:	39 07       	cpc	r19, r25
     cca:	c0 f3       	brcs	.-16     	; 0xcbc <lcd_wait_us+0x8>
     ccc:	08 95       	ret

00000cce <lcd_wait_ms>:
     cce:	20 e0       	ldi	r18, 0x00	; 0
     cd0:	30 e0       	ldi	r19, 0x00	; 0
     cd2:	40 ea       	ldi	r20, 0xA0	; 160
     cd4:	5f e0       	ldi	r21, 0x0F	; 15
     cd6:	05 c0       	rjmp	.+10     	; 0xce2 <lcd_wait_ms+0x14>
     cd8:	fa 01       	movw	r30, r20
     cda:	31 97       	sbiw	r30, 0x01	; 1
     cdc:	f1 f7       	brne	.-4      	; 0xcda <lcd_wait_ms+0xc>
     cde:	2f 5f       	subi	r18, 0xFF	; 255
     ce0:	3f 4f       	sbci	r19, 0xFF	; 255
     ce2:	28 17       	cp	r18, r24
     ce4:	39 07       	cpc	r19, r25
     ce6:	c0 f3       	brcs	.-16     	; 0xcd8 <lcd_wait_ms+0xa>
     ce8:	08 95       	ret

00000cea <lcd_command>:
     cea:	1f 93       	push	r17
     cec:	18 2f       	mov	r17, r24
     cee:	82 95       	swap	r24
     cf0:	8f 70       	andi	r24, 0x0F	; 15
     cf2:	0e 94 ff 04 	call	0x9fe	; 0x9fe <lcd_write>
     cf6:	81 2f       	mov	r24, r17
     cf8:	8f 70       	andi	r24, 0x0F	; 15
     cfa:	0e 94 ff 04 	call	0x9fe	; 0x9fe <lcd_write>
     cfe:	81 e0       	ldi	r24, 0x01	; 1
     d00:	90 e0       	ldi	r25, 0x00	; 0
     d02:	0e 94 67 06 	call	0xcce	; 0xcce <lcd_wait_ms>
     d06:	1f 91       	pop	r17
     d08:	08 95       	ret

00000d0a <lcd_init>:
     d0a:	80 e1       	ldi	r24, 0x10	; 16
     d0c:	90 e0       	ldi	r25, 0x00	; 0
     d0e:	0e 94 67 06 	call	0xcce	; 0xcce <lcd_wait_ms>
     d12:	83 e0       	ldi	r24, 0x03	; 3
     d14:	0e 94 ff 04 	call	0x9fe	; 0x9fe <lcd_write>
     d18:	85 e0       	ldi	r24, 0x05	; 5
     d1a:	90 e0       	ldi	r25, 0x00	; 0
     d1c:	0e 94 67 06 	call	0xcce	; 0xcce <lcd_wait_ms>
     d20:	83 e0       	ldi	r24, 0x03	; 3
     d22:	0e 94 ff 04 	call	0x9fe	; 0x9fe <lcd_write>
     d26:	85 e6       	ldi	r24, 0x65	; 101
     d28:	90 e0       	ldi	r25, 0x00	; 0
     d2a:	0e 94 5a 06 	call	0xcb4	; 0xcb4 <lcd_wait_us>
     d2e:	83 e0       	ldi	r24, 0x03	; 3
     d30:	0e 94 ff 04 	call	0x9fe	; 0x9fe <lcd_write>
     d34:	82 e0       	ldi	r24, 0x02	; 2
     d36:	0e 94 ff 04 	call	0x9fe	; 0x9fe <lcd_write>
     d3a:	88 e2       	ldi	r24, 0x28	; 40
     d3c:	0e 94 75 06 	call	0xcea	; 0xcea <lcd_command>
     d40:	88 e0       	ldi	r24, 0x08	; 8
     d42:	0e 94 75 06 	call	0xcea	; 0xcea <lcd_command>
     d46:	81 e0       	ldi	r24, 0x01	; 1
     d48:	0e 94 75 06 	call	0xcea	; 0xcea <lcd_command>
     d4c:	86 e0       	ldi	r24, 0x06	; 6
     d4e:	0e 94 75 06 	call	0xcea	; 0xcea <lcd_command>
     d52:	8c e0       	ldi	r24, 0x0C	; 12
     d54:	0e 94 75 06 	call	0xcea	; 0xcea <lcd_command>
     d58:	08 95       	ret

00000d5a <lcd_backlight>:
     d5a:	90 93 01 01 	sts	0x0101, r25
     d5e:	80 93 00 01 	sts	0x0100, r24
     d62:	08 95       	ret

00000d64 <i2c_init>:
     d64:	10 92 b9 00 	sts	0x00B9, r1
     d68:	88 e4       	ldi	r24, 0x48	; 72
     d6a:	80 93 b8 00 	sts	0x00B8, r24
     d6e:	08 95       	ret

00000d70 <i2c_start>:
     d70:	94 ea       	ldi	r25, 0xA4	; 164
     d72:	90 93 bc 00 	sts	0x00BC, r25
     d76:	90 91 bc 00 	lds	r25, 0x00BC
     d7a:	97 ff       	sbrs	r25, 7
     d7c:	fc cf       	rjmp	.-8      	; 0xd76 <i2c_start+0x6>
     d7e:	90 91 b9 00 	lds	r25, 0x00B9
     d82:	98 7f       	andi	r25, 0xF8	; 248
     d84:	98 30       	cpi	r25, 0x08	; 8
     d86:	11 f0       	breq	.+4      	; 0xd8c <i2c_start+0x1c>
     d88:	90 31       	cpi	r25, 0x10	; 16
     d8a:	99 f4       	brne	.+38     	; 0xdb2 <i2c_start+0x42>
     d8c:	80 93 bb 00 	sts	0x00BB, r24
     d90:	84 e8       	ldi	r24, 0x84	; 132
     d92:	80 93 bc 00 	sts	0x00BC, r24
     d96:	80 91 bc 00 	lds	r24, 0x00BC
     d9a:	87 ff       	sbrs	r24, 7
     d9c:	fc cf       	rjmp	.-8      	; 0xd96 <i2c_start+0x26>
     d9e:	90 91 b9 00 	lds	r25, 0x00B9
     da2:	98 7f       	andi	r25, 0xF8	; 248
     da4:	98 31       	cpi	r25, 0x18	; 24
     da6:	39 f0       	breq	.+14     	; 0xdb6 <i2c_start+0x46>
     da8:	81 e0       	ldi	r24, 0x01	; 1
     daa:	90 34       	cpi	r25, 0x40	; 64
     dac:	29 f4       	brne	.+10     	; 0xdb8 <i2c_start+0x48>
     dae:	80 e0       	ldi	r24, 0x00	; 0
     db0:	08 95       	ret
     db2:	81 e0       	ldi	r24, 0x01	; 1
     db4:	08 95       	ret
     db6:	80 e0       	ldi	r24, 0x00	; 0
     db8:	08 95       	ret

00000dba <i2c_start_wait>:
     dba:	44 ea       	ldi	r20, 0xA4	; 164
     dbc:	34 e8       	ldi	r19, 0x84	; 132
     dbe:	24 e9       	ldi	r18, 0x94	; 148
     dc0:	40 93 bc 00 	sts	0x00BC, r20
     dc4:	90 91 bc 00 	lds	r25, 0x00BC
     dc8:	97 ff       	sbrs	r25, 7
     dca:	fc cf       	rjmp	.-8      	; 0xdc4 <i2c_start_wait+0xa>
     dcc:	90 91 b9 00 	lds	r25, 0x00B9
     dd0:	98 7f       	andi	r25, 0xF8	; 248
     dd2:	98 30       	cpi	r25, 0x08	; 8
     dd4:	11 f0       	breq	.+4      	; 0xdda <i2c_start_wait+0x20>
     dd6:	90 31       	cpi	r25, 0x10	; 16
     dd8:	99 f7       	brne	.-26     	; 0xdc0 <i2c_start_wait+0x6>
     dda:	80 93 bb 00 	sts	0x00BB, r24
     dde:	30 93 bc 00 	sts	0x00BC, r19
     de2:	90 91 bc 00 	lds	r25, 0x00BC
     de6:	97 ff       	sbrs	r25, 7
     de8:	fc cf       	rjmp	.-8      	; 0xde2 <i2c_start_wait+0x28>
     dea:	90 91 b9 00 	lds	r25, 0x00B9
     dee:	98 7f       	andi	r25, 0xF8	; 248
     df0:	90 32       	cpi	r25, 0x20	; 32
     df2:	11 f0       	breq	.+4      	; 0xdf8 <i2c_start_wait+0x3e>
     df4:	98 35       	cpi	r25, 0x58	; 88
     df6:	39 f4       	brne	.+14     	; 0xe06 <i2c_start_wait+0x4c>
     df8:	20 93 bc 00 	sts	0x00BC, r18
     dfc:	90 91 bc 00 	lds	r25, 0x00BC
     e00:	94 fd       	sbrc	r25, 4
     e02:	fc cf       	rjmp	.-8      	; 0xdfc <i2c_start_wait+0x42>
     e04:	dd cf       	rjmp	.-70     	; 0xdc0 <i2c_start_wait+0x6>
     e06:	08 95       	ret

00000e08 <i2c_rep_start>:
     e08:	0e 94 b8 06 	call	0xd70	; 0xd70 <i2c_start>
     e0c:	08 95       	ret

00000e0e <i2c_stop>:
     e0e:	84 e9       	ldi	r24, 0x94	; 148
     e10:	80 93 bc 00 	sts	0x00BC, r24
     e14:	80 91 bc 00 	lds	r24, 0x00BC
     e18:	84 fd       	sbrc	r24, 4
     e1a:	fc cf       	rjmp	.-8      	; 0xe14 <i2c_stop+0x6>
     e1c:	08 95       	ret

00000e1e <i2c_write>:
     e1e:	80 93 bb 00 	sts	0x00BB, r24
     e22:	84 e8       	ldi	r24, 0x84	; 132
     e24:	80 93 bc 00 	sts	0x00BC, r24
     e28:	80 91 bc 00 	lds	r24, 0x00BC
     e2c:	87 ff       	sbrs	r24, 7
     e2e:	fc cf       	rjmp	.-8      	; 0xe28 <i2c_write+0xa>
     e30:	90 91 b9 00 	lds	r25, 0x00B9
     e34:	98 7f       	andi	r25, 0xF8	; 248
     e36:	81 e0       	ldi	r24, 0x01	; 1
     e38:	98 32       	cpi	r25, 0x28	; 40
     e3a:	09 f4       	brne	.+2      	; 0xe3e <i2c_write+0x20>
     e3c:	80 e0       	ldi	r24, 0x00	; 0
     e3e:	08 95       	ret

00000e40 <i2c_readAck>:
     e40:	84 ec       	ldi	r24, 0xC4	; 196
     e42:	80 93 bc 00 	sts	0x00BC, r24
     e46:	80 91 bc 00 	lds	r24, 0x00BC
     e4a:	87 ff       	sbrs	r24, 7
     e4c:	fc cf       	rjmp	.-8      	; 0xe46 <i2c_readAck+0x6>
     e4e:	80 91 bb 00 	lds	r24, 0x00BB
     e52:	08 95       	ret

00000e54 <i2c_readNak>:
     e54:	84 e8       	ldi	r24, 0x84	; 132
     e56:	80 93 bc 00 	sts	0x00BC, r24
     e5a:	80 91 bc 00 	lds	r24, 0x00BC
     e5e:	87 ff       	sbrs	r24, 7
     e60:	fc cf       	rjmp	.-8      	; 0xe5a <i2c_readNak+0x6>
     e62:	80 91 bb 00 	lds	r24, 0x00BB
     e66:	08 95       	ret

00000e68 <init_menu>:
     e68:	88 ec       	ldi	r24, 0xC8	; 200
     e6a:	91 e0       	ldi	r25, 0x01	; 1
     e6c:	90 93 08 01 	sts	0x0108, r25
     e70:	80 93 07 01 	sts	0x0107, r24
     e74:	90 93 13 01 	sts	0x0113, r25
     e78:	80 93 12 01 	sts	0x0112, r24
     e7c:	90 93 1e 01 	sts	0x011E, r25
     e80:	80 93 1d 01 	sts	0x011D, r24
     e84:	90 93 29 01 	sts	0x0129, r25
     e88:	80 93 28 01 	sts	0x0128, r24
     e8c:	90 93 34 01 	sts	0x0134, r25
     e90:	80 93 33 01 	sts	0x0133, r24
     e94:	90 93 3f 01 	sts	0x013F, r25
     e98:	80 93 3e 01 	sts	0x013E, r24
     e9c:	90 93 4a 01 	sts	0x014A, r25
     ea0:	80 93 49 01 	sts	0x0149, r24
     ea4:	90 93 55 01 	sts	0x0155, r25
     ea8:	80 93 54 01 	sts	0x0154, r24
     eac:	90 93 60 01 	sts	0x0160, r25
     eb0:	80 93 5f 01 	sts	0x015F, r24
     eb4:	90 93 6b 01 	sts	0x016B, r25
     eb8:	80 93 6a 01 	sts	0x016A, r24
     ebc:	90 93 76 01 	sts	0x0176, r25
     ec0:	80 93 75 01 	sts	0x0175, r24
     ec4:	90 93 81 01 	sts	0x0181, r25
     ec8:	80 93 80 01 	sts	0x0180, r24
     ecc:	90 93 4a 01 	sts	0x014A, r25
     ed0:	80 93 49 01 	sts	0x0149, r24
     ed4:	90 93 55 01 	sts	0x0155, r25
     ed8:	80 93 54 01 	sts	0x0154, r24
     edc:	90 93 60 01 	sts	0x0160, r25
     ee0:	80 93 5f 01 	sts	0x015F, r24
     ee4:	90 93 6b 01 	sts	0x016B, r25
     ee8:	80 93 6a 01 	sts	0x016A, r24
     eec:	90 93 76 01 	sts	0x0176, r25
     ef0:	80 93 75 01 	sts	0x0175, r24
     ef4:	90 93 81 01 	sts	0x0181, r25
     ef8:	80 93 80 01 	sts	0x0180, r24
     efc:	90 93 c1 03 	sts	0x03C1, r25
     f00:	80 93 c0 03 	sts	0x03C0, r24
     f04:	10 92 00 03 	sts	0x0300, r1
     f08:	10 92 fc 02 	sts	0x02FC, r1
     f0c:	10 92 fd 02 	sts	0x02FD, r1
     f10:	10 92 fe 02 	sts	0x02FE, r1
     f14:	10 92 ff 02 	sts	0x02FF, r1
     f18:	08 95       	ret

00000f1a <menu>:
     f1a:	e0 91 c0 03 	lds	r30, 0x03C0
     f1e:	f0 91 c1 03 	lds	r31, 0x03C1
     f22:	92 81       	ldd	r25, Z+2	; 0x02
     f24:	82 30       	cpi	r24, 0x02	; 2
     f26:	09 f4       	brne	.+2      	; 0xf2a <menu+0x10>
     f28:	5a c0       	rjmp	.+180    	; 0xfde <menu+0xc4>
     f2a:	83 30       	cpi	r24, 0x03	; 3
     f2c:	30 f4       	brcc	.+12     	; 0xf3a <menu+0x20>
     f2e:	88 23       	and	r24, r24
     f30:	69 f0       	breq	.+26     	; 0xf4c <menu+0x32>
     f32:	81 30       	cpi	r24, 0x01	; 1
     f34:	09 f0       	breq	.+2      	; 0xf38 <menu+0x1e>
     f36:	b4 c0       	rjmp	.+360    	; 0x10a0 <menu+0x186>
     f38:	3e c0       	rjmp	.+124    	; 0xfb6 <menu+0x9c>
     f3a:	84 30       	cpi	r24, 0x04	; 4
     f3c:	f9 f0       	breq	.+62     	; 0xf7c <menu+0x62>
     f3e:	84 30       	cpi	r24, 0x04	; 4
     f40:	08 f4       	brcc	.+2      	; 0xf44 <menu+0x2a>
     f42:	4d c0       	rjmp	.+154    	; 0xfde <menu+0xc4>
     f44:	85 30       	cpi	r24, 0x05	; 5
     f46:	09 f0       	breq	.+2      	; 0xf4a <menu+0x30>
     f48:	ab c0       	rjmp	.+342    	; 0x10a0 <menu+0x186>
     f4a:	97 c0       	rjmp	.+302    	; 0x107a <menu+0x160>
     f4c:	e0 91 00 03 	lds	r30, 0x0300
     f50:	f0 e0       	ldi	r31, 0x00	; 0
     f52:	e4 50       	subi	r30, 0x04	; 4
     f54:	fd 4f       	sbci	r31, 0xFD	; 253
     f56:	80 81       	ld	r24, Z
     f58:	88 23       	and	r24, r24
     f5a:	41 f4       	brne	.+16     	; 0xf6c <menu+0x52>
     f5c:	e0 91 00 03 	lds	r30, 0x0300
     f60:	f0 e0       	ldi	r31, 0x00	; 0
     f62:	91 50       	subi	r25, 0x01	; 1
     f64:	e4 50       	subi	r30, 0x04	; 4
     f66:	fd 4f       	sbci	r31, 0xFD	; 253
     f68:	90 83       	st	Z, r25
     f6a:	83 c0       	rjmp	.+262    	; 0x1072 <menu+0x158>
     f6c:	e0 91 00 03 	lds	r30, 0x0300
     f70:	f0 e0       	ldi	r31, 0x00	; 0
     f72:	e4 50       	subi	r30, 0x04	; 4
     f74:	fd 4f       	sbci	r31, 0xFD	; 253
     f76:	80 81       	ld	r24, Z
     f78:	81 50       	subi	r24, 0x01	; 1
     f7a:	1b c0       	rjmp	.+54     	; 0xfb2 <menu+0x98>
     f7c:	e0 91 00 03 	lds	r30, 0x0300
     f80:	f0 e0       	ldi	r31, 0x00	; 0
     f82:	e4 50       	subi	r30, 0x04	; 4
     f84:	fd 4f       	sbci	r31, 0xFD	; 253
     f86:	20 81       	ld	r18, Z
     f88:	30 e0       	ldi	r19, 0x00	; 0
     f8a:	89 2f       	mov	r24, r25
     f8c:	90 e0       	ldi	r25, 0x00	; 0
     f8e:	01 97       	sbiw	r24, 0x01	; 1
     f90:	28 17       	cp	r18, r24
     f92:	39 07       	cpc	r19, r25
     f94:	39 f4       	brne	.+14     	; 0xfa4 <menu+0x8a>
     f96:	e0 91 00 03 	lds	r30, 0x0300
     f9a:	f0 e0       	ldi	r31, 0x00	; 0
     f9c:	e4 50       	subi	r30, 0x04	; 4
     f9e:	fd 4f       	sbci	r31, 0xFD	; 253
     fa0:	10 82       	st	Z, r1
     fa2:	67 c0       	rjmp	.+206    	; 0x1072 <menu+0x158>
     fa4:	e0 91 00 03 	lds	r30, 0x0300
     fa8:	f0 e0       	ldi	r31, 0x00	; 0
     faa:	e4 50       	subi	r30, 0x04	; 4
     fac:	fd 4f       	sbci	r31, 0xFD	; 253
     fae:	80 81       	ld	r24, Z
     fb0:	8f 5f       	subi	r24, 0xFF	; 255
     fb2:	80 83       	st	Z, r24
     fb4:	5e c0       	rjmp	.+188    	; 0x1072 <menu+0x158>
     fb6:	88 ec       	ldi	r24, 0xC8	; 200
     fb8:	91 e0       	ldi	r25, 0x01	; 1
     fba:	90 93 c1 03 	sts	0x03C1, r25
     fbe:	80 93 c0 03 	sts	0x03C0, r24
     fc2:	81 e0       	ldi	r24, 0x01	; 1
     fc4:	0e 94 75 06 	call	0xcea	; 0xcea <lcd_command>
     fc8:	10 92 00 03 	sts	0x0300, r1
     fcc:	10 92 fc 02 	sts	0x02FC, r1
     fd0:	10 92 fd 02 	sts	0x02FD, r1
     fd4:	10 92 fe 02 	sts	0x02FE, r1
     fd8:	10 92 ff 02 	sts	0x02FF, r1
     fdc:	08 95       	ret
     fde:	a0 91 00 03 	lds	r26, 0x0300
     fe2:	b0 e0       	ldi	r27, 0x00	; 0
     fe4:	a4 50       	subi	r26, 0x04	; 4
     fe6:	bd 4f       	sbci	r27, 0xFD	; 253
     fe8:	2c 91       	ld	r18, X
     fea:	30 e0       	ldi	r19, 0x00	; 0
     fec:	8b e0       	ldi	r24, 0x0B	; 11
     fee:	90 e0       	ldi	r25, 0x00	; 0
     ff0:	28 9f       	mul	r18, r24
     ff2:	d0 01       	movw	r26, r0
     ff4:	29 9f       	mul	r18, r25
     ff6:	b0 0d       	add	r27, r0
     ff8:	38 9f       	mul	r19, r24
     ffa:	b0 0d       	add	r27, r0
     ffc:	11 24       	eor	r1, r1
     ffe:	ae 0f       	add	r26, r30
    1000:	bf 1f       	adc	r27, r31
    1002:	11 96       	adiw	r26, 0x01	; 1
    1004:	2c 91       	ld	r18, X
    1006:	11 97       	sbiw	r26, 0x01	; 1
    1008:	22 23       	and	r18, r18
    100a:	f1 f4       	brne	.+60     	; 0x1048 <menu+0x12e>
    100c:	a0 91 00 03 	lds	r26, 0x0300
    1010:	b0 e0       	ldi	r27, 0x00	; 0
    1012:	a4 50       	subi	r26, 0x04	; 4
    1014:	bd 4f       	sbci	r27, 0xFD	; 253
    1016:	2c 91       	ld	r18, X
    1018:	30 e0       	ldi	r19, 0x00	; 0
    101a:	28 9f       	mul	r18, r24
    101c:	d0 01       	movw	r26, r0
    101e:	29 9f       	mul	r18, r25
    1020:	b0 0d       	add	r27, r0
    1022:	38 9f       	mul	r19, r24
    1024:	b0 0d       	add	r27, r0
    1026:	11 24       	eor	r1, r1
    1028:	ae 0f       	add	r26, r30
    102a:	bf 1f       	adc	r27, r31
    102c:	13 96       	adiw	r26, 0x03	; 3
    102e:	8d 91       	ld	r24, X+
    1030:	9c 91       	ld	r25, X
    1032:	14 97       	sbiw	r26, 0x04	; 4
    1034:	90 93 c1 03 	sts	0x03C1, r25
    1038:	80 93 c0 03 	sts	0x03C0, r24
    103c:	80 91 00 03 	lds	r24, 0x0300
    1040:	8f 5f       	subi	r24, 0xFF	; 255
    1042:	80 93 00 03 	sts	0x0300, r24
    1046:	15 c0       	rjmp	.+42     	; 0x1072 <menu+0x158>
    1048:	a0 91 00 03 	lds	r26, 0x0300
    104c:	b0 e0       	ldi	r27, 0x00	; 0
    104e:	a4 50       	subi	r26, 0x04	; 4
    1050:	bd 4f       	sbci	r27, 0xFD	; 253
    1052:	2c 91       	ld	r18, X
    1054:	30 e0       	ldi	r19, 0x00	; 0
    1056:	28 9f       	mul	r18, r24
    1058:	d0 01       	movw	r26, r0
    105a:	29 9f       	mul	r18, r25
    105c:	b0 0d       	add	r27, r0
    105e:	38 9f       	mul	r19, r24
    1060:	b0 0d       	add	r27, r0
    1062:	11 24       	eor	r1, r1
    1064:	ae 0f       	add	r26, r30
    1066:	bf 1f       	adc	r27, r31
    1068:	19 96       	adiw	r26, 0x09	; 9
    106a:	ed 91       	ld	r30, X+
    106c:	fc 91       	ld	r31, X
    106e:	1a 97       	sbiw	r26, 0x0a	; 10
    1070:	09 95       	icall
    1072:	81 e0       	ldi	r24, 0x01	; 1
    1074:	0e 94 75 06 	call	0xcea	; 0xcea <lcd_command>
    1078:	08 95       	ret
    107a:	88 ec       	ldi	r24, 0xC8	; 200
    107c:	91 e0       	ldi	r25, 0x01	; 1
    107e:	90 93 c1 03 	sts	0x03C1, r25
    1082:	80 93 c0 03 	sts	0x03C0, r24
    1086:	81 e0       	ldi	r24, 0x01	; 1
    1088:	0e 94 75 06 	call	0xcea	; 0xcea <lcd_command>
    108c:	10 92 00 03 	sts	0x0300, r1
    1090:	10 92 fc 02 	sts	0x02FC, r1
    1094:	10 92 fd 02 	sts	0x02FD, r1
    1098:	10 92 fe 02 	sts	0x02FE, r1
    109c:	10 92 ff 02 	sts	0x02FF, r1
    10a0:	08 95       	ret

000010a2 <displayMenu>:
    10a2:	ff 92       	push	r15
    10a4:	0f 93       	push	r16
    10a6:	1f 93       	push	r17
    10a8:	cf 93       	push	r28
    10aa:	df 93       	push	r29
    10ac:	81 e0       	ldi	r24, 0x01	; 1
    10ae:	61 e0       	ldi	r22, 0x01	; 1
    10b0:	0e 94 43 05 	call	0xa86	; 0xa86 <lcd_gotolr>
    10b4:	e0 91 00 03 	lds	r30, 0x0300
    10b8:	f0 e0       	ldi	r31, 0x00	; 0
    10ba:	e4 50       	subi	r30, 0x04	; 4
    10bc:	fd 4f       	sbci	r31, 0xFD	; 253
    10be:	f0 80       	ld	r15, Z
    10c0:	1f 2d       	mov	r17, r15
    10c2:	01 e0       	ldi	r16, 0x01	; 1
    10c4:	cb e0       	ldi	r28, 0x0B	; 11
    10c6:	d0 e0       	ldi	r29, 0x00	; 0
    10c8:	80 2f       	mov	r24, r16
    10ca:	61 e0       	ldi	r22, 0x01	; 1
    10cc:	0e 94 43 05 	call	0xa86	; 0xa86 <lcd_gotolr>
    10d0:	1f 15       	cp	r17, r15
    10d2:	11 f4       	brne	.+4      	; 0x10d8 <displayMenu+0x36>
    10d4:	01 30       	cpi	r16, 0x01	; 1
    10d6:	71 f5       	brne	.+92     	; 0x1134 <__stack+0x35>
    10d8:	e0 91 00 03 	lds	r30, 0x0300
    10dc:	f0 e0       	ldi	r31, 0x00	; 0
    10de:	e4 50       	subi	r30, 0x04	; 4
    10e0:	fd 4f       	sbci	r31, 0xFD	; 253
    10e2:	80 81       	ld	r24, Z
    10e4:	18 17       	cp	r17, r24
    10e6:	19 f4       	brne	.+6      	; 0x10ee <displayMenu+0x4c>
    10e8:	8e e3       	ldi	r24, 0x3E	; 62
    10ea:	0e 94 0d 05 	call	0xa1a	; 0xa1a <lcd_putchar>
    10ee:	80 2f       	mov	r24, r16
    10f0:	62 e0       	ldi	r22, 0x02	; 2
    10f2:	0e 94 43 05 	call	0xa86	; 0xa86 <lcd_gotolr>
    10f6:	81 2f       	mov	r24, r17
    10f8:	90 e0       	ldi	r25, 0x00	; 0
    10fa:	8c 9f       	mul	r24, r28
    10fc:	90 01       	movw	r18, r0
    10fe:	8d 9f       	mul	r24, r29
    1100:	30 0d       	add	r19, r0
    1102:	9c 9f       	mul	r25, r28
    1104:	30 0d       	add	r19, r0
    1106:	11 24       	eor	r1, r1
    1108:	e0 91 c0 03 	lds	r30, 0x03C0
    110c:	f0 91 c1 03 	lds	r31, 0x03C1
    1110:	e2 0f       	add	r30, r18
    1112:	f3 1f       	adc	r31, r19
    1114:	87 81       	ldd	r24, Z+7	; 0x07
    1116:	90 85       	ldd	r25, Z+8	; 0x08
    1118:	0e 94 2e 05 	call	0xa5c	; 0xa5c <lcd_print_progmem>
    111c:	1f 5f       	subi	r17, 0xFF	; 255
    111e:	e0 91 c0 03 	lds	r30, 0x03C0
    1122:	f0 91 c1 03 	lds	r31, 0x03C1
    1126:	82 81       	ldd	r24, Z+2	; 0x02
    1128:	18 17       	cp	r17, r24
    112a:	08 f0       	brcs	.+2      	; 0x112e <__stack+0x2f>
    112c:	10 e0       	ldi	r17, 0x00	; 0
    112e:	0f 5f       	subi	r16, 0xFF	; 255
    1130:	05 30       	cpi	r16, 0x05	; 5
    1132:	51 f6       	brne	.-108    	; 0x10c8 <displayMenu+0x26>
    1134:	df 91       	pop	r29
    1136:	cf 91       	pop	r28
    1138:	1f 91       	pop	r17
    113a:	0f 91       	pop	r16
    113c:	ff 90       	pop	r15
    113e:	08 95       	ret

00001140 <get_lm76_temperatur>:
    1140:	1f 93       	push	r17
    1142:	df 93       	push	r29
    1144:	cf 93       	push	r28
    1146:	0f 92       	push	r0
    1148:	cd b7       	in	r28, 0x3d	; 61
    114a:	de b7       	in	r29, 0x3e	; 62
    114c:	18 2f       	mov	r17, r24
    114e:	0e 94 b8 06 	call	0xd70	; 0xd70 <i2c_start>
    1152:	88 23       	and	r24, r24
    1154:	41 f0       	breq	.+16     	; 0x1166 <get_lm76_temperatur+0x26>
    1156:	0e 94 07 07 	call	0xe0e	; 0xe0e <i2c_stop>
    115a:	81 e0       	ldi	r24, 0x01	; 1
    115c:	80 93 06 03 	sts	0x0306, r24
    1160:	20 e0       	ldi	r18, 0x00	; 0
    1162:	30 e0       	ldi	r19, 0x00	; 0
    1164:	1d c0       	rjmp	.+58     	; 0x11a0 <get_lm76_temperatur+0x60>
    1166:	80 e0       	ldi	r24, 0x00	; 0
    1168:	0e 94 0f 07 	call	0xe1e	; 0xe1e <i2c_write>
    116c:	81 2f       	mov	r24, r17
    116e:	8f 5f       	subi	r24, 0xFF	; 255
    1170:	0e 94 04 07 	call	0xe08	; 0xe08 <i2c_rep_start>
    1174:	0e 94 20 07 	call	0xe40	; 0xe40 <i2c_readAck>
    1178:	18 2f       	mov	r17, r24
    117a:	0e 94 2a 07 	call	0xe54	; 0xe54 <i2c_readNak>
    117e:	89 83       	std	Y+1, r24	; 0x01
    1180:	0e 94 07 07 	call	0xe0e	; 0xe0e <i2c_stop>
    1184:	21 2f       	mov	r18, r17
    1186:	33 27       	eor	r19, r19
    1188:	27 fd       	sbrc	r18, 7
    118a:	30 95       	com	r19
    118c:	32 2f       	mov	r19, r18
    118e:	22 27       	eor	r18, r18
    1190:	89 81       	ldd	r24, Y+1	; 0x01
    1192:	28 0f       	add	r18, r24
    1194:	31 1d       	adc	r19, r1
    1196:	83 e0       	ldi	r24, 0x03	; 3
    1198:	35 95       	asr	r19
    119a:	27 95       	ror	r18
    119c:	8a 95       	dec	r24
    119e:	e1 f7       	brne	.-8      	; 0x1198 <get_lm76_temperatur+0x58>
    11a0:	c9 01       	movw	r24, r18
    11a2:	0f 90       	pop	r0
    11a4:	cf 91       	pop	r28
    11a6:	df 91       	pop	r29
    11a8:	1f 91       	pop	r17
    11aa:	08 95       	ret

000011ac <get_lm76_temperatur_4x>:
    11ac:	df 92       	push	r13
    11ae:	ef 92       	push	r14
    11b0:	ff 92       	push	r15
    11b2:	0f 93       	push	r16
    11b4:	1f 93       	push	r17
    11b6:	df 93       	push	r29
    11b8:	cf 93       	push	r28
    11ba:	cd b7       	in	r28, 0x3d	; 61
    11bc:	de b7       	in	r29, 0x3e	; 62
    11be:	28 97       	sbiw	r28, 0x08	; 8
    11c0:	0f b6       	in	r0, 0x3f	; 63
    11c2:	f8 94       	cli
    11c4:	de bf       	out	0x3e, r29	; 62
    11c6:	0f be       	out	0x3f, r0	; 63
    11c8:	cd bf       	out	0x3d, r28	; 61
    11ca:	d8 2e       	mov	r13, r24
    11cc:	8e 01       	movw	r16, r28
    11ce:	0f 5f       	subi	r16, 0xFF	; 255
    11d0:	1f 4f       	sbci	r17, 0xFF	; 255
    11d2:	29 e0       	ldi	r18, 0x09	; 9
    11d4:	e2 2e       	mov	r14, r18
    11d6:	f1 2c       	mov	r15, r1
    11d8:	ec 0e       	add	r14, r28
    11da:	fd 1e       	adc	r15, r29
    11dc:	8d 2d       	mov	r24, r13
    11de:	0e 94 a0 08 	call	0x1140	; 0x1140 <get_lm76_temperatur>
    11e2:	f8 01       	movw	r30, r16
    11e4:	81 93       	st	Z+, r24
    11e6:	91 93       	st	Z+, r25
    11e8:	8f 01       	movw	r16, r30
    11ea:	ee 15       	cp	r30, r14
    11ec:	ff 05       	cpc	r31, r15
    11ee:	b1 f7       	brne	.-20     	; 0x11dc <get_lm76_temperatur_4x+0x30>
    11f0:	29 81       	ldd	r18, Y+1	; 0x01
    11f2:	3a 81       	ldd	r19, Y+2	; 0x02
    11f4:	4b 81       	ldd	r20, Y+3	; 0x03
    11f6:	5c 81       	ldd	r21, Y+4	; 0x04
    11f8:	8d 81       	ldd	r24, Y+5	; 0x05
    11fa:	9e 81       	ldd	r25, Y+6	; 0x06
    11fc:	48 17       	cp	r20, r24
    11fe:	59 07       	cpc	r21, r25
    1200:	31 f4       	brne	.+12     	; 0x120e <get_lm76_temperatur_4x+0x62>
    1202:	61 e0       	ldi	r22, 0x01	; 1
    1204:	28 17       	cp	r18, r24
    1206:	39 07       	cpc	r19, r25
    1208:	19 f4       	brne	.+6      	; 0x1210 <get_lm76_temperatur_4x+0x64>
    120a:	60 e0       	ldi	r22, 0x00	; 0
    120c:	01 c0       	rjmp	.+2      	; 0x1210 <get_lm76_temperatur_4x+0x64>
    120e:	61 e0       	ldi	r22, 0x01	; 1
    1210:	4f 81       	ldd	r20, Y+7	; 0x07
    1212:	58 85       	ldd	r21, Y+8	; 0x08
    1214:	84 17       	cp	r24, r20
    1216:	95 07       	cpc	r25, r21
    1218:	29 f4       	brne	.+10     	; 0x1224 <get_lm76_temperatur_4x+0x78>
    121a:	66 23       	and	r22, r22
    121c:	19 f4       	brne	.+6      	; 0x1224 <get_lm76_temperatur_4x+0x78>
    121e:	21 15       	cp	r18, r1
    1220:	31 05       	cpc	r19, r1
    1222:	41 f4       	brne	.+16     	; 0x1234 <get_lm76_temperatur_4x+0x88>
    1224:	81 e0       	ldi	r24, 0x01	; 1
    1226:	80 93 06 03 	sts	0x0306, r24
    122a:	20 91 01 03 	lds	r18, 0x0301
    122e:	30 91 02 03 	lds	r19, 0x0302
    1232:	04 c0       	rjmp	.+8      	; 0x123c <get_lm76_temperatur_4x+0x90>
    1234:	30 93 02 03 	sts	0x0302, r19
    1238:	20 93 01 03 	sts	0x0301, r18
    123c:	c9 01       	movw	r24, r18
    123e:	28 96       	adiw	r28, 0x08	; 8
    1240:	0f b6       	in	r0, 0x3f	; 63
    1242:	f8 94       	cli
    1244:	de bf       	out	0x3e, r29	; 62
    1246:	0f be       	out	0x3f, r0	; 63
    1248:	cd bf       	out	0x3d, r28	; 61
    124a:	cf 91       	pop	r28
    124c:	df 91       	pop	r29
    124e:	1f 91       	pop	r17
    1250:	0f 91       	pop	r16
    1252:	ff 90       	pop	r15
    1254:	ef 90       	pop	r14
    1256:	df 90       	pop	r13
    1258:	08 95       	ret

0000125a <timer_init>:
    125a:	85 b5       	in	r24, 0x25	; 37
    125c:	85 60       	ori	r24, 0x05	; 5
    125e:	85 bd       	out	0x25, r24	; 37
    1260:	ee e6       	ldi	r30, 0x6E	; 110
    1262:	f0 e0       	ldi	r31, 0x00	; 0
    1264:	80 81       	ld	r24, Z
    1266:	81 60       	ori	r24, 0x01	; 1
    1268:	80 83       	st	Z, r24
    126a:	81 e2       	ldi	r24, 0x21	; 33
    126c:	80 93 80 00 	sts	0x0080, r24
    1270:	83 e0       	ldi	r24, 0x03	; 3
    1272:	80 93 81 00 	sts	0x0081, r24
    1276:	78 94       	sei
    1278:	08 95       	ret

0000127a <init_ports>:
    127a:	8f e0       	ldi	r24, 0x0F	; 15
    127c:	81 b9       	out	0x01, r24	; 1
    127e:	80 e3       	ldi	r24, 0x30	; 48
    1280:	8a b9       	out	0x0a, r24	; 10
    1282:	87 b1       	in	r24, 0x07	; 7
    1284:	80 6c       	ori	r24, 0xC0	; 192
    1286:	87 b9       	out	0x07, r24	; 7
    1288:	08 95       	ret

0000128a <temperatur_to_string>:
    128a:	cf 92       	push	r12
    128c:	df 92       	push	r13
    128e:	ef 92       	push	r14
    1290:	ff 92       	push	r15
    1292:	0f 93       	push	r16
    1294:	1f 93       	push	r17
    1296:	cf 93       	push	r28
    1298:	df 93       	push	r29
    129a:	eb 01       	movw	r28, r22
    129c:	9c 01       	movw	r18, r24
    129e:	b9 01       	movw	r22, r18
    12a0:	88 27       	eor	r24, r24
    12a2:	77 fd       	sbrc	r23, 7
    12a4:	80 95       	com	r24
    12a6:	98 2f       	mov	r25, r24
    12a8:	21 e7       	ldi	r18, 0x71	; 113
    12aa:	32 e0       	ldi	r19, 0x02	; 2
    12ac:	40 e0       	ldi	r20, 0x00	; 0
    12ae:	50 e0       	ldi	r21, 0x00	; 0
    12b0:	0e 94 36 1d 	call	0x3a6c	; 0x3a6c <__mulsi3>
    12b4:	20 e1       	ldi	r18, 0x10	; 16
    12b6:	37 e2       	ldi	r19, 0x27	; 39
    12b8:	40 e0       	ldi	r20, 0x00	; 0
    12ba:	50 e0       	ldi	r21, 0x00	; 0
    12bc:	0e 94 97 1d 	call	0x3b2e	; 0x3b2e <__divmodsi4>
    12c0:	79 01       	movw	r14, r18
    12c2:	8a 01       	movw	r16, r20
    12c4:	28 ee       	ldi	r18, 0xE8	; 232
    12c6:	33 e0       	ldi	r19, 0x03	; 3
    12c8:	40 e0       	ldi	r20, 0x00	; 0
    12ca:	50 e0       	ldi	r21, 0x00	; 0
    12cc:	0e 94 97 1d 	call	0x3b2e	; 0x3b2e <__divmodsi4>
    12d0:	c9 01       	movw	r24, r18
    12d2:	37 ff       	sbrs	r19, 7
    12d4:	34 c0       	rjmp	.+104    	; 0x133e <temperatur_to_string+0xb4>
    12d6:	90 95       	com	r25
    12d8:	81 95       	neg	r24
    12da:	9f 4f       	sbci	r25, 0xFF	; 255
    12dc:	e1 14       	cp	r14, r1
    12de:	f1 04       	cpc	r15, r1
    12e0:	b1 f4       	brne	.+44     	; 0x130e <temperatur_to_string+0x84>
    12e2:	ad b7       	in	r26, 0x3d	; 61
    12e4:	be b7       	in	r27, 0x3e	; 62
    12e6:	18 97       	sbiw	r26, 0x08	; 8
    12e8:	0f b6       	in	r0, 0x3f	; 63
    12ea:	f8 94       	cli
    12ec:	be bf       	out	0x3e, r27	; 62
    12ee:	0f be       	out	0x3f, r0	; 63
    12f0:	ad bf       	out	0x3d, r26	; 61
    12f2:	ed b7       	in	r30, 0x3d	; 61
    12f4:	fe b7       	in	r31, 0x3e	; 62
    12f6:	31 96       	adiw	r30, 0x01	; 1
    12f8:	12 96       	adiw	r26, 0x02	; 2
    12fa:	dc 93       	st	X, r29
    12fc:	ce 93       	st	-X, r28
    12fe:	11 97       	sbiw	r26, 0x01	; 1
    1300:	2a e0       	ldi	r18, 0x0A	; 10
    1302:	32 e0       	ldi	r19, 0x02	; 2
    1304:	33 83       	std	Z+3, r19	; 0x03
    1306:	22 83       	std	Z+2, r18	; 0x02
    1308:	15 82       	std	Z+5, r1	; 0x05
    130a:	14 82       	std	Z+4, r1	; 0x04
    130c:	15 c0       	rjmp	.+42     	; 0x1338 <temperatur_to_string+0xae>
    130e:	ad b7       	in	r26, 0x3d	; 61
    1310:	be b7       	in	r27, 0x3e	; 62
    1312:	18 97       	sbiw	r26, 0x08	; 8
    1314:	0f b6       	in	r0, 0x3f	; 63
    1316:	f8 94       	cli
    1318:	be bf       	out	0x3e, r27	; 62
    131a:	0f be       	out	0x3f, r0	; 63
    131c:	ad bf       	out	0x3d, r26	; 61
    131e:	ed b7       	in	r30, 0x3d	; 61
    1320:	fe b7       	in	r31, 0x3e	; 62
    1322:	31 96       	adiw	r30, 0x01	; 1
    1324:	12 96       	adiw	r26, 0x02	; 2
    1326:	dc 93       	st	X, r29
    1328:	ce 93       	st	-X, r28
    132a:	11 97       	sbiw	r26, 0x01	; 1
    132c:	22 e1       	ldi	r18, 0x12	; 18
    132e:	32 e0       	ldi	r19, 0x02	; 2
    1330:	33 83       	std	Z+3, r19	; 0x03
    1332:	22 83       	std	Z+2, r18	; 0x02
    1334:	f5 82       	std	Z+5, r15	; 0x05
    1336:	e4 82       	std	Z+4, r14	; 0x04
    1338:	97 83       	std	Z+7, r25	; 0x07
    133a:	86 83       	std	Z+6, r24	; 0x06
    133c:	19 c0       	rjmp	.+50     	; 0x1370 <temperatur_to_string+0xe6>
    133e:	8d b7       	in	r24, 0x3d	; 61
    1340:	9e b7       	in	r25, 0x3e	; 62
    1342:	08 97       	sbiw	r24, 0x08	; 8
    1344:	0f b6       	in	r0, 0x3f	; 63
    1346:	f8 94       	cli
    1348:	9e bf       	out	0x3e, r25	; 62
    134a:	0f be       	out	0x3f, r0	; 63
    134c:	8d bf       	out	0x3d, r24	; 61
    134e:	ed b7       	in	r30, 0x3d	; 61
    1350:	fe b7       	in	r31, 0x3e	; 62
    1352:	31 96       	adiw	r30, 0x01	; 1
    1354:	ad b7       	in	r26, 0x3d	; 61
    1356:	be b7       	in	r27, 0x3e	; 62
    1358:	12 96       	adiw	r26, 0x02	; 2
    135a:	dc 93       	st	X, r29
    135c:	ce 93       	st	-X, r28
    135e:	11 97       	sbiw	r26, 0x01	; 1
    1360:	82 e1       	ldi	r24, 0x12	; 18
    1362:	92 e0       	ldi	r25, 0x02	; 2
    1364:	93 83       	std	Z+3, r25	; 0x03
    1366:	82 83       	std	Z+2, r24	; 0x02
    1368:	f5 82       	std	Z+5, r15	; 0x05
    136a:	e4 82       	std	Z+4, r14	; 0x04
    136c:	37 83       	std	Z+7, r19	; 0x07
    136e:	26 83       	std	Z+6, r18	; 0x06
    1370:	0e 94 de 1d 	call	0x3bbc	; 0x3bbc <sprintf>
    1374:	2d b7       	in	r18, 0x3d	; 61
    1376:	3e b7       	in	r19, 0x3e	; 62
    1378:	28 5f       	subi	r18, 0xF8	; 248
    137a:	3f 4f       	sbci	r19, 0xFF	; 255
    137c:	0f b6       	in	r0, 0x3f	; 63
    137e:	f8 94       	cli
    1380:	3e bf       	out	0x3e, r19	; 62
    1382:	0f be       	out	0x3f, r0	; 63
    1384:	2d bf       	out	0x3d, r18	; 61
    1386:	df 91       	pop	r29
    1388:	cf 91       	pop	r28
    138a:	1f 91       	pop	r17
    138c:	0f 91       	pop	r16
    138e:	ff 90       	pop	r15
    1390:	ef 90       	pop	r14
    1392:	df 90       	pop	r13
    1394:	cf 90       	pop	r12
    1396:	08 95       	ret

00001398 <zeit_to_string>:
    1398:	0f 93       	push	r16
    139a:	1f 93       	push	r17
    139c:	df 93       	push	r29
    139e:	cf 93       	push	r28
    13a0:	cd b7       	in	r28, 0x3d	; 61
    13a2:	de b7       	in	r29, 0x3e	; 62
    13a4:	27 97       	sbiw	r28, 0x07	; 7
    13a6:	0f b6       	in	r0, 0x3f	; 63
    13a8:	f8 94       	cli
    13aa:	de bf       	out	0x3e, r29	; 62
    13ac:	0f be       	out	0x3f, r0	; 63
    13ae:	cd bf       	out	0x3d, r28	; 61
    13b0:	29 83       	std	Y+1, r18	; 0x01
    13b2:	3a 83       	std	Y+2, r19	; 0x02
    13b4:	4b 83       	std	Y+3, r20	; 0x03
    13b6:	5c 83       	std	Y+4, r21	; 0x04
    13b8:	6d 83       	std	Y+5, r22	; 0x05
    13ba:	7e 83       	std	Y+6, r23	; 0x06
    13bc:	8f 83       	std	Y+7, r24	; 0x07
    13be:	8d b7       	in	r24, 0x3d	; 61
    13c0:	9e b7       	in	r25, 0x3e	; 62
    13c2:	0a 97       	sbiw	r24, 0x0a	; 10
    13c4:	0f b6       	in	r0, 0x3f	; 63
    13c6:	f8 94       	cli
    13c8:	9e bf       	out	0x3e, r25	; 62
    13ca:	0f be       	out	0x3f, r0	; 63
    13cc:	8d bf       	out	0x3d, r24	; 61
    13ce:	ed b7       	in	r30, 0x3d	; 61
    13d0:	fe b7       	in	r31, 0x3e	; 62
    13d2:	31 96       	adiw	r30, 0x01	; 1
    13d4:	ad b7       	in	r26, 0x3d	; 61
    13d6:	be b7       	in	r27, 0x3e	; 62
    13d8:	12 96       	adiw	r26, 0x02	; 2
    13da:	1c 93       	st	X, r17
    13dc:	0e 93       	st	-X, r16
    13de:	11 97       	sbiw	r26, 0x01	; 1
    13e0:	89 e1       	ldi	r24, 0x19	; 25
    13e2:	92 e0       	ldi	r25, 0x02	; 2
    13e4:	93 83       	std	Z+3, r25	; 0x03
    13e6:	82 83       	std	Z+2, r24	; 0x02
    13e8:	8b 81       	ldd	r24, Y+3	; 0x03
    13ea:	84 83       	std	Z+4, r24	; 0x04
    13ec:	15 82       	std	Z+5, r1	; 0x05
    13ee:	89 81       	ldd	r24, Y+1	; 0x01
    13f0:	86 83       	std	Z+6, r24	; 0x06
    13f2:	17 82       	std	Z+7, r1	; 0x07
    13f4:	8a 81       	ldd	r24, Y+2	; 0x02
    13f6:	80 87       	std	Z+8, r24	; 0x08
    13f8:	11 86       	std	Z+9, r1	; 0x09
    13fa:	0e 94 de 1d 	call	0x3bbc	; 0x3bbc <sprintf>
    13fe:	8d b7       	in	r24, 0x3d	; 61
    1400:	9e b7       	in	r25, 0x3e	; 62
    1402:	0a 96       	adiw	r24, 0x0a	; 10
    1404:	0f b6       	in	r0, 0x3f	; 63
    1406:	f8 94       	cli
    1408:	9e bf       	out	0x3e, r25	; 62
    140a:	0f be       	out	0x3f, r0	; 63
    140c:	8d bf       	out	0x3d, r24	; 61
    140e:	27 96       	adiw	r28, 0x07	; 7
    1410:	0f b6       	in	r0, 0x3f	; 63
    1412:	f8 94       	cli
    1414:	de bf       	out	0x3e, r29	; 62
    1416:	0f be       	out	0x3f, r0	; 63
    1418:	cd bf       	out	0x3d, r28	; 61
    141a:	cf 91       	pop	r28
    141c:	df 91       	pop	r29
    141e:	1f 91       	pop	r17
    1420:	0f 91       	pop	r16
    1422:	08 95       	ret

00001424 <datum_to_string>:
    1424:	0f 93       	push	r16
    1426:	1f 93       	push	r17
    1428:	df 93       	push	r29
    142a:	cf 93       	push	r28
    142c:	cd b7       	in	r28, 0x3d	; 61
    142e:	de b7       	in	r29, 0x3e	; 62
    1430:	27 97       	sbiw	r28, 0x07	; 7
    1432:	0f b6       	in	r0, 0x3f	; 63
    1434:	f8 94       	cli
    1436:	de bf       	out	0x3e, r29	; 62
    1438:	0f be       	out	0x3f, r0	; 63
    143a:	cd bf       	out	0x3d, r28	; 61
    143c:	29 83       	std	Y+1, r18	; 0x01
    143e:	3a 83       	std	Y+2, r19	; 0x02
    1440:	4b 83       	std	Y+3, r20	; 0x03
    1442:	5c 83       	std	Y+4, r21	; 0x04
    1444:	6d 83       	std	Y+5, r22	; 0x05
    1446:	7e 83       	std	Y+6, r23	; 0x06
    1448:	8f 83       	std	Y+7, r24	; 0x07
    144a:	8d b7       	in	r24, 0x3d	; 61
    144c:	9e b7       	in	r25, 0x3e	; 62
    144e:	0a 97       	sbiw	r24, 0x0a	; 10
    1450:	0f b6       	in	r0, 0x3f	; 63
    1452:	f8 94       	cli
    1454:	9e bf       	out	0x3e, r25	; 62
    1456:	0f be       	out	0x3f, r0	; 63
    1458:	8d bf       	out	0x3d, r24	; 61
    145a:	ed b7       	in	r30, 0x3d	; 61
    145c:	fe b7       	in	r31, 0x3e	; 62
    145e:	31 96       	adiw	r30, 0x01	; 1
    1460:	ad b7       	in	r26, 0x3d	; 61
    1462:	be b7       	in	r27, 0x3e	; 62
    1464:	12 96       	adiw	r26, 0x02	; 2
    1466:	1c 93       	st	X, r17
    1468:	0e 93       	st	-X, r16
    146a:	11 97       	sbiw	r26, 0x01	; 1
    146c:	88 e2       	ldi	r24, 0x28	; 40
    146e:	92 e0       	ldi	r25, 0x02	; 2
    1470:	93 83       	std	Z+3, r25	; 0x03
    1472:	82 83       	std	Z+2, r24	; 0x02
    1474:	8c 81       	ldd	r24, Y+4	; 0x04
    1476:	84 83       	std	Z+4, r24	; 0x04
    1478:	15 82       	std	Z+5, r1	; 0x05
    147a:	8e 81       	ldd	r24, Y+6	; 0x06
    147c:	86 83       	std	Z+6, r24	; 0x06
    147e:	17 82       	std	Z+7, r1	; 0x07
    1480:	8f 81       	ldd	r24, Y+7	; 0x07
    1482:	80 87       	std	Z+8, r24	; 0x08
    1484:	11 86       	std	Z+9, r1	; 0x09
    1486:	0e 94 de 1d 	call	0x3bbc	; 0x3bbc <sprintf>
    148a:	8d b7       	in	r24, 0x3d	; 61
    148c:	9e b7       	in	r25, 0x3e	; 62
    148e:	0a 96       	adiw	r24, 0x0a	; 10
    1490:	0f b6       	in	r0, 0x3f	; 63
    1492:	f8 94       	cli
    1494:	9e bf       	out	0x3e, r25	; 62
    1496:	0f be       	out	0x3f, r0	; 63
    1498:	8d bf       	out	0x3d, r24	; 61
    149a:	27 96       	adiw	r28, 0x07	; 7
    149c:	0f b6       	in	r0, 0x3f	; 63
    149e:	f8 94       	cli
    14a0:	de bf       	out	0x3e, r29	; 62
    14a2:	0f be       	out	0x3f, r0	; 63
    14a4:	cd bf       	out	0x3d, r28	; 61
    14a6:	cf 91       	pop	r28
    14a8:	df 91       	pop	r29
    14aa:	1f 91       	pop	r17
    14ac:	0f 91       	pop	r16
    14ae:	08 95       	ret

000014b0 <phwert_to_string>:
    14b0:	c2 96       	adiw	r24, 0x32	; 50
    14b2:	2d b7       	in	r18, 0x3d	; 61
    14b4:	3e b7       	in	r19, 0x3e	; 62
    14b6:	28 50       	subi	r18, 0x08	; 8
    14b8:	30 40       	sbci	r19, 0x00	; 0
    14ba:	0f b6       	in	r0, 0x3f	; 63
    14bc:	f8 94       	cli
    14be:	3e bf       	out	0x3e, r19	; 62
    14c0:	0f be       	out	0x3f, r0	; 63
    14c2:	2d bf       	out	0x3d, r18	; 61
    14c4:	ed b7       	in	r30, 0x3d	; 61
    14c6:	fe b7       	in	r31, 0x3e	; 62
    14c8:	31 96       	adiw	r30, 0x01	; 1
    14ca:	ad b7       	in	r26, 0x3d	; 61
    14cc:	be b7       	in	r27, 0x3e	; 62
    14ce:	12 96       	adiw	r26, 0x02	; 2
    14d0:	7c 93       	st	X, r23
    14d2:	6e 93       	st	-X, r22
    14d4:	11 97       	sbiw	r26, 0x01	; 1
    14d6:	27 e3       	ldi	r18, 0x37	; 55
    14d8:	32 e0       	ldi	r19, 0x02	; 2
    14da:	33 83       	std	Z+3, r19	; 0x03
    14dc:	22 83       	std	Z+2, r18	; 0x02
    14de:	68 ee       	ldi	r22, 0xE8	; 232
    14e0:	73 e0       	ldi	r23, 0x03	; 3
    14e2:	0e 94 61 1d 	call	0x3ac2	; 0x3ac2 <__udivmodhi4>
    14e6:	75 83       	std	Z+5, r23	; 0x05
    14e8:	64 83       	std	Z+4, r22	; 0x04
    14ea:	64 e6       	ldi	r22, 0x64	; 100
    14ec:	70 e0       	ldi	r23, 0x00	; 0
    14ee:	0e 94 61 1d 	call	0x3ac2	; 0x3ac2 <__udivmodhi4>
    14f2:	77 83       	std	Z+7, r23	; 0x07
    14f4:	66 83       	std	Z+6, r22	; 0x06
    14f6:	0e 94 de 1d 	call	0x3bbc	; 0x3bbc <sprintf>
    14fa:	2d b7       	in	r18, 0x3d	; 61
    14fc:	3e b7       	in	r19, 0x3e	; 62
    14fe:	28 5f       	subi	r18, 0xF8	; 248
    1500:	3f 4f       	sbci	r19, 0xFF	; 255
    1502:	0f b6       	in	r0, 0x3f	; 63
    1504:	f8 94       	cli
    1506:	3e bf       	out	0x3e, r19	; 62
    1508:	0f be       	out	0x3f, r0	; 63
    150a:	2d bf       	out	0x3d, r18	; 61
    150c:	08 95       	ret

0000150e <menue_zeiten_einstellen>:
    150e:	6f 92       	push	r6
    1510:	7f 92       	push	r7
    1512:	8f 92       	push	r8
    1514:	9f 92       	push	r9
    1516:	af 92       	push	r10
    1518:	bf 92       	push	r11
    151a:	cf 92       	push	r12
    151c:	df 92       	push	r13
    151e:	ef 92       	push	r14
    1520:	ff 92       	push	r15
    1522:	0f 93       	push	r16
    1524:	1f 93       	push	r17
    1526:	df 93       	push	r29
    1528:	cf 93       	push	r28
    152a:	0f 92       	push	r0
    152c:	cd b7       	in	r28, 0x3d	; 61
    152e:	de b7       	in	r29, 0x3e	; 62
    1530:	3c 01       	movw	r6, r24
    1532:	7b 01       	movw	r14, r22
    1534:	bb 24       	eor	r11, r11
    1536:	91 e0       	ldi	r25, 0x01	; 1
    1538:	0b e2       	ldi	r16, 0x2B	; 43
    153a:	14 e0       	ldi	r17, 0x04	; 4
    153c:	49 e1       	ldi	r20, 0x19	; 25
    153e:	c4 2e       	mov	r12, r20
    1540:	42 e0       	ldi	r20, 0x02	; 2
    1542:	d4 2e       	mov	r13, r20
    1544:	3b e3       	ldi	r19, 0x3B	; 59
    1546:	a3 2e       	mov	r10, r19
    1548:	27 e1       	ldi	r18, 0x17	; 23
    154a:	92 2e       	mov	r9, r18
    154c:	02 c0       	rjmp	.+4      	; 0x1552 <menue_zeiten_einstellen+0x44>
    154e:	bb 24       	eor	r11, r11
    1550:	90 e0       	ldi	r25, 0x00	; 0
    1552:	8f e0       	ldi	r24, 0x0F	; 15
    1554:	99 83       	std	Y+1, r25	; 0x01
    1556:	0e 94 75 06 	call	0xcea	; 0xcea <lcd_command>
    155a:	6b 2d       	mov	r22, r11
    155c:	66 0f       	add	r22, r22
    155e:	6b 0d       	add	r22, r11
    1560:	6e 5f       	subi	r22, 0xFE	; 254
    1562:	83 e0       	ldi	r24, 0x03	; 3
    1564:	0e 94 43 05 	call	0xa86	; 0xa86 <lcd_gotolr>
    1568:	88 e0       	ldi	r24, 0x08	; 8
    156a:	0e 94 9b 1b 	call	0x3736	; 0x3736 <get_key_short>
    156e:	99 81       	ldd	r25, Y+1	; 0x01
    1570:	88 23       	and	r24, r24
    1572:	31 f0       	breq	.+12     	; 0x1580 <menue_zeiten_einstellen+0x72>
    1574:	8b 2d       	mov	r24, r11
    1576:	82 30       	cpi	r24, 0x02	; 2
    1578:	09 f4       	brne	.+2      	; 0x157c <menue_zeiten_einstellen+0x6e>
    157a:	42 c0       	rjmp	.+132    	; 0x1600 <menue_zeiten_einstellen+0xf2>
    157c:	b3 94       	inc	r11
    157e:	44 c0       	rjmp	.+136    	; 0x1608 <menue_zeiten_einstellen+0xfa>
    1580:	82 e0       	ldi	r24, 0x02	; 2
    1582:	99 83       	std	Y+1, r25	; 0x01
    1584:	0e 94 9b 1b 	call	0x3736	; 0x3736 <get_key_short>
    1588:	99 81       	ldd	r25, Y+1	; 0x01
    158a:	88 23       	and	r24, r24
    158c:	21 f0       	breq	.+8      	; 0x1596 <menue_zeiten_einstellen+0x88>
    158e:	bb 20       	and	r11, r11
    1590:	c9 f1       	breq	.+114    	; 0x1604 <menue_zeiten_einstellen+0xf6>
    1592:	ba 94       	dec	r11
    1594:	39 c0       	rjmp	.+114    	; 0x1608 <menue_zeiten_einstellen+0xfa>
    1596:	80 e2       	ldi	r24, 0x20	; 32
    1598:	99 83       	std	Y+1, r25	; 0x01
    159a:	0e 94 85 1b 	call	0x370a	; 0x370a <get_key_press>
    159e:	88 23       	and	r24, r24
    15a0:	09 f0       	breq	.+2      	; 0x15a4 <menue_zeiten_einstellen+0x96>
    15a2:	ef c0       	rjmp	.+478    	; 0x1782 <menue_zeiten_einstellen+0x274>
    15a4:	84 e0       	ldi	r24, 0x04	; 4
    15a6:	0e 94 85 1b 	call	0x370a	; 0x370a <get_key_press>
    15aa:	99 81       	ldd	r25, Y+1	; 0x01
    15ac:	88 23       	and	r24, r24
    15ae:	61 f1       	breq	.+88     	; 0x1608 <menue_zeiten_einstellen+0xfa>
    15b0:	8c e0       	ldi	r24, 0x0C	; 12
    15b2:	0e 94 75 06 	call	0xcea	; 0xcea <lcd_command>
    15b6:	81 e0       	ldi	r24, 0x01	; 1
    15b8:	0e 94 75 06 	call	0xcea	; 0xcea <lcd_command>
    15bc:	e1 14       	cp	r14, r1
    15be:	f1 04       	cpc	r15, r1
    15c0:	49 f0       	breq	.+18     	; 0x15d4 <menue_zeiten_einstellen+0xc6>
    15c2:	f8 94       	cli
    15c4:	c3 01       	movw	r24, r6
    15c6:	b7 01       	movw	r22, r14
    15c8:	47 e0       	ldi	r20, 0x07	; 7
    15ca:	50 e0       	ldi	r21, 0x00	; 0
    15cc:	0e 94 00 20 	call	0x4000	; 0x4000 <__eewr_block_m644p>
    15d0:	78 94       	sei
    15d2:	03 c0       	rjmp	.+6      	; 0x15da <menue_zeiten_einstellen+0xcc>
    15d4:	c3 01       	movw	r24, r6
    15d6:	0e 94 7d 04 	call	0x8fa	; 0x8fa <set_ds1307_zeit>
    15da:	81 e0       	ldi	r24, 0x01	; 1
    15dc:	61 e0       	ldi	r22, 0x01	; 1
    15de:	4e e3       	ldi	r20, 0x3E	; 62
    15e0:	52 e0       	ldi	r21, 0x02	; 2
    15e2:	0e 94 b7 05 	call	0xb6e	; 0xb6e <lcd_printlc>
    15e6:	8f ef       	ldi	r24, 0xFF	; 255
    15e8:	99 e6       	ldi	r25, 0x69	; 105
    15ea:	a8 e1       	ldi	r26, 0x18	; 24
    15ec:	81 50       	subi	r24, 0x01	; 1
    15ee:	90 40       	sbci	r25, 0x00	; 0
    15f0:	a0 40       	sbci	r26, 0x00	; 0
    15f2:	e1 f7       	brne	.-8      	; 0x15ec <menue_zeiten_einstellen+0xde>
    15f4:	00 c0       	rjmp	.+0      	; 0x15f6 <menue_zeiten_einstellen+0xe8>
    15f6:	00 00       	nop
    15f8:	81 e0       	ldi	r24, 0x01	; 1
    15fa:	0e 94 75 06 	call	0xcea	; 0xcea <lcd_command>
    15fe:	c1 c0       	rjmp	.+386    	; 0x1782 <menue_zeiten_einstellen+0x274>
    1600:	bb 24       	eor	r11, r11
    1602:	02 c0       	rjmp	.+4      	; 0x1608 <menue_zeiten_einstellen+0xfa>
    1604:	82 e0       	ldi	r24, 0x02	; 2
    1606:	b8 2e       	mov	r11, r24
    1608:	99 23       	and	r25, r25
    160a:	69 f1       	breq	.+90     	; 0x1666 <menue_zeiten_einstellen+0x158>
    160c:	ad b7       	in	r26, 0x3d	; 61
    160e:	be b7       	in	r27, 0x3e	; 62
    1610:	1a 97       	sbiw	r26, 0x0a	; 10
    1612:	0f b6       	in	r0, 0x3f	; 63
    1614:	f8 94       	cli
    1616:	be bf       	out	0x3e, r27	; 62
    1618:	0f be       	out	0x3f, r0	; 63
    161a:	ad bf       	out	0x3d, r26	; 61
    161c:	ed b7       	in	r30, 0x3d	; 61
    161e:	fe b7       	in	r31, 0x3e	; 62
    1620:	31 96       	adiw	r30, 0x01	; 1
    1622:	12 96       	adiw	r26, 0x02	; 2
    1624:	1c 93       	st	X, r17
    1626:	0e 93       	st	-X, r16
    1628:	11 97       	sbiw	r26, 0x01	; 1
    162a:	d3 82       	std	Z+3, r13	; 0x03
    162c:	c2 82       	std	Z+2, r12	; 0x02
    162e:	d3 01       	movw	r26, r6
    1630:	12 96       	adiw	r26, 0x02	; 2
    1632:	8c 91       	ld	r24, X
    1634:	12 97       	sbiw	r26, 0x02	; 2
    1636:	84 83       	std	Z+4, r24	; 0x04
    1638:	15 82       	std	Z+5, r1	; 0x05
    163a:	8c 91       	ld	r24, X
    163c:	86 83       	std	Z+6, r24	; 0x06
    163e:	17 82       	std	Z+7, r1	; 0x07
    1640:	11 96       	adiw	r26, 0x01	; 1
    1642:	8c 91       	ld	r24, X
    1644:	80 87       	std	Z+8, r24	; 0x08
    1646:	11 86       	std	Z+9, r1	; 0x09
    1648:	0e 94 de 1d 	call	0x3bbc	; 0x3bbc <sprintf>
    164c:	ed b7       	in	r30, 0x3d	; 61
    164e:	fe b7       	in	r31, 0x3e	; 62
    1650:	3a 96       	adiw	r30, 0x0a	; 10
    1652:	0f b6       	in	r0, 0x3f	; 63
    1654:	f8 94       	cli
    1656:	fe bf       	out	0x3e, r31	; 62
    1658:	0f be       	out	0x3f, r0	; 63
    165a:	ed bf       	out	0x3d, r30	; 61
    165c:	83 e0       	ldi	r24, 0x03	; 3
    165e:	61 e0       	ldi	r22, 0x01	; 1
    1660:	a8 01       	movw	r20, r16
    1662:	0e 94 6a 05 	call	0xad4	; 0xad4 <lcd_printlr>
    1666:	fb 2d       	mov	r31, r11
    1668:	f1 30       	cpi	r31, 0x01	; 1
    166a:	89 f1       	breq	.+98     	; 0x16ce <menue_zeiten_einstellen+0x1c0>
    166c:	f2 30       	cpi	r31, 0x02	; 2
    166e:	09 f4       	brne	.+2      	; 0x1672 <menue_zeiten_einstellen+0x164>
    1670:	53 c0       	rjmp	.+166    	; 0x1718 <menue_zeiten_einstellen+0x20a>
    1672:	81 e0       	ldi	r24, 0x01	; 1
    1674:	0e 94 85 1b 	call	0x370a	; 0x370a <get_key_press>
    1678:	b8 2e       	mov	r11, r24
    167a:	81 e0       	ldi	r24, 0x01	; 1
    167c:	0e 94 90 1b 	call	0x3720	; 0x3720 <get_key_rpt>
    1680:	8b 29       	or	r24, r11
    1682:	61 f0       	breq	.+24     	; 0x169c <menue_zeiten_einstellen+0x18e>
    1684:	d3 01       	movw	r26, r6
    1686:	12 96       	adiw	r26, 0x02	; 2
    1688:	8c 91       	ld	r24, X
    168a:	12 97       	sbiw	r26, 0x02	; 2
    168c:	87 31       	cpi	r24, 0x17	; 23
    168e:	21 f4       	brne	.+8      	; 0x1698 <menue_zeiten_einstellen+0x18a>
    1690:	12 96       	adiw	r26, 0x02	; 2
    1692:	1c 92       	st	X, r1
    1694:	12 97       	sbiw	r26, 0x02	; 2
    1696:	19 c0       	rjmp	.+50     	; 0x16ca <menue_zeiten_einstellen+0x1bc>
    1698:	8f 5f       	subi	r24, 0xFF	; 255
    169a:	15 c0       	rjmp	.+42     	; 0x16c6 <menue_zeiten_einstellen+0x1b8>
    169c:	80 e1       	ldi	r24, 0x10	; 16
    169e:	0e 94 85 1b 	call	0x370a	; 0x370a <get_key_press>
    16a2:	b8 2e       	mov	r11, r24
    16a4:	80 e1       	ldi	r24, 0x10	; 16
    16a6:	0e 94 90 1b 	call	0x3720	; 0x3720 <get_key_rpt>
    16aa:	8b 29       	or	r24, r11
    16ac:	09 f4       	brne	.+2      	; 0x16b0 <menue_zeiten_einstellen+0x1a2>
    16ae:	4f cf       	rjmp	.-354    	; 0x154e <menue_zeiten_einstellen+0x40>
    16b0:	d3 01       	movw	r26, r6
    16b2:	12 96       	adiw	r26, 0x02	; 2
    16b4:	8c 91       	ld	r24, X
    16b6:	12 97       	sbiw	r26, 0x02	; 2
    16b8:	88 23       	and	r24, r24
    16ba:	21 f4       	brne	.+8      	; 0x16c4 <menue_zeiten_einstellen+0x1b6>
    16bc:	12 96       	adiw	r26, 0x02	; 2
    16be:	9c 92       	st	X, r9
    16c0:	12 97       	sbiw	r26, 0x02	; 2
    16c2:	03 c0       	rjmp	.+6      	; 0x16ca <menue_zeiten_einstellen+0x1bc>
    16c4:	81 50       	subi	r24, 0x01	; 1
    16c6:	f3 01       	movw	r30, r6
    16c8:	82 83       	std	Z+2, r24	; 0x02
    16ca:	bb 24       	eor	r11, r11
    16cc:	58 c0       	rjmp	.+176    	; 0x177e <menue_zeiten_einstellen+0x270>
    16ce:	81 e0       	ldi	r24, 0x01	; 1
    16d0:	0e 94 85 1b 	call	0x370a	; 0x370a <get_key_press>
    16d4:	88 2e       	mov	r8, r24
    16d6:	81 e0       	ldi	r24, 0x01	; 1
    16d8:	0e 94 90 1b 	call	0x3720	; 0x3720 <get_key_rpt>
    16dc:	88 29       	or	r24, r8
    16de:	41 f0       	breq	.+16     	; 0x16f0 <menue_zeiten_einstellen+0x1e2>
    16e0:	d3 01       	movw	r26, r6
    16e2:	8c 91       	ld	r24, X
    16e4:	8b 33       	cpi	r24, 0x3B	; 59
    16e6:	11 f4       	brne	.+4      	; 0x16ec <menue_zeiten_einstellen+0x1de>
    16e8:	1c 92       	st	X, r1
    16ea:	49 c0       	rjmp	.+146    	; 0x177e <menue_zeiten_einstellen+0x270>
    16ec:	8f 5f       	subi	r24, 0xFF	; 255
    16ee:	11 c0       	rjmp	.+34     	; 0x1712 <menue_zeiten_einstellen+0x204>
    16f0:	80 e1       	ldi	r24, 0x10	; 16
    16f2:	0e 94 85 1b 	call	0x370a	; 0x370a <get_key_press>
    16f6:	88 2e       	mov	r8, r24
    16f8:	80 e1       	ldi	r24, 0x10	; 16
    16fa:	0e 94 90 1b 	call	0x3720	; 0x3720 <get_key_rpt>
    16fe:	88 29       	or	r24, r8
    1700:	09 f4       	brne	.+2      	; 0x1704 <menue_zeiten_einstellen+0x1f6>
    1702:	26 cf       	rjmp	.-436    	; 0x1550 <menue_zeiten_einstellen+0x42>
    1704:	d3 01       	movw	r26, r6
    1706:	8c 91       	ld	r24, X
    1708:	88 23       	and	r24, r24
    170a:	11 f4       	brne	.+4      	; 0x1710 <menue_zeiten_einstellen+0x202>
    170c:	ac 92       	st	X, r10
    170e:	37 c0       	rjmp	.+110    	; 0x177e <menue_zeiten_einstellen+0x270>
    1710:	81 50       	subi	r24, 0x01	; 1
    1712:	f3 01       	movw	r30, r6
    1714:	80 83       	st	Z, r24
    1716:	33 c0       	rjmp	.+102    	; 0x177e <menue_zeiten_einstellen+0x270>
    1718:	81 e0       	ldi	r24, 0x01	; 1
    171a:	0e 94 85 1b 	call	0x370a	; 0x370a <get_key_press>
    171e:	88 2e       	mov	r8, r24
    1720:	81 e0       	ldi	r24, 0x01	; 1
    1722:	0e 94 90 1b 	call	0x3720	; 0x3720 <get_key_rpt>
    1726:	88 29       	or	r24, r8
    1728:	79 f0       	breq	.+30     	; 0x1748 <menue_zeiten_einstellen+0x23a>
    172a:	d3 01       	movw	r26, r6
    172c:	11 96       	adiw	r26, 0x01	; 1
    172e:	8c 91       	ld	r24, X
    1730:	11 97       	sbiw	r26, 0x01	; 1
    1732:	8b 33       	cpi	r24, 0x3B	; 59
    1734:	21 f4       	brne	.+8      	; 0x173e <menue_zeiten_einstellen+0x230>
    1736:	11 96       	adiw	r26, 0x01	; 1
    1738:	1c 92       	st	X, r1
    173a:	11 97       	sbiw	r26, 0x01	; 1
    173c:	03 c0       	rjmp	.+6      	; 0x1744 <menue_zeiten_einstellen+0x236>
    173e:	8f 5f       	subi	r24, 0xFF	; 255
    1740:	f3 01       	movw	r30, r6
    1742:	81 83       	std	Z+1, r24	; 0x01
    1744:	91 e0       	ldi	r25, 0x01	; 1
    1746:	01 c0       	rjmp	.+2      	; 0x174a <menue_zeiten_einstellen+0x23c>
    1748:	90 e0       	ldi	r25, 0x00	; 0
    174a:	80 e1       	ldi	r24, 0x10	; 16
    174c:	99 83       	std	Y+1, r25	; 0x01
    174e:	0e 94 85 1b 	call	0x370a	; 0x370a <get_key_press>
    1752:	88 2e       	mov	r8, r24
    1754:	80 e1       	ldi	r24, 0x10	; 16
    1756:	0e 94 90 1b 	call	0x3720	; 0x3720 <get_key_rpt>
    175a:	88 29       	or	r24, r8
    175c:	99 81       	ldd	r25, Y+1	; 0x01
    175e:	88 23       	and	r24, r24
    1760:	09 f4       	brne	.+2      	; 0x1764 <menue_zeiten_einstellen+0x256>
    1762:	f7 ce       	rjmp	.-530    	; 0x1552 <menue_zeiten_einstellen+0x44>
    1764:	d3 01       	movw	r26, r6
    1766:	11 96       	adiw	r26, 0x01	; 1
    1768:	8c 91       	ld	r24, X
    176a:	11 97       	sbiw	r26, 0x01	; 1
    176c:	88 23       	and	r24, r24
    176e:	21 f4       	brne	.+8      	; 0x1778 <menue_zeiten_einstellen+0x26a>
    1770:	11 96       	adiw	r26, 0x01	; 1
    1772:	ac 92       	st	X, r10
    1774:	11 97       	sbiw	r26, 0x01	; 1
    1776:	03 c0       	rjmp	.+6      	; 0x177e <menue_zeiten_einstellen+0x270>
    1778:	81 50       	subi	r24, 0x01	; 1
    177a:	f3 01       	movw	r30, r6
    177c:	81 83       	std	Z+1, r24	; 0x01
    177e:	91 e0       	ldi	r25, 0x01	; 1
    1780:	e8 ce       	rjmp	.-560    	; 0x1552 <menue_zeiten_einstellen+0x44>
    1782:	81 e0       	ldi	r24, 0x01	; 1
    1784:	0e 94 75 06 	call	0xcea	; 0xcea <lcd_command>
    1788:	0f 90       	pop	r0
    178a:	cf 91       	pop	r28
    178c:	df 91       	pop	r29
    178e:	1f 91       	pop	r17
    1790:	0f 91       	pop	r16
    1792:	ff 90       	pop	r15
    1794:	ef 90       	pop	r14
    1796:	df 90       	pop	r13
    1798:	cf 90       	pop	r12
    179a:	bf 90       	pop	r11
    179c:	af 90       	pop	r10
    179e:	9f 90       	pop	r9
    17a0:	8f 90       	pop	r8
    17a2:	7f 90       	pop	r7
    17a4:	6f 90       	pop	r6
    17a6:	08 95       	ret

000017a8 <menue_datum_einstellen>:
    17a8:	6f 92       	push	r6
    17aa:	7f 92       	push	r7
    17ac:	8f 92       	push	r8
    17ae:	9f 92       	push	r9
    17b0:	af 92       	push	r10
    17b2:	bf 92       	push	r11
    17b4:	cf 92       	push	r12
    17b6:	df 92       	push	r13
    17b8:	ef 92       	push	r14
    17ba:	ff 92       	push	r15
    17bc:	0f 93       	push	r16
    17be:	1f 93       	push	r17
    17c0:	df 93       	push	r29
    17c2:	cf 93       	push	r28
    17c4:	0f 92       	push	r0
    17c6:	cd b7       	in	r28, 0x3d	; 61
    17c8:	de b7       	in	r29, 0x3e	; 62
    17ca:	3c 01       	movw	r6, r24
    17cc:	8f e0       	ldi	r24, 0x0F	; 15
    17ce:	0e 94 75 06 	call	0xcea	; 0xcea <lcd_command>
    17d2:	dd 24       	eor	r13, r13
    17d4:	91 e0       	ldi	r25, 0x01	; 1
    17d6:	0b e2       	ldi	r16, 0x2B	; 43
    17d8:	14 e0       	ldi	r17, 0x04	; 4
    17da:	a8 e2       	ldi	r26, 0x28	; 40
    17dc:	ea 2e       	mov	r14, r26
    17de:	a2 e0       	ldi	r26, 0x02	; 2
    17e0:	fa 2e       	mov	r15, r26
    17e2:	fc e0       	ldi	r31, 0x0C	; 12
    17e4:	cf 2e       	mov	r12, r31
    17e6:	e3 e6       	ldi	r30, 0x63	; 99
    17e8:	be 2e       	mov	r11, r30
    17ea:	7f e1       	ldi	r23, 0x1F	; 31
    17ec:	a7 2e       	mov	r10, r23
    17ee:	67 e0       	ldi	r22, 0x07	; 7
    17f0:	96 2e       	mov	r9, r22
    17f2:	02 c0       	rjmp	.+4      	; 0x17f8 <menue_datum_einstellen+0x50>
    17f4:	dd 24       	eor	r13, r13
    17f6:	90 e0       	ldi	r25, 0x00	; 0
    17f8:	6d 2d       	mov	r22, r13
    17fa:	66 0f       	add	r22, r22
    17fc:	6d 0d       	add	r22, r13
    17fe:	6e 5f       	subi	r22, 0xFE	; 254
    1800:	83 e0       	ldi	r24, 0x03	; 3
    1802:	99 83       	std	Y+1, r25	; 0x01
    1804:	0e 94 43 05 	call	0xa86	; 0xa86 <lcd_gotolr>
    1808:	88 e0       	ldi	r24, 0x08	; 8
    180a:	0e 94 9b 1b 	call	0x3736	; 0x3736 <get_key_short>
    180e:	99 81       	ldd	r25, Y+1	; 0x01
    1810:	88 23       	and	r24, r24
    1812:	29 f0       	breq	.+10     	; 0x181e <menue_datum_einstellen+0x76>
    1814:	8d 2d       	mov	r24, r13
    1816:	83 30       	cpi	r24, 0x03	; 3
    1818:	b1 f1       	breq	.+108    	; 0x1886 <menue_datum_einstellen+0xde>
    181a:	d3 94       	inc	r13
    181c:	38 c0       	rjmp	.+112    	; 0x188e <menue_datum_einstellen+0xe6>
    181e:	82 e0       	ldi	r24, 0x02	; 2
    1820:	99 83       	std	Y+1, r25	; 0x01
    1822:	0e 94 9b 1b 	call	0x3736	; 0x3736 <get_key_short>
    1826:	99 81       	ldd	r25, Y+1	; 0x01
    1828:	88 23       	and	r24, r24
    182a:	21 f0       	breq	.+8      	; 0x1834 <menue_datum_einstellen+0x8c>
    182c:	dd 20       	and	r13, r13
    182e:	69 f1       	breq	.+90     	; 0x188a <menue_datum_einstellen+0xe2>
    1830:	da 94       	dec	r13
    1832:	2d c0       	rjmp	.+90     	; 0x188e <menue_datum_einstellen+0xe6>
    1834:	80 e2       	ldi	r24, 0x20	; 32
    1836:	99 83       	std	Y+1, r25	; 0x01
    1838:	0e 94 85 1b 	call	0x370a	; 0x370a <get_key_press>
    183c:	88 23       	and	r24, r24
    183e:	09 f0       	breq	.+2      	; 0x1842 <menue_datum_einstellen+0x9a>
    1840:	40 c1       	rjmp	.+640    	; 0x1ac2 <menue_datum_einstellen+0x31a>
    1842:	84 e0       	ldi	r24, 0x04	; 4
    1844:	0e 94 85 1b 	call	0x370a	; 0x370a <get_key_press>
    1848:	99 81       	ldd	r25, Y+1	; 0x01
    184a:	88 23       	and	r24, r24
    184c:	01 f1       	breq	.+64     	; 0x188e <menue_datum_einstellen+0xe6>
    184e:	8c e0       	ldi	r24, 0x0C	; 12
    1850:	0e 94 75 06 	call	0xcea	; 0xcea <lcd_command>
    1854:	81 e0       	ldi	r24, 0x01	; 1
    1856:	0e 94 75 06 	call	0xcea	; 0xcea <lcd_command>
    185a:	c3 01       	movw	r24, r6
    185c:	0e 94 b1 04 	call	0x962	; 0x962 <set_ds1307_datum>
    1860:	81 e0       	ldi	r24, 0x01	; 1
    1862:	61 e0       	ldi	r22, 0x01	; 1
    1864:	4e e3       	ldi	r20, 0x3E	; 62
    1866:	52 e0       	ldi	r21, 0x02	; 2
    1868:	0e 94 b7 05 	call	0xb6e	; 0xb6e <lcd_printlc>
    186c:	8f ef       	ldi	r24, 0xFF	; 255
    186e:	99 e6       	ldi	r25, 0x69	; 105
    1870:	a8 e1       	ldi	r26, 0x18	; 24
    1872:	81 50       	subi	r24, 0x01	; 1
    1874:	90 40       	sbci	r25, 0x00	; 0
    1876:	a0 40       	sbci	r26, 0x00	; 0
    1878:	e1 f7       	brne	.-8      	; 0x1872 <menue_datum_einstellen+0xca>
    187a:	00 c0       	rjmp	.+0      	; 0x187c <menue_datum_einstellen+0xd4>
    187c:	00 00       	nop
    187e:	81 e0       	ldi	r24, 0x01	; 1
    1880:	0e 94 75 06 	call	0xcea	; 0xcea <lcd_command>
    1884:	1e c1       	rjmp	.+572    	; 0x1ac2 <menue_datum_einstellen+0x31a>
    1886:	dd 24       	eor	r13, r13
    1888:	02 c0       	rjmp	.+4      	; 0x188e <menue_datum_einstellen+0xe6>
    188a:	53 e0       	ldi	r21, 0x03	; 3
    188c:	d5 2e       	mov	r13, r21
    188e:	99 23       	and	r25, r25
    1890:	09 f4       	brne	.+2      	; 0x1894 <menue_datum_einstellen+0xec>
    1892:	48 c0       	rjmp	.+144    	; 0x1924 <menue_datum_einstellen+0x17c>
    1894:	d3 01       	movw	r26, r6
    1896:	14 96       	adiw	r26, 0x04	; 4
    1898:	6c 91       	ld	r22, X
    189a:	83 e0       	ldi	r24, 0x03	; 3
    189c:	68 9f       	mul	r22, r24
    189e:	b0 01       	movw	r22, r0
    18a0:	11 24       	eor	r1, r1
    18a2:	66 52       	subi	r22, 0x26	; 38
    18a4:	7e 4f       	sbci	r23, 0xFE	; 254
    18a6:	8d ed       	ldi	r24, 0xDD	; 221
    18a8:	93 e0       	ldi	r25, 0x03	; 3
    18aa:	0e 94 b2 1d 	call	0x3b64	; 0x3b64 <strcpy_P>
    18ae:	0e 94 1b 05 	call	0xa36	; 0xa36 <lcd_print>
    18b2:	83 e0       	ldi	r24, 0x03	; 3
    18b4:	61 e0       	ldi	r22, 0x01	; 1
    18b6:	4d ed       	ldi	r20, 0xDD	; 221
    18b8:	53 e0       	ldi	r21, 0x03	; 3
    18ba:	0e 94 6a 05 	call	0xad4	; 0xad4 <lcd_printlr>
    18be:	8e e4       	ldi	r24, 0x4E	; 78
    18c0:	92 e0       	ldi	r25, 0x02	; 2
    18c2:	0e 94 1b 05 	call	0xa36	; 0xa36 <lcd_print>
    18c6:	ed b7       	in	r30, 0x3d	; 61
    18c8:	fe b7       	in	r31, 0x3e	; 62
    18ca:	3a 97       	sbiw	r30, 0x0a	; 10
    18cc:	0f b6       	in	r0, 0x3f	; 63
    18ce:	f8 94       	cli
    18d0:	fe bf       	out	0x3e, r31	; 62
    18d2:	0f be       	out	0x3f, r0	; 63
    18d4:	ed bf       	out	0x3d, r30	; 61
    18d6:	31 96       	adiw	r30, 0x01	; 1
    18d8:	ad b7       	in	r26, 0x3d	; 61
    18da:	be b7       	in	r27, 0x3e	; 62
    18dc:	12 96       	adiw	r26, 0x02	; 2
    18de:	1c 93       	st	X, r17
    18e0:	0e 93       	st	-X, r16
    18e2:	11 97       	sbiw	r26, 0x01	; 1
    18e4:	f3 82       	std	Z+3, r15	; 0x03
    18e6:	e2 82       	std	Z+2, r14	; 0x02
    18e8:	d3 01       	movw	r26, r6
    18ea:	13 96       	adiw	r26, 0x03	; 3
    18ec:	8c 91       	ld	r24, X
    18ee:	13 97       	sbiw	r26, 0x03	; 3
    18f0:	84 83       	std	Z+4, r24	; 0x04
    18f2:	15 82       	std	Z+5, r1	; 0x05
    18f4:	15 96       	adiw	r26, 0x05	; 5
    18f6:	8c 91       	ld	r24, X
    18f8:	15 97       	sbiw	r26, 0x05	; 5
    18fa:	86 83       	std	Z+6, r24	; 0x06
    18fc:	17 82       	std	Z+7, r1	; 0x07
    18fe:	16 96       	adiw	r26, 0x06	; 6
    1900:	8c 91       	ld	r24, X
    1902:	80 87       	std	Z+8, r24	; 0x08
    1904:	11 86       	std	Z+9, r1	; 0x09
    1906:	0e 94 de 1d 	call	0x3bbc	; 0x3bbc <sprintf>
    190a:	ed b7       	in	r30, 0x3d	; 61
    190c:	fe b7       	in	r31, 0x3e	; 62
    190e:	3a 96       	adiw	r30, 0x0a	; 10
    1910:	0f b6       	in	r0, 0x3f	; 63
    1912:	f8 94       	cli
    1914:	fe bf       	out	0x3e, r31	; 62
    1916:	0f be       	out	0x3f, r0	; 63
    1918:	ed bf       	out	0x3d, r30	; 61
    191a:	83 e0       	ldi	r24, 0x03	; 3
    191c:	64 e0       	ldi	r22, 0x04	; 4
    191e:	a8 01       	movw	r20, r16
    1920:	0e 94 6a 05 	call	0xad4	; 0xad4 <lcd_printlr>
    1924:	fd 2d       	mov	r31, r13
    1926:	f2 30       	cpi	r31, 0x02	; 2
    1928:	09 f4       	brne	.+2      	; 0x192c <menue_datum_einstellen+0x184>
    192a:	61 c0       	rjmp	.+194    	; 0x19ee <menue_datum_einstellen+0x246>
    192c:	f3 30       	cpi	r31, 0x03	; 3
    192e:	09 f4       	brne	.+2      	; 0x1932 <menue_datum_einstellen+0x18a>
    1930:	93 c0       	rjmp	.+294    	; 0x1a58 <menue_datum_einstellen+0x2b0>
    1932:	f1 30       	cpi	r31, 0x01	; 1
    1934:	79 f1       	breq	.+94     	; 0x1994 <menue_datum_einstellen+0x1ec>
    1936:	81 e0       	ldi	r24, 0x01	; 1
    1938:	0e 94 85 1b 	call	0x370a	; 0x370a <get_key_press>
    193c:	d8 2e       	mov	r13, r24
    193e:	81 e0       	ldi	r24, 0x01	; 1
    1940:	0e 94 90 1b 	call	0x3720	; 0x3720 <get_key_rpt>
    1944:	8d 29       	or	r24, r13
    1946:	69 f0       	breq	.+26     	; 0x1962 <menue_datum_einstellen+0x1ba>
    1948:	d3 01       	movw	r26, r6
    194a:	14 96       	adiw	r26, 0x04	; 4
    194c:	8c 91       	ld	r24, X
    194e:	14 97       	sbiw	r26, 0x04	; 4
    1950:	87 30       	cpi	r24, 0x07	; 7
    1952:	29 f4       	brne	.+10     	; 0x195e <menue_datum_einstellen+0x1b6>
    1954:	81 e0       	ldi	r24, 0x01	; 1
    1956:	14 96       	adiw	r26, 0x04	; 4
    1958:	8c 93       	st	X, r24
    195a:	14 97       	sbiw	r26, 0x04	; 4
    195c:	19 c0       	rjmp	.+50     	; 0x1990 <menue_datum_einstellen+0x1e8>
    195e:	8f 5f       	subi	r24, 0xFF	; 255
    1960:	15 c0       	rjmp	.+42     	; 0x198c <menue_datum_einstellen+0x1e4>
    1962:	80 e1       	ldi	r24, 0x10	; 16
    1964:	0e 94 85 1b 	call	0x370a	; 0x370a <get_key_press>
    1968:	d8 2e       	mov	r13, r24
    196a:	80 e1       	ldi	r24, 0x10	; 16
    196c:	0e 94 90 1b 	call	0x3720	; 0x3720 <get_key_rpt>
    1970:	8d 29       	or	r24, r13
    1972:	09 f4       	brne	.+2      	; 0x1976 <menue_datum_einstellen+0x1ce>
    1974:	3f cf       	rjmp	.-386    	; 0x17f4 <menue_datum_einstellen+0x4c>
    1976:	d3 01       	movw	r26, r6
    1978:	14 96       	adiw	r26, 0x04	; 4
    197a:	8c 91       	ld	r24, X
    197c:	14 97       	sbiw	r26, 0x04	; 4
    197e:	81 30       	cpi	r24, 0x01	; 1
    1980:	21 f4       	brne	.+8      	; 0x198a <menue_datum_einstellen+0x1e2>
    1982:	14 96       	adiw	r26, 0x04	; 4
    1984:	9c 92       	st	X, r9
    1986:	14 97       	sbiw	r26, 0x04	; 4
    1988:	03 c0       	rjmp	.+6      	; 0x1990 <menue_datum_einstellen+0x1e8>
    198a:	81 50       	subi	r24, 0x01	; 1
    198c:	f3 01       	movw	r30, r6
    198e:	84 83       	std	Z+4, r24	; 0x04
    1990:	dd 24       	eor	r13, r13
    1992:	95 c0       	rjmp	.+298    	; 0x1abe <menue_datum_einstellen+0x316>
    1994:	81 e0       	ldi	r24, 0x01	; 1
    1996:	0e 94 85 1b 	call	0x370a	; 0x370a <get_key_press>
    199a:	88 2e       	mov	r8, r24
    199c:	81 e0       	ldi	r24, 0x01	; 1
    199e:	0e 94 90 1b 	call	0x3720	; 0x3720 <get_key_rpt>
    19a2:	88 29       	or	r24, r8
    19a4:	61 f0       	breq	.+24     	; 0x19be <menue_datum_einstellen+0x216>
    19a6:	d3 01       	movw	r26, r6
    19a8:	13 96       	adiw	r26, 0x03	; 3
    19aa:	8c 91       	ld	r24, X
    19ac:	13 97       	sbiw	r26, 0x03	; 3
    19ae:	8f 31       	cpi	r24, 0x1F	; 31
    19b0:	21 f4       	brne	.+8      	; 0x19ba <menue_datum_einstellen+0x212>
    19b2:	13 96       	adiw	r26, 0x03	; 3
    19b4:	dc 92       	st	X, r13
    19b6:	13 97       	sbiw	r26, 0x03	; 3
    19b8:	82 c0       	rjmp	.+260    	; 0x1abe <menue_datum_einstellen+0x316>
    19ba:	8f 5f       	subi	r24, 0xFF	; 255
    19bc:	15 c0       	rjmp	.+42     	; 0x19e8 <menue_datum_einstellen+0x240>
    19be:	80 e1       	ldi	r24, 0x10	; 16
    19c0:	0e 94 85 1b 	call	0x370a	; 0x370a <get_key_press>
    19c4:	88 2e       	mov	r8, r24
    19c6:	80 e1       	ldi	r24, 0x10	; 16
    19c8:	0e 94 90 1b 	call	0x3720	; 0x3720 <get_key_rpt>
    19cc:	88 29       	or	r24, r8
    19ce:	09 f4       	brne	.+2      	; 0x19d2 <menue_datum_einstellen+0x22a>
    19d0:	12 cf       	rjmp	.-476    	; 0x17f6 <menue_datum_einstellen+0x4e>
    19d2:	d3 01       	movw	r26, r6
    19d4:	13 96       	adiw	r26, 0x03	; 3
    19d6:	8c 91       	ld	r24, X
    19d8:	13 97       	sbiw	r26, 0x03	; 3
    19da:	81 30       	cpi	r24, 0x01	; 1
    19dc:	21 f4       	brne	.+8      	; 0x19e6 <menue_datum_einstellen+0x23e>
    19de:	13 96       	adiw	r26, 0x03	; 3
    19e0:	ac 92       	st	X, r10
    19e2:	13 97       	sbiw	r26, 0x03	; 3
    19e4:	6c c0       	rjmp	.+216    	; 0x1abe <menue_datum_einstellen+0x316>
    19e6:	81 50       	subi	r24, 0x01	; 1
    19e8:	f3 01       	movw	r30, r6
    19ea:	83 83       	std	Z+3, r24	; 0x03
    19ec:	68 c0       	rjmp	.+208    	; 0x1abe <menue_datum_einstellen+0x316>
    19ee:	81 e0       	ldi	r24, 0x01	; 1
    19f0:	0e 94 85 1b 	call	0x370a	; 0x370a <get_key_press>
    19f4:	88 2e       	mov	r8, r24
    19f6:	81 e0       	ldi	r24, 0x01	; 1
    19f8:	0e 94 90 1b 	call	0x3720	; 0x3720 <get_key_rpt>
    19fc:	88 29       	or	r24, r8
    19fe:	81 f0       	breq	.+32     	; 0x1a20 <menue_datum_einstellen+0x278>
    1a00:	d3 01       	movw	r26, r6
    1a02:	15 96       	adiw	r26, 0x05	; 5
    1a04:	8c 91       	ld	r24, X
    1a06:	15 97       	sbiw	r26, 0x05	; 5
    1a08:	8c 30       	cpi	r24, 0x0C	; 12
    1a0a:	29 f4       	brne	.+10     	; 0x1a16 <menue_datum_einstellen+0x26e>
    1a0c:	81 e0       	ldi	r24, 0x01	; 1
    1a0e:	15 96       	adiw	r26, 0x05	; 5
    1a10:	8c 93       	st	X, r24
    1a12:	15 97       	sbiw	r26, 0x05	; 5
    1a14:	03 c0       	rjmp	.+6      	; 0x1a1c <menue_datum_einstellen+0x274>
    1a16:	8f 5f       	subi	r24, 0xFF	; 255
    1a18:	f3 01       	movw	r30, r6
    1a1a:	85 83       	std	Z+5, r24	; 0x05
    1a1c:	91 e0       	ldi	r25, 0x01	; 1
    1a1e:	01 c0       	rjmp	.+2      	; 0x1a22 <menue_datum_einstellen+0x27a>
    1a20:	90 e0       	ldi	r25, 0x00	; 0
    1a22:	80 e1       	ldi	r24, 0x10	; 16
    1a24:	99 83       	std	Y+1, r25	; 0x01
    1a26:	0e 94 85 1b 	call	0x370a	; 0x370a <get_key_press>
    1a2a:	88 2e       	mov	r8, r24
    1a2c:	80 e1       	ldi	r24, 0x10	; 16
    1a2e:	0e 94 90 1b 	call	0x3720	; 0x3720 <get_key_rpt>
    1a32:	88 29       	or	r24, r8
    1a34:	99 81       	ldd	r25, Y+1	; 0x01
    1a36:	88 23       	and	r24, r24
    1a38:	09 f4       	brne	.+2      	; 0x1a3c <menue_datum_einstellen+0x294>
    1a3a:	de ce       	rjmp	.-580    	; 0x17f8 <menue_datum_einstellen+0x50>
    1a3c:	d3 01       	movw	r26, r6
    1a3e:	15 96       	adiw	r26, 0x05	; 5
    1a40:	8c 91       	ld	r24, X
    1a42:	15 97       	sbiw	r26, 0x05	; 5
    1a44:	81 30       	cpi	r24, 0x01	; 1
    1a46:	21 f4       	brne	.+8      	; 0x1a50 <menue_datum_einstellen+0x2a8>
    1a48:	15 96       	adiw	r26, 0x05	; 5
    1a4a:	cc 92       	st	X, r12
    1a4c:	15 97       	sbiw	r26, 0x05	; 5
    1a4e:	37 c0       	rjmp	.+110    	; 0x1abe <menue_datum_einstellen+0x316>
    1a50:	81 50       	subi	r24, 0x01	; 1
    1a52:	f3 01       	movw	r30, r6
    1a54:	85 83       	std	Z+5, r24	; 0x05
    1a56:	33 c0       	rjmp	.+102    	; 0x1abe <menue_datum_einstellen+0x316>
    1a58:	81 e0       	ldi	r24, 0x01	; 1
    1a5a:	0e 94 85 1b 	call	0x370a	; 0x370a <get_key_press>
    1a5e:	88 2e       	mov	r8, r24
    1a60:	81 e0       	ldi	r24, 0x01	; 1
    1a62:	0e 94 90 1b 	call	0x3720	; 0x3720 <get_key_rpt>
    1a66:	88 29       	or	r24, r8
    1a68:	79 f0       	breq	.+30     	; 0x1a88 <menue_datum_einstellen+0x2e0>
    1a6a:	d3 01       	movw	r26, r6
    1a6c:	16 96       	adiw	r26, 0x06	; 6
    1a6e:	8c 91       	ld	r24, X
    1a70:	16 97       	sbiw	r26, 0x06	; 6
    1a72:	83 36       	cpi	r24, 0x63	; 99
    1a74:	21 f4       	brne	.+8      	; 0x1a7e <menue_datum_einstellen+0x2d6>
    1a76:	16 96       	adiw	r26, 0x06	; 6
    1a78:	1c 92       	st	X, r1
    1a7a:	16 97       	sbiw	r26, 0x06	; 6
    1a7c:	03 c0       	rjmp	.+6      	; 0x1a84 <menue_datum_einstellen+0x2dc>
    1a7e:	8f 5f       	subi	r24, 0xFF	; 255
    1a80:	f3 01       	movw	r30, r6
    1a82:	86 83       	std	Z+6, r24	; 0x06
    1a84:	91 e0       	ldi	r25, 0x01	; 1
    1a86:	01 c0       	rjmp	.+2      	; 0x1a8a <menue_datum_einstellen+0x2e2>
    1a88:	90 e0       	ldi	r25, 0x00	; 0
    1a8a:	80 e1       	ldi	r24, 0x10	; 16
    1a8c:	99 83       	std	Y+1, r25	; 0x01
    1a8e:	0e 94 85 1b 	call	0x370a	; 0x370a <get_key_press>
    1a92:	88 2e       	mov	r8, r24
    1a94:	80 e1       	ldi	r24, 0x10	; 16
    1a96:	0e 94 90 1b 	call	0x3720	; 0x3720 <get_key_rpt>
    1a9a:	88 29       	or	r24, r8
    1a9c:	99 81       	ldd	r25, Y+1	; 0x01
    1a9e:	88 23       	and	r24, r24
    1aa0:	09 f4       	brne	.+2      	; 0x1aa4 <menue_datum_einstellen+0x2fc>
    1aa2:	aa ce       	rjmp	.-684    	; 0x17f8 <menue_datum_einstellen+0x50>
    1aa4:	d3 01       	movw	r26, r6
    1aa6:	16 96       	adiw	r26, 0x06	; 6
    1aa8:	8c 91       	ld	r24, X
    1aaa:	16 97       	sbiw	r26, 0x06	; 6
    1aac:	88 23       	and	r24, r24
    1aae:	21 f4       	brne	.+8      	; 0x1ab8 <menue_datum_einstellen+0x310>
    1ab0:	16 96       	adiw	r26, 0x06	; 6
    1ab2:	bc 92       	st	X, r11
    1ab4:	16 97       	sbiw	r26, 0x06	; 6
    1ab6:	03 c0       	rjmp	.+6      	; 0x1abe <menue_datum_einstellen+0x316>
    1ab8:	81 50       	subi	r24, 0x01	; 1
    1aba:	f3 01       	movw	r30, r6
    1abc:	86 83       	std	Z+6, r24	; 0x06
    1abe:	91 e0       	ldi	r25, 0x01	; 1
    1ac0:	9b ce       	rjmp	.-714    	; 0x17f8 <menue_datum_einstellen+0x50>
    1ac2:	81 e0       	ldi	r24, 0x01	; 1
    1ac4:	0e 94 75 06 	call	0xcea	; 0xcea <lcd_command>
    1ac8:	0f 90       	pop	r0
    1aca:	cf 91       	pop	r28
    1acc:	df 91       	pop	r29
    1ace:	1f 91       	pop	r17
    1ad0:	0f 91       	pop	r16
    1ad2:	ff 90       	pop	r15
    1ad4:	ef 90       	pop	r14
    1ad6:	df 90       	pop	r13
    1ad8:	cf 90       	pop	r12
    1ada:	bf 90       	pop	r11
    1adc:	af 90       	pop	r10
    1ade:	9f 90       	pop	r9
    1ae0:	8f 90       	pop	r8
    1ae2:	7f 90       	pop	r7
    1ae4:	6f 90       	pop	r6
    1ae6:	08 95       	ret

00001ae8 <menue_temperatur_offset>:
    1ae8:	ff 92       	push	r15
    1aea:	0f 93       	push	r16
    1aec:	1f 93       	push	r17
    1aee:	cf 93       	push	r28
    1af0:	df 93       	push	r29
    1af2:	ec 01       	movw	r28, r24
    1af4:	f8 80       	ld	r15, Y
    1af6:	81 e0       	ldi	r24, 0x01	; 1
    1af8:	61 e0       	ldi	r22, 0x01	; 1
    1afa:	40 e5       	ldi	r20, 0x50	; 80
    1afc:	52 e0       	ldi	r21, 0x02	; 2
    1afe:	0e 94 b7 05 	call	0xb6e	; 0xb6e <lcd_printlc>
    1b02:	80 e9       	ldi	r24, 0x90	; 144
    1b04:	0e 94 a0 08 	call	0x1140	; 0x1140 <get_lm76_temperatur>
    1b08:	8c 01       	movw	r16, r24
    1b0a:	6b e2       	ldi	r22, 0x2B	; 43
    1b0c:	74 e0       	ldi	r23, 0x04	; 4
    1b0e:	0e 94 45 09 	call	0x128a	; 0x128a <temperatur_to_string>
    1b12:	82 e0       	ldi	r24, 0x02	; 2
    1b14:	61 e0       	ldi	r22, 0x01	; 1
    1b16:	43 e6       	ldi	r20, 0x63	; 99
    1b18:	52 e0       	ldi	r21, 0x02	; 2
    1b1a:	0e 94 b7 05 	call	0xb6e	; 0xb6e <lcd_printlc>
    1b1e:	8b e2       	ldi	r24, 0x2B	; 43
    1b20:	94 e0       	ldi	r25, 0x04	; 4
    1b22:	0e 94 1b 05 	call	0xa36	; 0xa36 <lcd_print>
    1b26:	83 e0       	ldi	r24, 0x03	; 3
    1b28:	61 e0       	ldi	r22, 0x01	; 1
    1b2a:	40 e7       	ldi	r20, 0x70	; 112
    1b2c:	52 e0       	ldi	r21, 0x02	; 2
    1b2e:	0e 94 b7 05 	call	0xb6e	; 0xb6e <lcd_printlc>
    1b32:	88 81       	ld	r24, Y
    1b34:	99 27       	eor	r25, r25
    1b36:	87 fd       	sbrc	r24, 7
    1b38:	90 95       	com	r25
    1b3a:	80 0f       	add	r24, r16
    1b3c:	91 1f       	adc	r25, r17
    1b3e:	6b e2       	ldi	r22, 0x2B	; 43
    1b40:	74 e0       	ldi	r23, 0x04	; 4
    1b42:	0e 94 45 09 	call	0x128a	; 0x128a <temperatur_to_string>
    1b46:	8b e2       	ldi	r24, 0x2B	; 43
    1b48:	94 e0       	ldi	r25, 0x04	; 4
    1b4a:	0e 94 1b 05 	call	0xa36	; 0xa36 <lcd_print>
    1b4e:	88 81       	ld	r24, Y
    1b50:	99 27       	eor	r25, r25
    1b52:	87 fd       	sbrc	r24, 7
    1b54:	90 95       	com	r25
    1b56:	6b e2       	ldi	r22, 0x2B	; 43
    1b58:	74 e0       	ldi	r23, 0x04	; 4
    1b5a:	0e 94 45 09 	call	0x128a	; 0x128a <temperatur_to_string>
    1b5e:	84 e0       	ldi	r24, 0x04	; 4
    1b60:	61 e0       	ldi	r22, 0x01	; 1
    1b62:	4e e7       	ldi	r20, 0x7E	; 126
    1b64:	52 e0       	ldi	r21, 0x02	; 2
    1b66:	0e 94 b7 05 	call	0xb6e	; 0xb6e <lcd_printlc>
    1b6a:	8b e2       	ldi	r24, 0x2B	; 43
    1b6c:	94 e0       	ldi	r25, 0x04	; 4
    1b6e:	0e 94 1b 05 	call	0xa36	; 0xa36 <lcd_print>
    1b72:	8b e8       	ldi	r24, 0x8B	; 139
    1b74:	92 e0       	ldi	r25, 0x02	; 2
    1b76:	0e 94 1b 05 	call	0xa36	; 0xa36 <lcd_print>
    1b7a:	81 e0       	ldi	r24, 0x01	; 1
    1b7c:	0e 94 85 1b 	call	0x370a	; 0x370a <get_key_press>
    1b80:	08 2f       	mov	r16, r24
    1b82:	81 e0       	ldi	r24, 0x01	; 1
    1b84:	0e 94 90 1b 	call	0x3720	; 0x3720 <get_key_rpt>
    1b88:	80 2b       	or	r24, r16
    1b8a:	19 f0       	breq	.+6      	; 0x1b92 <menue_temperatur_offset+0xaa>
    1b8c:	88 81       	ld	r24, Y
    1b8e:	8e 5f       	subi	r24, 0xFE	; 254
    1b90:	88 83       	st	Y, r24
    1b92:	80 e1       	ldi	r24, 0x10	; 16
    1b94:	0e 94 85 1b 	call	0x370a	; 0x370a <get_key_press>
    1b98:	08 2f       	mov	r16, r24
    1b9a:	80 e1       	ldi	r24, 0x10	; 16
    1b9c:	0e 94 90 1b 	call	0x3720	; 0x3720 <get_key_rpt>
    1ba0:	80 2b       	or	r24, r16
    1ba2:	19 f0       	breq	.+6      	; 0x1baa <menue_temperatur_offset+0xc2>
    1ba4:	88 81       	ld	r24, Y
    1ba6:	82 50       	subi	r24, 0x02	; 2
    1ba8:	88 83       	st	Y, r24
    1baa:	84 e0       	ldi	r24, 0x04	; 4
    1bac:	0e 94 85 1b 	call	0x370a	; 0x370a <get_key_press>
    1bb0:	08 2f       	mov	r16, r24
    1bb2:	84 e0       	ldi	r24, 0x04	; 4
    1bb4:	0e 94 90 1b 	call	0x3720	; 0x3720 <get_key_rpt>
    1bb8:	80 2b       	or	r24, r16
    1bba:	e9 f0       	breq	.+58     	; 0x1bf6 <menue_temperatur_offset+0x10e>
    1bbc:	81 e0       	ldi	r24, 0x01	; 1
    1bbe:	0e 94 75 06 	call	0xcea	; 0xcea <lcd_command>
    1bc2:	81 e0       	ldi	r24, 0x01	; 1
    1bc4:	61 e0       	ldi	r22, 0x01	; 1
    1bc6:	4e e3       	ldi	r20, 0x3E	; 62
    1bc8:	52 e0       	ldi	r21, 0x02	; 2
    1bca:	0e 94 b7 05 	call	0xb6e	; 0xb6e <lcd_printlc>
    1bce:	f8 94       	cli
    1bd0:	80 e0       	ldi	r24, 0x00	; 0
    1bd2:	90 e0       	ldi	r25, 0x00	; 0
    1bd4:	68 81       	ld	r22, Y
    1bd6:	0e 94 0a 20 	call	0x4014	; 0x4014 <__eewr_byte_m644p>
    1bda:	78 94       	sei
    1bdc:	8f ef       	ldi	r24, 0xFF	; 255
    1bde:	99 e6       	ldi	r25, 0x69	; 105
    1be0:	a8 e1       	ldi	r26, 0x18	; 24
    1be2:	81 50       	subi	r24, 0x01	; 1
    1be4:	90 40       	sbci	r25, 0x00	; 0
    1be6:	a0 40       	sbci	r26, 0x00	; 0
    1be8:	e1 f7       	brne	.-8      	; 0x1be2 <menue_temperatur_offset+0xfa>
    1bea:	00 c0       	rjmp	.+0      	; 0x1bec <menue_temperatur_offset+0x104>
    1bec:	00 00       	nop
    1bee:	81 e0       	ldi	r24, 0x01	; 1
    1bf0:	0e 94 75 06 	call	0xcea	; 0xcea <lcd_command>
    1bf4:	0b c0       	rjmp	.+22     	; 0x1c0c <menue_temperatur_offset+0x124>
    1bf6:	80 e2       	ldi	r24, 0x20	; 32
    1bf8:	0e 94 85 1b 	call	0x370a	; 0x370a <get_key_press>
    1bfc:	08 2f       	mov	r16, r24
    1bfe:	80 e2       	ldi	r24, 0x20	; 32
    1c00:	0e 94 90 1b 	call	0x3720	; 0x3720 <get_key_rpt>
    1c04:	80 2b       	or	r24, r16
    1c06:	09 f4       	brne	.+2      	; 0x1c0a <menue_temperatur_offset+0x122>
    1c08:	7c cf       	rjmp	.-264    	; 0x1b02 <menue_temperatur_offset+0x1a>
    1c0a:	f8 82       	st	Y, r15
    1c0c:	df 91       	pop	r29
    1c0e:	cf 91       	pop	r28
    1c10:	1f 91       	pop	r17
    1c12:	0f 91       	pop	r16
    1c14:	ff 90       	pop	r15
    1c16:	08 95       	ret

00001c18 <menue_schalttemperaturen_einstellen>:
    1c18:	6f 92       	push	r6
    1c1a:	7f 92       	push	r7
    1c1c:	8f 92       	push	r8
    1c1e:	9f 92       	push	r9
    1c20:	af 92       	push	r10
    1c22:	bf 92       	push	r11
    1c24:	cf 92       	push	r12
    1c26:	df 92       	push	r13
    1c28:	ef 92       	push	r14
    1c2a:	ff 92       	push	r15
    1c2c:	0f 93       	push	r16
    1c2e:	1f 93       	push	r17
    1c30:	df 93       	push	r29
    1c32:	cf 93       	push	r28
    1c34:	cd b7       	in	r28, 0x3d	; 61
    1c36:	de b7       	in	r29, 0x3e	; 62
    1c38:	2e 97       	sbiw	r28, 0x0e	; 14
    1c3a:	0f b6       	in	r0, 0x3f	; 63
    1c3c:	f8 94       	cli
    1c3e:	de bf       	out	0x3e, r29	; 62
    1c40:	0f be       	out	0x3f, r0	; 63
    1c42:	cd bf       	out	0x3d, r28	; 61
    1c44:	3c 01       	movw	r6, r24
    1c46:	6b 01       	movw	r12, r22
    1c48:	5a 01       	movw	r10, r20
    1c4a:	79 01       	movw	r14, r18
    1c4c:	48 01       	movw	r8, r16
    1c4e:	ce 01       	movw	r24, r28
    1c50:	01 96       	adiw	r24, 0x01	; 1
    1c52:	d9 01       	movw	r26, r18
    1c54:	26 e0       	ldi	r18, 0x06	; 6
    1c56:	0d 90       	ld	r0, X+
    1c58:	fc 01       	movw	r30, r24
    1c5a:	01 92       	st	Z+, r0
    1c5c:	cf 01       	movw	r24, r30
    1c5e:	21 50       	subi	r18, 0x01	; 1
    1c60:	d1 f7       	brne	.-12     	; 0x1c56 <menue_schalttemperaturen_einstellen+0x3e>
    1c62:	1f 82       	std	Y+7, r1	; 0x07
    1c64:	82 e0       	ldi	r24, 0x02	; 2
    1c66:	61 e0       	ldi	r22, 0x01	; 1
    1c68:	a3 01       	movw	r20, r6
    1c6a:	0e 94 b7 05 	call	0xb6e	; 0xb6e <lcd_printlc>
    1c6e:	83 e0       	ldi	r24, 0x03	; 3
    1c70:	61 e0       	ldi	r22, 0x01	; 1
    1c72:	a6 01       	movw	r20, r12
    1c74:	0e 94 b7 05 	call	0xb6e	; 0xb6e <lcd_printlc>
    1c78:	84 e0       	ldi	r24, 0x04	; 4
    1c7a:	61 e0       	ldi	r22, 0x01	; 1
    1c7c:	a5 01       	movw	r20, r10
    1c7e:	0e 94 b7 05 	call	0xb6e	; 0xb6e <lcd_printlc>
    1c82:	52 e0       	ldi	r21, 0x02	; 2
    1c84:	b5 2e       	mov	r11, r21
    1c86:	91 e0       	ldi	r25, 0x01	; 1
    1c88:	8e 01       	movw	r16, r28
    1c8a:	09 5f       	subi	r16, 0xF9	; 249
    1c8c:	1f 4f       	sbci	r17, 0xFF	; 255
    1c8e:	48 e5       	ldi	r20, 0x58	; 88
    1c90:	c4 2e       	mov	r12, r20
    1c92:	42 e0       	ldi	r20, 0x02	; 2
    1c94:	d4 2e       	mov	r13, r20
    1c96:	03 c0       	rjmp	.+6      	; 0x1c9e <menue_schalttemperaturen_einstellen+0x86>
    1c98:	32 e0       	ldi	r19, 0x02	; 2
    1c9a:	b3 2e       	mov	r11, r19
    1c9c:	90 e0       	ldi	r25, 0x00	; 0
    1c9e:	8b 2d       	mov	r24, r11
    1ca0:	61 e1       	ldi	r22, 0x11	; 17
    1ca2:	9e 87       	std	Y+14, r25	; 0x0e
    1ca4:	0e 94 43 05 	call	0xa86	; 0xa86 <lcd_gotolr>
    1ca8:	8f e0       	ldi	r24, 0x0F	; 15
    1caa:	0e 94 75 06 	call	0xcea	; 0xcea <lcd_command>
    1cae:	88 e0       	ldi	r24, 0x08	; 8
    1cb0:	0e 94 9b 1b 	call	0x3736	; 0x3736 <get_key_short>
    1cb4:	9e 85       	ldd	r25, Y+14	; 0x0e
    1cb6:	88 23       	and	r24, r24
    1cb8:	29 f0       	breq	.+10     	; 0x1cc4 <menue_schalttemperaturen_einstellen+0xac>
    1cba:	fb 2d       	mov	r31, r11
    1cbc:	f3 30       	cpi	r31, 0x03	; 3
    1cbe:	09 f0       	breq	.+2      	; 0x1cc2 <menue_schalttemperaturen_einstellen+0xaa>
    1cc0:	47 c0       	rjmp	.+142    	; 0x1d50 <menue_schalttemperaturen_einstellen+0x138>
    1cc2:	43 c0       	rjmp	.+134    	; 0x1d4a <menue_schalttemperaturen_einstellen+0x132>
    1cc4:	82 e0       	ldi	r24, 0x02	; 2
    1cc6:	9e 87       	std	Y+14, r25	; 0x0e
    1cc8:	0e 94 9b 1b 	call	0x3736	; 0x3736 <get_key_short>
    1ccc:	9e 85       	ldd	r25, Y+14	; 0x0e
    1cce:	88 23       	and	r24, r24
    1cd0:	21 f0       	breq	.+8      	; 0x1cda <menue_schalttemperaturen_einstellen+0xc2>
    1cd2:	2b 2d       	mov	r18, r11
    1cd4:	22 30       	cpi	r18, 0x02	; 2
    1cd6:	c9 f5       	brne	.+114    	; 0x1d4a <menue_schalttemperaturen_einstellen+0x132>
    1cd8:	3b c0       	rjmp	.+118    	; 0x1d50 <menue_schalttemperaturen_einstellen+0x138>
    1cda:	84 e0       	ldi	r24, 0x04	; 4
    1cdc:	9e 87       	std	Y+14, r25	; 0x0e
    1cde:	0e 94 85 1b 	call	0x370a	; 0x370a <get_key_press>
    1ce2:	9e 85       	ldd	r25, Y+14	; 0x0e
    1ce4:	88 23       	and	r24, r24
    1ce6:	09 f1       	breq	.+66     	; 0x1d2a <menue_schalttemperaturen_einstellen+0x112>
    1ce8:	8c e0       	ldi	r24, 0x0C	; 12
    1cea:	0e 94 75 06 	call	0xcea	; 0xcea <lcd_command>
    1cee:	81 e0       	ldi	r24, 0x01	; 1
    1cf0:	0e 94 75 06 	call	0xcea	; 0xcea <lcd_command>
    1cf4:	81 e0       	ldi	r24, 0x01	; 1
    1cf6:	61 e0       	ldi	r22, 0x01	; 1
    1cf8:	4e e3       	ldi	r20, 0x3E	; 62
    1cfa:	52 e0       	ldi	r21, 0x02	; 2
    1cfc:	0e 94 b7 05 	call	0xb6e	; 0xb6e <lcd_printlc>
    1d00:	f8 94       	cli
    1d02:	c7 01       	movw	r24, r14
    1d04:	b4 01       	movw	r22, r8
    1d06:	46 e0       	ldi	r20, 0x06	; 6
    1d08:	50 e0       	ldi	r21, 0x00	; 0
    1d0a:	0e 94 00 20 	call	0x4000	; 0x4000 <__eewr_block_m644p>
    1d0e:	78 94       	sei
    1d10:	8f ef       	ldi	r24, 0xFF	; 255
    1d12:	99 e6       	ldi	r25, 0x69	; 105
    1d14:	a8 e1       	ldi	r26, 0x18	; 24
    1d16:	81 50       	subi	r24, 0x01	; 1
    1d18:	90 40       	sbci	r25, 0x00	; 0
    1d1a:	a0 40       	sbci	r26, 0x00	; 0
    1d1c:	e1 f7       	brne	.-8      	; 0x1d16 <menue_schalttemperaturen_einstellen+0xfe>
    1d1e:	00 c0       	rjmp	.+0      	; 0x1d20 <menue_schalttemperaturen_einstellen+0x108>
    1d20:	00 00       	nop
    1d22:	81 e0       	ldi	r24, 0x01	; 1
    1d24:	0e 94 75 06 	call	0xcea	; 0xcea <lcd_command>
    1d28:	b3 c0       	rjmp	.+358    	; 0x1e90 <menue_schalttemperaturen_einstellen+0x278>
    1d2a:	80 e2       	ldi	r24, 0x20	; 32
    1d2c:	9e 87       	std	Y+14, r25	; 0x0e
    1d2e:	0e 94 85 1b 	call	0x370a	; 0x370a <get_key_press>
    1d32:	9e 85       	ldd	r25, Y+14	; 0x0e
    1d34:	88 23       	and	r24, r24
    1d36:	71 f0       	breq	.+28     	; 0x1d54 <menue_schalttemperaturen_einstellen+0x13c>
    1d38:	d7 01       	movw	r26, r14
    1d3a:	fe 01       	movw	r30, r28
    1d3c:	31 96       	adiw	r30, 0x01	; 1
    1d3e:	86 e0       	ldi	r24, 0x06	; 6
    1d40:	01 90       	ld	r0, Z+
    1d42:	0d 92       	st	X+, r0
    1d44:	81 50       	subi	r24, 0x01	; 1
    1d46:	e1 f7       	brne	.-8      	; 0x1d40 <menue_schalttemperaturen_einstellen+0x128>
    1d48:	a3 c0       	rjmp	.+326    	; 0x1e90 <menue_schalttemperaturen_einstellen+0x278>
    1d4a:	22 e0       	ldi	r18, 0x02	; 2
    1d4c:	b2 2e       	mov	r11, r18
    1d4e:	02 c0       	rjmp	.+4      	; 0x1d54 <menue_schalttemperaturen_einstellen+0x13c>
    1d50:	83 e0       	ldi	r24, 0x03	; 3
    1d52:	b8 2e       	mov	r11, r24
    1d54:	99 23       	and	r25, r25
    1d56:	a1 f1       	breq	.+104    	; 0x1dc0 <menue_schalttemperaturen_einstellen+0x1a8>
    1d58:	d7 01       	movw	r26, r14
    1d5a:	8d 91       	ld	r24, X+
    1d5c:	9c 91       	ld	r25, X
    1d5e:	b8 01       	movw	r22, r16
    1d60:	0e 94 45 09 	call	0x128a	; 0x128a <temperatur_to_string>
    1d64:	82 e0       	ldi	r24, 0x02	; 2
    1d66:	6e e0       	ldi	r22, 0x0E	; 14
    1d68:	a8 01       	movw	r20, r16
    1d6a:	0e 94 b7 05 	call	0xb6e	; 0xb6e <lcd_printlc>
    1d6e:	f7 01       	movw	r30, r14
    1d70:	82 81       	ldd	r24, Z+2	; 0x02
    1d72:	93 81       	ldd	r25, Z+3	; 0x03
    1d74:	b8 01       	movw	r22, r16
    1d76:	0e 94 45 09 	call	0x128a	; 0x128a <temperatur_to_string>
    1d7a:	83 e0       	ldi	r24, 0x03	; 3
    1d7c:	6e e0       	ldi	r22, 0x0E	; 14
    1d7e:	a8 01       	movw	r20, r16
    1d80:	0e 94 b7 05 	call	0xb6e	; 0xb6e <lcd_printlc>
    1d84:	d7 01       	movw	r26, r14
    1d86:	8d 91       	ld	r24, X+
    1d88:	9c 91       	ld	r25, X
    1d8a:	11 97       	sbiw	r26, 0x01	; 1
    1d8c:	12 96       	adiw	r26, 0x02	; 2
    1d8e:	2d 91       	ld	r18, X+
    1d90:	3c 91       	ld	r19, X
    1d92:	13 97       	sbiw	r26, 0x03	; 3
    1d94:	82 17       	cp	r24, r18
    1d96:	93 07       	cpc	r25, r19
    1d98:	1c f0       	brlt	.+6      	; 0x1da0 <menue_schalttemperaturen_einstellen+0x188>
    1d9a:	82 1b       	sub	r24, r18
    1d9c:	93 0b       	sbc	r25, r19
    1d9e:	04 c0       	rjmp	.+8      	; 0x1da8 <menue_schalttemperaturen_einstellen+0x190>
    1da0:	f9 01       	movw	r30, r18
    1da2:	e8 1b       	sub	r30, r24
    1da4:	f9 0b       	sbc	r31, r25
    1da6:	cf 01       	movw	r24, r30
    1da8:	b8 01       	movw	r22, r16
    1daa:	0e 94 45 09 	call	0x128a	; 0x128a <temperatur_to_string>
    1dae:	84 e0       	ldi	r24, 0x04	; 4
    1db0:	6e e0       	ldi	r22, 0x0E	; 14
    1db2:	a8 01       	movw	r20, r16
    1db4:	0e 94 b7 05 	call	0xb6e	; 0xb6e <lcd_printlc>
    1db8:	8e e4       	ldi	r24, 0x4E	; 78
    1dba:	92 e0       	ldi	r25, 0x02	; 2
    1dbc:	0e 94 1b 05 	call	0xa36	; 0xa36 <lcd_print>
    1dc0:	fb 2d       	mov	r31, r11
    1dc2:	f3 30       	cpi	r31, 0x03	; 3
    1dc4:	89 f1       	breq	.+98     	; 0x1e28 <menue_schalttemperaturen_einstellen+0x210>
    1dc6:	81 e0       	ldi	r24, 0x01	; 1
    1dc8:	0e 94 85 1b 	call	0x370a	; 0x370a <get_key_press>
    1dcc:	b8 2e       	mov	r11, r24
    1dce:	81 e0       	ldi	r24, 0x01	; 1
    1dd0:	0e 94 90 1b 	call	0x3720	; 0x3720 <get_key_rpt>
    1dd4:	8b 29       	or	r24, r11
    1dd6:	71 f0       	breq	.+28     	; 0x1df4 <menue_schalttemperaturen_einstellen+0x1dc>
    1dd8:	d7 01       	movw	r26, r14
    1dda:	8d 91       	ld	r24, X+
    1ddc:	9c 91       	ld	r25, X
    1dde:	11 97       	sbiw	r26, 0x01	; 1
    1de0:	b2 e0       	ldi	r27, 0x02	; 2
    1de2:	88 35       	cpi	r24, 0x58	; 88
    1de4:	9b 07       	cpc	r25, r27
    1de6:	21 f4       	brne	.+8      	; 0x1df0 <menue_schalttemperaturen_einstellen+0x1d8>
    1de8:	f7 01       	movw	r30, r14
    1dea:	11 82       	std	Z+1, r1	; 0x01
    1dec:	10 82       	st	Z, r1
    1dee:	19 c0       	rjmp	.+50     	; 0x1e22 <menue_schalttemperaturen_einstellen+0x20a>
    1df0:	01 96       	adiw	r24, 0x01	; 1
    1df2:	13 c0       	rjmp	.+38     	; 0x1e1a <menue_schalttemperaturen_einstellen+0x202>
    1df4:	80 e1       	ldi	r24, 0x10	; 16
    1df6:	0e 94 85 1b 	call	0x370a	; 0x370a <get_key_press>
    1dfa:	b8 2e       	mov	r11, r24
    1dfc:	80 e1       	ldi	r24, 0x10	; 16
    1dfe:	0e 94 90 1b 	call	0x3720	; 0x3720 <get_key_rpt>
    1e02:	8b 29       	or	r24, r11
    1e04:	09 f4       	brne	.+2      	; 0x1e08 <menue_schalttemperaturen_einstellen+0x1f0>
    1e06:	48 cf       	rjmp	.-368    	; 0x1c98 <menue_schalttemperaturen_einstellen+0x80>
    1e08:	f7 01       	movw	r30, r14
    1e0a:	80 81       	ld	r24, Z
    1e0c:	91 81       	ldd	r25, Z+1	; 0x01
    1e0e:	00 97       	sbiw	r24, 0x00	; 0
    1e10:	19 f4       	brne	.+6      	; 0x1e18 <menue_schalttemperaturen_einstellen+0x200>
    1e12:	d1 82       	std	Z+1, r13	; 0x01
    1e14:	c0 82       	st	Z, r12
    1e16:	05 c0       	rjmp	.+10     	; 0x1e22 <menue_schalttemperaturen_einstellen+0x20a>
    1e18:	01 97       	sbiw	r24, 0x01	; 1
    1e1a:	d7 01       	movw	r26, r14
    1e1c:	11 96       	adiw	r26, 0x01	; 1
    1e1e:	9c 93       	st	X, r25
    1e20:	8e 93       	st	-X, r24
    1e22:	b2 e0       	ldi	r27, 0x02	; 2
    1e24:	bb 2e       	mov	r11, r27
    1e26:	32 c0       	rjmp	.+100    	; 0x1e8c <menue_schalttemperaturen_einstellen+0x274>
    1e28:	81 e0       	ldi	r24, 0x01	; 1
    1e2a:	0e 94 85 1b 	call	0x370a	; 0x370a <get_key_press>
    1e2e:	a8 2e       	mov	r10, r24
    1e30:	81 e0       	ldi	r24, 0x01	; 1
    1e32:	0e 94 90 1b 	call	0x3720	; 0x3720 <get_key_rpt>
    1e36:	8a 29       	or	r24, r10
    1e38:	79 f0       	breq	.+30     	; 0x1e58 <menue_schalttemperaturen_einstellen+0x240>
    1e3a:	f7 01       	movw	r30, r14
    1e3c:	82 81       	ldd	r24, Z+2	; 0x02
    1e3e:	93 81       	ldd	r25, Z+3	; 0x03
    1e40:	f2 e0       	ldi	r31, 0x02	; 2
    1e42:	88 35       	cpi	r24, 0x58	; 88
    1e44:	9f 07       	cpc	r25, r31
    1e46:	31 f4       	brne	.+12     	; 0x1e54 <menue_schalttemperaturen_einstellen+0x23c>
    1e48:	d7 01       	movw	r26, r14
    1e4a:	13 96       	adiw	r26, 0x03	; 3
    1e4c:	1c 92       	st	X, r1
    1e4e:	1e 92       	st	-X, r1
    1e50:	12 97       	sbiw	r26, 0x02	; 2
    1e52:	1c c0       	rjmp	.+56     	; 0x1e8c <menue_schalttemperaturen_einstellen+0x274>
    1e54:	01 96       	adiw	r24, 0x01	; 1
    1e56:	17 c0       	rjmp	.+46     	; 0x1e86 <menue_schalttemperaturen_einstellen+0x26e>
    1e58:	80 e1       	ldi	r24, 0x10	; 16
    1e5a:	0e 94 85 1b 	call	0x370a	; 0x370a <get_key_press>
    1e5e:	a8 2e       	mov	r10, r24
    1e60:	80 e1       	ldi	r24, 0x10	; 16
    1e62:	0e 94 90 1b 	call	0x3720	; 0x3720 <get_key_rpt>
    1e66:	8a 29       	or	r24, r10
    1e68:	09 f4       	brne	.+2      	; 0x1e6c <menue_schalttemperaturen_einstellen+0x254>
    1e6a:	18 cf       	rjmp	.-464    	; 0x1c9c <menue_schalttemperaturen_einstellen+0x84>
    1e6c:	d7 01       	movw	r26, r14
    1e6e:	12 96       	adiw	r26, 0x02	; 2
    1e70:	8d 91       	ld	r24, X+
    1e72:	9c 91       	ld	r25, X
    1e74:	13 97       	sbiw	r26, 0x03	; 3
    1e76:	00 97       	sbiw	r24, 0x00	; 0
    1e78:	29 f4       	brne	.+10     	; 0x1e84 <menue_schalttemperaturen_einstellen+0x26c>
    1e7a:	13 96       	adiw	r26, 0x03	; 3
    1e7c:	dc 92       	st	X, r13
    1e7e:	ce 92       	st	-X, r12
    1e80:	12 97       	sbiw	r26, 0x02	; 2
    1e82:	04 c0       	rjmp	.+8      	; 0x1e8c <menue_schalttemperaturen_einstellen+0x274>
    1e84:	01 97       	sbiw	r24, 0x01	; 1
    1e86:	f7 01       	movw	r30, r14
    1e88:	93 83       	std	Z+3, r25	; 0x03
    1e8a:	82 83       	std	Z+2, r24	; 0x02
    1e8c:	91 e0       	ldi	r25, 0x01	; 1
    1e8e:	07 cf       	rjmp	.-498    	; 0x1c9e <menue_schalttemperaturen_einstellen+0x86>
    1e90:	2e 96       	adiw	r28, 0x0e	; 14
    1e92:	0f b6       	in	r0, 0x3f	; 63
    1e94:	f8 94       	cli
    1e96:	de bf       	out	0x3e, r29	; 62
    1e98:	0f be       	out	0x3f, r0	; 63
    1e9a:	cd bf       	out	0x3d, r28	; 61
    1e9c:	cf 91       	pop	r28
    1e9e:	df 91       	pop	r29
    1ea0:	1f 91       	pop	r17
    1ea2:	0f 91       	pop	r16
    1ea4:	ff 90       	pop	r15
    1ea6:	ef 90       	pop	r14
    1ea8:	df 90       	pop	r13
    1eaa:	cf 90       	pop	r12
    1eac:	bf 90       	pop	r11
    1eae:	af 90       	pop	r10
    1eb0:	9f 90       	pop	r9
    1eb2:	8f 90       	pop	r8
    1eb4:	7f 90       	pop	r7
    1eb6:	6f 90       	pop	r6
    1eb8:	08 95       	ret

00001eba <menu_phwert_kalibrieren>:
    1eba:	7f 92       	push	r7
    1ebc:	8f 92       	push	r8
    1ebe:	9f 92       	push	r9
    1ec0:	af 92       	push	r10
    1ec2:	bf 92       	push	r11
    1ec4:	cf 92       	push	r12
    1ec6:	df 92       	push	r13
    1ec8:	ef 92       	push	r14
    1eca:	ff 92       	push	r15
    1ecc:	0f 93       	push	r16
    1ece:	1f 93       	push	r17
    1ed0:	df 93       	push	r29
    1ed2:	cf 93       	push	r28
    1ed4:	00 d0       	rcall	.+0      	; 0x1ed6 <menu_phwert_kalibrieren+0x1c>
    1ed6:	00 d0       	rcall	.+0      	; 0x1ed8 <menu_phwert_kalibrieren+0x1e>
    1ed8:	00 d0       	rcall	.+0      	; 0x1eda <menu_phwert_kalibrieren+0x20>
    1eda:	cd b7       	in	r28, 0x3d	; 61
    1edc:	de b7       	in	r29, 0x3e	; 62
    1ede:	81 e0       	ldi	r24, 0x01	; 1
    1ee0:	0e 94 75 06 	call	0xcea	; 0xcea <lcd_command>
    1ee4:	8d ed       	ldi	r24, 0xDD	; 221
    1ee6:	93 e0       	ldi	r25, 0x03	; 3
    1ee8:	6b e8       	ldi	r22, 0x8B	; 139
    1eea:	75 e0       	ldi	r23, 0x05	; 5
    1eec:	0e 94 b2 1d 	call	0x3b64	; 0x3b64 <strcpy_P>
    1ef0:	ac 01       	movw	r20, r24
    1ef2:	81 e0       	ldi	r24, 0x01	; 1
    1ef4:	61 e0       	ldi	r22, 0x01	; 1
    1ef6:	0e 94 b7 05 	call	0xb6e	; 0xb6e <lcd_printlc>
    1efa:	8d ed       	ldi	r24, 0xDD	; 221
    1efc:	93 e0       	ldi	r25, 0x03	; 3
    1efe:	69 e7       	ldi	r22, 0x79	; 121
    1f00:	75 e0       	ldi	r23, 0x05	; 5
    1f02:	0e 94 b2 1d 	call	0x3b64	; 0x3b64 <strcpy_P>
    1f06:	ac 01       	movw	r20, r24
    1f08:	82 e0       	ldi	r24, 0x02	; 2
    1f0a:	61 e0       	ldi	r22, 0x01	; 1
    1f0c:	0e 94 b7 05 	call	0xb6e	; 0xb6e <lcd_printlc>
    1f10:	8d ed       	ldi	r24, 0xDD	; 221
    1f12:	93 e0       	ldi	r25, 0x03	; 3
    1f14:	64 e6       	ldi	r22, 0x64	; 100
    1f16:	75 e0       	ldi	r23, 0x05	; 5
    1f18:	0e 94 b2 1d 	call	0x3b64	; 0x3b64 <strcpy_P>
    1f1c:	ac 01       	movw	r20, r24
    1f1e:	83 e0       	ldi	r24, 0x03	; 3
    1f20:	61 e0       	ldi	r22, 0x01	; 1
    1f22:	0e 94 b7 05 	call	0xb6e	; 0xb6e <lcd_printlc>
    1f26:	e4 eb       	ldi	r30, 0xB4	; 180
    1f28:	ee 2e       	mov	r14, r30
    1f2a:	f1 2c       	mov	r15, r1
    1f2c:	01 2d       	mov	r16, r1
    1f2e:	11 2d       	mov	r17, r1
    1f30:	73 e0       	ldi	r23, 0x03	; 3
    1f32:	a7 2e       	mov	r10, r23
    1f34:	b1 2c       	mov	r11, r1
    1f36:	ac 0e       	add	r10, r28
    1f38:	bd 1e       	adc	r11, r29
    1f3a:	65 e0       	ldi	r22, 0x05	; 5
    1f3c:	86 2e       	mov	r8, r22
    1f3e:	91 2c       	mov	r9, r1
    1f40:	8c 0e       	add	r8, r28
    1f42:	9d 1e       	adc	r9, r29
    1f44:	6e 01       	movw	r12, r28
    1f46:	08 94       	sec
    1f48:	c1 1c       	adc	r12, r1
    1f4a:	d1 1c       	adc	r13, r1
    1f4c:	80 e2       	ldi	r24, 0x20	; 32
    1f4e:	0e 94 85 1b 	call	0x370a	; 0x370a <get_key_press>
    1f52:	88 23       	and	r24, r24
    1f54:	b9 f0       	breq	.+46     	; 0x1f84 <menu_phwert_kalibrieren+0xca>
    1f56:	81 e0       	ldi	r24, 0x01	; 1
    1f58:	0e 94 75 06 	call	0xcea	; 0xcea <lcd_command>
    1f5c:	26 96       	adiw	r28, 0x06	; 6
    1f5e:	0f b6       	in	r0, 0x3f	; 63
    1f60:	f8 94       	cli
    1f62:	de bf       	out	0x3e, r29	; 62
    1f64:	0f be       	out	0x3f, r0	; 63
    1f66:	cd bf       	out	0x3d, r28	; 61
    1f68:	cf 91       	pop	r28
    1f6a:	df 91       	pop	r29
    1f6c:	1f 91       	pop	r17
    1f6e:	0f 91       	pop	r16
    1f70:	ff 90       	pop	r15
    1f72:	ef 90       	pop	r14
    1f74:	df 90       	pop	r13
    1f76:	cf 90       	pop	r12
    1f78:	bf 90       	pop	r11
    1f7a:	af 90       	pop	r10
    1f7c:	9f 90       	pop	r9
    1f7e:	8f 90       	pop	r8
    1f80:	7f 90       	pop	r7
    1f82:	08 95       	ret
    1f84:	84 e0       	ldi	r24, 0x04	; 4
    1f86:	0e 94 85 1b 	call	0x370a	; 0x370a <get_key_press>
    1f8a:	78 2e       	mov	r7, r24
    1f8c:	84 e0       	ldi	r24, 0x04	; 4
    1f8e:	0e 94 90 1b 	call	0x3720	; 0x3720 <get_key_rpt>
    1f92:	87 29       	or	r24, r7
    1f94:	d9 f2       	breq	.-74     	; 0x1f4c <menu_phwert_kalibrieren+0x92>
    1f96:	e0 92 b8 03 	sts	0x03B8, r14
    1f9a:	f0 92 b9 03 	sts	0x03B9, r15
    1f9e:	00 93 ba 03 	sts	0x03BA, r16
    1fa2:	10 93 bb 03 	sts	0x03BB, r17
    1fa6:	8d ed       	ldi	r24, 0xDD	; 221
    1fa8:	93 e0       	ldi	r25, 0x03	; 3
    1faa:	6a e3       	ldi	r22, 0x3A	; 58
    1fac:	75 e0       	ldi	r23, 0x05	; 5
    1fae:	0e 94 b2 1d 	call	0x3b64	; 0x3b64 <strcpy_P>
    1fb2:	ac 01       	movw	r20, r24
    1fb4:	82 e0       	ldi	r24, 0x02	; 2
    1fb6:	61 e0       	ldi	r22, 0x01	; 1
    1fb8:	0e 94 8f 05 	call	0xb1e	; 0xb1e <lcd_printlrc>
    1fbc:	60 91 b8 03 	lds	r22, 0x03B8
    1fc0:	70 91 b9 03 	lds	r23, 0x03B9
    1fc4:	80 91 ba 03 	lds	r24, 0x03BA
    1fc8:	90 91 bb 03 	lds	r25, 0x03BB
    1fcc:	61 50       	subi	r22, 0x01	; 1
    1fce:	70 40       	sbci	r23, 0x00	; 0
    1fd0:	80 40       	sbci	r24, 0x00	; 0
    1fd2:	90 40       	sbci	r25, 0x00	; 0
    1fd4:	4b e2       	ldi	r20, 0x2B	; 43
    1fd6:	54 e0       	ldi	r21, 0x04	; 4
    1fd8:	2a e0       	ldi	r18, 0x0A	; 10
    1fda:	30 e0       	ldi	r19, 0x00	; 0
    1fdc:	0e 94 b9 1d 	call	0x3b72	; 0x3b72 <ultoa>
    1fe0:	84 e0       	ldi	r24, 0x04	; 4
    1fe2:	61 e0       	ldi	r22, 0x01	; 1
    1fe4:	4b e2       	ldi	r20, 0x2B	; 43
    1fe6:	54 e0       	ldi	r21, 0x04	; 4
    1fe8:	0e 94 b7 05 	call	0xb6e	; 0xb6e <lcd_printlc>
    1fec:	8d ed       	ldi	r24, 0xDD	; 221
    1fee:	93 e0       	ldi	r25, 0x03	; 3
    1ff0:	69 e2       	ldi	r22, 0x29	; 41
    1ff2:	75 e0       	ldi	r23, 0x05	; 5
    1ff4:	0e 94 b2 1d 	call	0x3b64	; 0x3b64 <strcpy_P>
    1ff8:	0e 94 1b 05 	call	0xa36	; 0xa36 <lcd_print>
    1ffc:	80 91 b8 03 	lds	r24, 0x03B8
    2000:	90 91 b9 03 	lds	r25, 0x03B9
    2004:	a0 91 ba 03 	lds	r26, 0x03BA
    2008:	b0 91 bb 03 	lds	r27, 0x03BB
    200c:	00 97       	sbiw	r24, 0x00	; 0
    200e:	a1 05       	cpc	r26, r1
    2010:	b1 05       	cpc	r27, r1
    2012:	a1 f6       	brne	.-88     	; 0x1fbc <menu_phwert_kalibrieren+0x102>
    2014:	84 e0       	ldi	r24, 0x04	; 4
    2016:	0e 94 f9 02 	call	0x5f2	; 0x5f2 <adc_read_channel>
    201a:	9a 83       	std	Y+2, r25	; 0x02
    201c:	89 83       	std	Y+1, r24	; 0x01
    201e:	84 e0       	ldi	r24, 0x04	; 4
    2020:	0e 94 85 1b 	call	0x370a	; 0x370a <get_key_press>
    2024:	84 e0       	ldi	r24, 0x04	; 4
    2026:	0e 94 85 1b 	call	0x370a	; 0x370a <get_key_press>
    202a:	88 23       	and	r24, r24
    202c:	d9 f3       	breq	.-10     	; 0x2024 <menu_phwert_kalibrieren+0x16a>
    202e:	e0 92 b8 03 	sts	0x03B8, r14
    2032:	f0 92 b9 03 	sts	0x03B9, r15
    2036:	00 93 ba 03 	sts	0x03BA, r16
    203a:	10 93 bb 03 	sts	0x03BB, r17
    203e:	8d ed       	ldi	r24, 0xDD	; 221
    2040:	93 e0       	ldi	r25, 0x03	; 3
    2042:	65 e0       	ldi	r22, 0x05	; 5
    2044:	75 e0       	ldi	r23, 0x05	; 5
    2046:	0e 94 b2 1d 	call	0x3b64	; 0x3b64 <strcpy_P>
    204a:	ac 01       	movw	r20, r24
    204c:	82 e0       	ldi	r24, 0x02	; 2
    204e:	61 e0       	ldi	r22, 0x01	; 1
    2050:	0e 94 8f 05 	call	0xb1e	; 0xb1e <lcd_printlrc>
    2054:	60 91 b8 03 	lds	r22, 0x03B8
    2058:	70 91 b9 03 	lds	r23, 0x03B9
    205c:	80 91 ba 03 	lds	r24, 0x03BA
    2060:	90 91 bb 03 	lds	r25, 0x03BB
    2064:	61 50       	subi	r22, 0x01	; 1
    2066:	70 40       	sbci	r23, 0x00	; 0
    2068:	80 40       	sbci	r24, 0x00	; 0
    206a:	90 40       	sbci	r25, 0x00	; 0
    206c:	4b e2       	ldi	r20, 0x2B	; 43
    206e:	54 e0       	ldi	r21, 0x04	; 4
    2070:	2a e0       	ldi	r18, 0x0A	; 10
    2072:	30 e0       	ldi	r19, 0x00	; 0
    2074:	0e 94 b9 1d 	call	0x3b72	; 0x3b72 <ultoa>
    2078:	84 e0       	ldi	r24, 0x04	; 4
    207a:	61 e0       	ldi	r22, 0x01	; 1
    207c:	4b e2       	ldi	r20, 0x2B	; 43
    207e:	54 e0       	ldi	r21, 0x04	; 4
    2080:	0e 94 b7 05 	call	0xb6e	; 0xb6e <lcd_printlc>
    2084:	8d ed       	ldi	r24, 0xDD	; 221
    2086:	93 e0       	ldi	r25, 0x03	; 3
    2088:	64 ef       	ldi	r22, 0xF4	; 244
    208a:	74 e0       	ldi	r23, 0x04	; 4
    208c:	0e 94 b2 1d 	call	0x3b64	; 0x3b64 <strcpy_P>
    2090:	0e 94 1b 05 	call	0xa36	; 0xa36 <lcd_print>
    2094:	80 91 b8 03 	lds	r24, 0x03B8
    2098:	90 91 b9 03 	lds	r25, 0x03B9
    209c:	a0 91 ba 03 	lds	r26, 0x03BA
    20a0:	b0 91 bb 03 	lds	r27, 0x03BB
    20a4:	00 97       	sbiw	r24, 0x00	; 0
    20a6:	a1 05       	cpc	r26, r1
    20a8:	b1 05       	cpc	r27, r1
    20aa:	a1 f6       	brne	.-88     	; 0x2054 <menu_phwert_kalibrieren+0x19a>
    20ac:	84 e0       	ldi	r24, 0x04	; 4
    20ae:	0e 94 f9 02 	call	0x5f2	; 0x5f2 <adc_read_channel>
    20b2:	9c 83       	std	Y+4, r25	; 0x04
    20b4:	8b 83       	std	Y+3, r24	; 0x03
    20b6:	84 e0       	ldi	r24, 0x04	; 4
    20b8:	0e 94 85 1b 	call	0x370a	; 0x370a <get_key_press>
    20bc:	84 e0       	ldi	r24, 0x04	; 4
    20be:	0e 94 85 1b 	call	0x370a	; 0x370a <get_key_press>
    20c2:	88 23       	and	r24, r24
    20c4:	d9 f3       	breq	.-10     	; 0x20bc <menu_phwert_kalibrieren+0x202>
    20c6:	e0 92 b8 03 	sts	0x03B8, r14
    20ca:	f0 92 b9 03 	sts	0x03B9, r15
    20ce:	00 93 ba 03 	sts	0x03BA, r16
    20d2:	10 93 bb 03 	sts	0x03BB, r17
    20d6:	8d ed       	ldi	r24, 0xDD	; 221
    20d8:	93 e0       	ldi	r25, 0x03	; 3
    20da:	60 ed       	ldi	r22, 0xD0	; 208
    20dc:	74 e0       	ldi	r23, 0x04	; 4
    20de:	0e 94 b2 1d 	call	0x3b64	; 0x3b64 <strcpy_P>
    20e2:	ac 01       	movw	r20, r24
    20e4:	82 e0       	ldi	r24, 0x02	; 2
    20e6:	61 e0       	ldi	r22, 0x01	; 1
    20e8:	0e 94 8f 05 	call	0xb1e	; 0xb1e <lcd_printlrc>
    20ec:	60 91 b8 03 	lds	r22, 0x03B8
    20f0:	70 91 b9 03 	lds	r23, 0x03B9
    20f4:	80 91 ba 03 	lds	r24, 0x03BA
    20f8:	90 91 bb 03 	lds	r25, 0x03BB
    20fc:	61 50       	subi	r22, 0x01	; 1
    20fe:	70 40       	sbci	r23, 0x00	; 0
    2100:	80 40       	sbci	r24, 0x00	; 0
    2102:	90 40       	sbci	r25, 0x00	; 0
    2104:	4b e2       	ldi	r20, 0x2B	; 43
    2106:	54 e0       	ldi	r21, 0x04	; 4
    2108:	2a e0       	ldi	r18, 0x0A	; 10
    210a:	30 e0       	ldi	r19, 0x00	; 0
    210c:	0e 94 b9 1d 	call	0x3b72	; 0x3b72 <ultoa>
    2110:	84 e0       	ldi	r24, 0x04	; 4
    2112:	61 e0       	ldi	r22, 0x01	; 1
    2114:	4b e2       	ldi	r20, 0x2B	; 43
    2116:	54 e0       	ldi	r21, 0x04	; 4
    2118:	0e 94 b7 05 	call	0xb6e	; 0xb6e <lcd_printlc>
    211c:	8d ed       	ldi	r24, 0xDD	; 221
    211e:	93 e0       	ldi	r25, 0x03	; 3
    2120:	6f eb       	ldi	r22, 0xBF	; 191
    2122:	74 e0       	ldi	r23, 0x04	; 4
    2124:	0e 94 b2 1d 	call	0x3b64	; 0x3b64 <strcpy_P>
    2128:	0e 94 1b 05 	call	0xa36	; 0xa36 <lcd_print>
    212c:	80 91 b8 03 	lds	r24, 0x03B8
    2130:	90 91 b9 03 	lds	r25, 0x03B9
    2134:	a0 91 ba 03 	lds	r26, 0x03BA
    2138:	b0 91 bb 03 	lds	r27, 0x03BB
    213c:	00 97       	sbiw	r24, 0x00	; 0
    213e:	a1 05       	cpc	r26, r1
    2140:	b1 05       	cpc	r27, r1
    2142:	a1 f6       	brne	.-88     	; 0x20ec <menu_phwert_kalibrieren+0x232>
    2144:	84 e0       	ldi	r24, 0x04	; 4
    2146:	0e 94 f9 02 	call	0x5f2	; 0x5f2 <adc_read_channel>
    214a:	9e 83       	std	Y+6, r25	; 0x06
    214c:	8d 83       	std	Y+5, r24	; 0x05
    214e:	c6 01       	movw	r24, r12
    2150:	b5 01       	movw	r22, r10
    2152:	a4 01       	movw	r20, r8
    2154:	22 ea       	ldi	r18, 0xA2	; 162
    2156:	33 e0       	ldi	r19, 0x03	; 3
    2158:	0e 94 30 03 	call	0x660	; 0x660 <phwert_kalibrieren>
    215c:	84 e0       	ldi	r24, 0x04	; 4
    215e:	0e 94 85 1b 	call	0x370a	; 0x370a <get_key_press>
    2162:	8d ed       	ldi	r24, 0xDD	; 221
    2164:	93 e0       	ldi	r25, 0x03	; 3
    2166:	6d e9       	ldi	r22, 0x9D	; 157
    2168:	74 e0       	ldi	r23, 0x04	; 4
    216a:	0e 94 b2 1d 	call	0x3b64	; 0x3b64 <strcpy_P>
    216e:	ac 01       	movw	r20, r24
    2170:	82 e0       	ldi	r24, 0x02	; 2
    2172:	61 e0       	ldi	r22, 0x01	; 1
    2174:	0e 94 8f 05 	call	0xb1e	; 0xb1e <lcd_printlrc>
    2178:	8d ed       	ldi	r24, 0xDD	; 221
    217a:	93 e0       	ldi	r25, 0x03	; 3
    217c:	6b e8       	ldi	r22, 0x8B	; 139
    217e:	74 e0       	ldi	r23, 0x04	; 4
    2180:	0e 94 b2 1d 	call	0x3b64	; 0x3b64 <strcpy_P>
    2184:	ac 01       	movw	r20, r24
    2186:	84 e0       	ldi	r24, 0x04	; 4
    2188:	61 e0       	ldi	r22, 0x01	; 1
    218a:	0e 94 6a 05 	call	0xad4	; 0xad4 <lcd_printlr>
    218e:	de ce       	rjmp	.-580    	; 0x1f4c <menu_phwert_kalibrieren+0x92>

00002190 <funkt_menu_temperatur_offet>:
    2190:	81 e0       	ldi	r24, 0x01	; 1
    2192:	0e 94 75 06 	call	0xcea	; 0xcea <lcd_command>
    2196:	83 e0       	ldi	r24, 0x03	; 3
    2198:	93 e0       	ldi	r25, 0x03	; 3
    219a:	0e 94 74 0d 	call	0x1ae8	; 0x1ae8 <menue_temperatur_offset>
    219e:	81 e0       	ldi	r24, 0x01	; 1
    21a0:	0e 94 75 06 	call	0xcea	; 0xcea <lcd_command>
    21a4:	08 95       	ret

000021a6 <funkt_menu_heizer>:
    21a6:	0f 93       	push	r16
    21a8:	1f 93       	push	r17
    21aa:	cf 93       	push	r28
    21ac:	df 93       	push	r29
    21ae:	81 e0       	ldi	r24, 0x01	; 1
    21b0:	0e 94 75 06 	call	0xcea	; 0xcea <lcd_command>
    21b4:	cd ed       	ldi	r28, 0xDD	; 221
    21b6:	d3 e0       	ldi	r29, 0x03	; 3
    21b8:	ce 01       	movw	r24, r28
    21ba:	66 e7       	ldi	r22, 0x76	; 118
    21bc:	74 e0       	ldi	r23, 0x04	; 4
    21be:	0e 94 b2 1d 	call	0x3b64	; 0x3b64 <strcpy_P>
    21c2:	ac 01       	movw	r20, r24
    21c4:	81 e0       	ldi	r24, 0x01	; 1
    21c6:	61 e0       	ldi	r22, 0x01	; 1
    21c8:	0e 94 8f 05 	call	0xb1e	; 0xb1e <lcd_printlrc>
    21cc:	ce 01       	movw	r24, r28
    21ce:	6a e6       	ldi	r22, 0x6A	; 106
    21d0:	74 e0       	ldi	r23, 0x04	; 4
    21d2:	0e 94 b2 1d 	call	0x3b64	; 0x3b64 <strcpy_P>
    21d6:	ec 01       	movw	r28, r24
    21d8:	8b e2       	ldi	r24, 0x2B	; 43
    21da:	94 e0       	ldi	r25, 0x04	; 4
    21dc:	6e e5       	ldi	r22, 0x5E	; 94
    21de:	74 e0       	ldi	r23, 0x04	; 4
    21e0:	0e 94 b2 1d 	call	0x3b64	; 0x3b64 <strcpy_P>
    21e4:	8c 01       	movw	r16, r24
    21e6:	8e e4       	ldi	r24, 0x4E	; 78
    21e8:	94 e0       	ldi	r25, 0x04	; 4
    21ea:	63 e5       	ldi	r22, 0x53	; 83
    21ec:	74 e0       	ldi	r23, 0x04	; 4
    21ee:	0e 94 b2 1d 	call	0x3b64	; 0x3b64 <strcpy_P>
    21f2:	ac 01       	movw	r20, r24
    21f4:	ce 01       	movw	r24, r28
    21f6:	b8 01       	movw	r22, r16
    21f8:	26 e0       	ldi	r18, 0x06	; 6
    21fa:	34 e0       	ldi	r19, 0x04	; 4
    21fc:	08 e0       	ldi	r16, 0x08	; 8
    21fe:	10 e0       	ldi	r17, 0x00	; 0
    2200:	0e 94 0c 0e 	call	0x1c18	; 0x1c18 <menue_schalttemperaturen_einstellen>
    2204:	81 e0       	ldi	r24, 0x01	; 1
    2206:	0e 94 75 06 	call	0xcea	; 0xcea <lcd_command>
    220a:	df 91       	pop	r29
    220c:	cf 91       	pop	r28
    220e:	1f 91       	pop	r17
    2210:	0f 91       	pop	r16
    2212:	08 95       	ret

00002214 <funkt_menu_luefter>:
    2214:	0f 93       	push	r16
    2216:	1f 93       	push	r17
    2218:	cf 93       	push	r28
    221a:	df 93       	push	r29
    221c:	81 e0       	ldi	r24, 0x01	; 1
    221e:	0e 94 75 06 	call	0xcea	; 0xcea <lcd_command>
    2222:	cd ed       	ldi	r28, 0xDD	; 221
    2224:	d3 e0       	ldi	r29, 0x03	; 3
    2226:	ce 01       	movw	r24, r28
    2228:	6f e3       	ldi	r22, 0x3F	; 63
    222a:	74 e0       	ldi	r23, 0x04	; 4
    222c:	0e 94 b2 1d 	call	0x3b64	; 0x3b64 <strcpy_P>
    2230:	ac 01       	movw	r20, r24
    2232:	81 e0       	ldi	r24, 0x01	; 1
    2234:	61 e0       	ldi	r22, 0x01	; 1
    2236:	0e 94 8f 05 	call	0xb1e	; 0xb1e <lcd_printlrc>
    223a:	ce 01       	movw	r24, r28
    223c:	62 e3       	ldi	r22, 0x32	; 50
    223e:	74 e0       	ldi	r23, 0x04	; 4
    2240:	0e 94 b2 1d 	call	0x3b64	; 0x3b64 <strcpy_P>
    2244:	ec 01       	movw	r28, r24
    2246:	8b e2       	ldi	r24, 0x2B	; 43
    2248:	94 e0       	ldi	r25, 0x04	; 4
    224a:	65 e2       	ldi	r22, 0x25	; 37
    224c:	74 e0       	ldi	r23, 0x04	; 4
    224e:	0e 94 b2 1d 	call	0x3b64	; 0x3b64 <strcpy_P>
    2252:	8c 01       	movw	r16, r24
    2254:	8e e4       	ldi	r24, 0x4E	; 78
    2256:	94 e0       	ldi	r25, 0x04	; 4
    2258:	6a e1       	ldi	r22, 0x1A	; 26
    225a:	74 e0       	ldi	r23, 0x04	; 4
    225c:	0e 94 b2 1d 	call	0x3b64	; 0x3b64 <strcpy_P>
    2260:	ac 01       	movw	r20, r24
    2262:	ce 01       	movw	r24, r28
    2264:	b8 01       	movw	r22, r16
    2266:	27 ed       	ldi	r18, 0xD7	; 215
    2268:	33 e0       	ldi	r19, 0x03	; 3
    226a:	0e e0       	ldi	r16, 0x0E	; 14
    226c:	10 e0       	ldi	r17, 0x00	; 0
    226e:	0e 94 0c 0e 	call	0x1c18	; 0x1c18 <menue_schalttemperaturen_einstellen>
    2272:	81 e0       	ldi	r24, 0x01	; 1
    2274:	0e 94 75 06 	call	0xcea	; 0xcea <lcd_command>
    2278:	df 91       	pop	r29
    227a:	cf 91       	pop	r28
    227c:	1f 91       	pop	r17
    227e:	0f 91       	pop	r16
    2280:	08 95       	ret

00002282 <funkt_menu_alarm>:
    2282:	0f 93       	push	r16
    2284:	1f 93       	push	r17
    2286:	cf 93       	push	r28
    2288:	df 93       	push	r29
    228a:	81 e0       	ldi	r24, 0x01	; 1
    228c:	0e 94 75 06 	call	0xcea	; 0xcea <lcd_command>
    2290:	cd ed       	ldi	r28, 0xDD	; 221
    2292:	d3 e0       	ldi	r29, 0x03	; 3
    2294:	ce 01       	movw	r24, r28
    2296:	66 e0       	ldi	r22, 0x06	; 6
    2298:	74 e0       	ldi	r23, 0x04	; 4
    229a:	0e 94 b2 1d 	call	0x3b64	; 0x3b64 <strcpy_P>
    229e:	ac 01       	movw	r20, r24
    22a0:	81 e0       	ldi	r24, 0x01	; 1
    22a2:	61 e0       	ldi	r22, 0x01	; 1
    22a4:	0e 94 8f 05 	call	0xb1e	; 0xb1e <lcd_printlrc>
    22a8:	ce 01       	movw	r24, r28
    22aa:	6b ef       	ldi	r22, 0xFB	; 251
    22ac:	73 e0       	ldi	r23, 0x03	; 3
    22ae:	0e 94 b2 1d 	call	0x3b64	; 0x3b64 <strcpy_P>
    22b2:	ec 01       	movw	r28, r24
    22b4:	8b e2       	ldi	r24, 0x2B	; 43
    22b6:	94 e0       	ldi	r25, 0x04	; 4
    22b8:	60 ef       	ldi	r22, 0xF0	; 240
    22ba:	73 e0       	ldi	r23, 0x03	; 3
    22bc:	0e 94 b2 1d 	call	0x3b64	; 0x3b64 <strcpy_P>
    22c0:	8c 01       	movw	r16, r24
    22c2:	8e e4       	ldi	r24, 0x4E	; 78
    22c4:	94 e0       	ldi	r25, 0x04	; 4
    22c6:	65 ee       	ldi	r22, 0xE5	; 229
    22c8:	73 e0       	ldi	r23, 0x03	; 3
    22ca:	0e 94 b2 1d 	call	0x3b64	; 0x3b64 <strcpy_P>
    22ce:	ac 01       	movw	r20, r24
    22d0:	ce 01       	movw	r24, r28
    22d2:	b8 01       	movw	r22, r16
    22d4:	23 e1       	ldi	r18, 0x13	; 19
    22d6:	34 e0       	ldi	r19, 0x04	; 4
    22d8:	02 e0       	ldi	r16, 0x02	; 2
    22da:	10 e0       	ldi	r17, 0x00	; 0
    22dc:	0e 94 0c 0e 	call	0x1c18	; 0x1c18 <menue_schalttemperaturen_einstellen>
    22e0:	81 e0       	ldi	r24, 0x01	; 1
    22e2:	0e 94 75 06 	call	0xcea	; 0xcea <lcd_command>
    22e6:	df 91       	pop	r29
    22e8:	cf 91       	pop	r28
    22ea:	1f 91       	pop	r17
    22ec:	0f 91       	pop	r16
    22ee:	08 95       	ret

000022f0 <funkt_menu_datum>:
    22f0:	81 e0       	ldi	r24, 0x01	; 1
    22f2:	0e 94 75 06 	call	0xcea	; 0xcea <lcd_command>
    22f6:	8d ed       	ldi	r24, 0xDD	; 221
    22f8:	93 e0       	ldi	r25, 0x03	; 3
    22fa:	68 ec       	ldi	r22, 0xC8	; 200
    22fc:	73 e0       	ldi	r23, 0x03	; 3
    22fe:	0e 94 b2 1d 	call	0x3b64	; 0x3b64 <strcpy_P>
    2302:	ac 01       	movw	r20, r24
    2304:	81 e0       	ldi	r24, 0x01	; 1
    2306:	61 e0       	ldi	r22, 0x01	; 1
    2308:	0e 94 8f 05 	call	0xb1e	; 0xb1e <lcd_printlrc>
    230c:	8c e0       	ldi	r24, 0x0C	; 12
    230e:	94 e0       	ldi	r25, 0x04	; 4
    2310:	0e 94 d4 0b 	call	0x17a8	; 0x17a8 <menue_datum_einstellen>
    2314:	08 95       	ret

00002316 <funkt_menu_uhr>:
    2316:	81 e0       	ldi	r24, 0x01	; 1
    2318:	0e 94 75 06 	call	0xcea	; 0xcea <lcd_command>
    231c:	8d ed       	ldi	r24, 0xDD	; 221
    231e:	93 e0       	ldi	r25, 0x03	; 3
    2320:	6b ea       	ldi	r22, 0xAB	; 171
    2322:	73 e0       	ldi	r23, 0x03	; 3
    2324:	0e 94 b2 1d 	call	0x3b64	; 0x3b64 <strcpy_P>
    2328:	ac 01       	movw	r20, r24
    232a:	81 e0       	ldi	r24, 0x01	; 1
    232c:	61 e0       	ldi	r22, 0x01	; 1
    232e:	0e 94 8f 05 	call	0xb1e	; 0xb1e <lcd_printlrc>
    2332:	8c e0       	ldi	r24, 0x0C	; 12
    2334:	94 e0       	ldi	r25, 0x04	; 4
    2336:	60 e0       	ldi	r22, 0x00	; 0
    2338:	70 e0       	ldi	r23, 0x00	; 0
    233a:	0e 94 87 0a 	call	0x150e	; 0x150e <menue_zeiten_einstellen>
    233e:	08 95       	ret

00002340 <funkt_menu_lampe_ein>:
    2340:	81 e0       	ldi	r24, 0x01	; 1
    2342:	0e 94 75 06 	call	0xcea	; 0xcea <lcd_command>
    2346:	8d ed       	ldi	r24, 0xDD	; 221
    2348:	93 e0       	ldi	r25, 0x03	; 3
    234a:	64 e8       	ldi	r22, 0x84	; 132
    234c:	73 e0       	ldi	r23, 0x03	; 3
    234e:	0e 94 b2 1d 	call	0x3b64	; 0x3b64 <strcpy_P>
    2352:	ac 01       	movw	r20, r24
    2354:	81 e0       	ldi	r24, 0x01	; 1
    2356:	61 e0       	ldi	r22, 0x01	; 1
    2358:	0e 94 8f 05 	call	0xb1e	; 0xb1e <lcd_printlrc>
    235c:	87 e4       	ldi	r24, 0x47	; 71
    235e:	94 e0       	ldi	r25, 0x04	; 4
    2360:	60 e3       	ldi	r22, 0x30	; 48
    2362:	70 e0       	ldi	r23, 0x00	; 0
    2364:	0e 94 87 0a 	call	0x150e	; 0x150e <menue_zeiten_einstellen>
    2368:	08 95       	ret

0000236a <funkt_menu_lampe_aus>:
    236a:	81 e0       	ldi	r24, 0x01	; 1
    236c:	0e 94 75 06 	call	0xcea	; 0xcea <lcd_command>
    2370:	8d ed       	ldi	r24, 0xDD	; 221
    2372:	93 e0       	ldi	r25, 0x03	; 3
    2374:	6d e5       	ldi	r22, 0x5D	; 93
    2376:	73 e0       	ldi	r23, 0x03	; 3
    2378:	0e 94 b2 1d 	call	0x3b64	; 0x3b64 <strcpy_P>
    237c:	ac 01       	movw	r20, r24
    237e:	81 e0       	ldi	r24, 0x01	; 1
    2380:	61 e0       	ldi	r22, 0x01	; 1
    2382:	0e 94 8f 05 	call	0xb1e	; 0xb1e <lcd_printlrc>
    2386:	80 e4       	ldi	r24, 0x40	; 64
    2388:	94 e0       	ldi	r25, 0x04	; 4
    238a:	67 e3       	ldi	r22, 0x37	; 55
    238c:	70 e0       	ldi	r23, 0x00	; 0
    238e:	0e 94 87 0a 	call	0x150e	; 0x150e <menue_zeiten_einstellen>
    2392:	08 95       	ret

00002394 <funkt_menu_regenpumpe_einzeit>:
    2394:	81 e0       	ldi	r24, 0x01	; 1
    2396:	0e 94 75 06 	call	0xcea	; 0xcea <lcd_command>
    239a:	8d ed       	ldi	r24, 0xDD	; 221
    239c:	93 e0       	ldi	r25, 0x03	; 3
    239e:	6e e3       	ldi	r22, 0x3E	; 62
    23a0:	73 e0       	ldi	r23, 0x03	; 3
    23a2:	0e 94 b2 1d 	call	0x3b64	; 0x3b64 <strcpy_P>
    23a6:	ac 01       	movw	r20, r24
    23a8:	81 e0       	ldi	r24, 0x01	; 1
    23aa:	61 e0       	ldi	r22, 0x01	; 1
    23ac:	0e 94 8f 05 	call	0xb1e	; 0xb1e <lcd_printlrc>
    23b0:	84 e9       	ldi	r24, 0x94	; 148
    23b2:	94 e0       	ldi	r25, 0x04	; 4
    23b4:	6c e4       	ldi	r22, 0x4C	; 76
    23b6:	70 e0       	ldi	r23, 0x00	; 0
    23b8:	0e 94 87 0a 	call	0x150e	; 0x150e <menue_zeiten_einstellen>
    23bc:	08 95       	ret

000023be <funkt_menu_regenzeit1>:
    23be:	81 e0       	ldi	r24, 0x01	; 1
    23c0:	0e 94 75 06 	call	0xcea	; 0xcea <lcd_command>
    23c4:	8d ed       	ldi	r24, 0xDD	; 221
    23c6:	93 e0       	ldi	r25, 0x03	; 3
    23c8:	61 e3       	ldi	r22, 0x31	; 49
    23ca:	73 e0       	ldi	r23, 0x03	; 3
    23cc:	0e 94 b2 1d 	call	0x3b64	; 0x3b64 <strcpy_P>
    23d0:	ac 01       	movw	r20, r24
    23d2:	81 e0       	ldi	r24, 0x01	; 1
    23d4:	61 e0       	ldi	r22, 0x01	; 1
    23d6:	0e 94 8f 05 	call	0xb1e	; 0xb1e <lcd_printlrc>
    23da:	81 e7       	ldi	r24, 0x71	; 113
    23dc:	94 e0       	ldi	r25, 0x04	; 4
    23de:	63 e5       	ldi	r22, 0x53	; 83
    23e0:	70 e0       	ldi	r23, 0x00	; 0
    23e2:	0e 94 87 0a 	call	0x150e	; 0x150e <menue_zeiten_einstellen>
    23e6:	08 95       	ret

000023e8 <funkt_menu_regenzeit2>:
    23e8:	81 e0       	ldi	r24, 0x01	; 1
    23ea:	0e 94 75 06 	call	0xcea	; 0xcea <lcd_command>
    23ee:	8d ed       	ldi	r24, 0xDD	; 221
    23f0:	93 e0       	ldi	r25, 0x03	; 3
    23f2:	64 e2       	ldi	r22, 0x24	; 36
    23f4:	73 e0       	ldi	r23, 0x03	; 3
    23f6:	0e 94 b2 1d 	call	0x3b64	; 0x3b64 <strcpy_P>
    23fa:	ac 01       	movw	r20, r24
    23fc:	81 e0       	ldi	r24, 0x01	; 1
    23fe:	61 e0       	ldi	r22, 0x01	; 1
    2400:	0e 94 8f 05 	call	0xb1e	; 0xb1e <lcd_printlrc>
    2404:	88 e7       	ldi	r24, 0x78	; 120
    2406:	94 e0       	ldi	r25, 0x04	; 4
    2408:	6a e5       	ldi	r22, 0x5A	; 90
    240a:	70 e0       	ldi	r23, 0x00	; 0
    240c:	0e 94 87 0a 	call	0x150e	; 0x150e <menue_zeiten_einstellen>
    2410:	08 95       	ret

00002412 <funkt_menu_regenzeit3>:
    2412:	81 e0       	ldi	r24, 0x01	; 1
    2414:	0e 94 75 06 	call	0xcea	; 0xcea <lcd_command>
    2418:	8d ed       	ldi	r24, 0xDD	; 221
    241a:	93 e0       	ldi	r25, 0x03	; 3
    241c:	67 e1       	ldi	r22, 0x17	; 23
    241e:	73 e0       	ldi	r23, 0x03	; 3
    2420:	0e 94 b2 1d 	call	0x3b64	; 0x3b64 <strcpy_P>
    2424:	ac 01       	movw	r20, r24
    2426:	81 e0       	ldi	r24, 0x01	; 1
    2428:	61 e0       	ldi	r22, 0x01	; 1
    242a:	0e 94 8f 05 	call	0xb1e	; 0xb1e <lcd_printlrc>
    242e:	8f e7       	ldi	r24, 0x7F	; 127
    2430:	94 e0       	ldi	r25, 0x04	; 4
    2432:	61 e6       	ldi	r22, 0x61	; 97
    2434:	70 e0       	ldi	r23, 0x00	; 0
    2436:	0e 94 87 0a 	call	0x150e	; 0x150e <menue_zeiten_einstellen>
    243a:	08 95       	ret

0000243c <funkt_menu_regenzeit4>:
    243c:	81 e0       	ldi	r24, 0x01	; 1
    243e:	0e 94 75 06 	call	0xcea	; 0xcea <lcd_command>
    2442:	8d ed       	ldi	r24, 0xDD	; 221
    2444:	93 e0       	ldi	r25, 0x03	; 3
    2446:	6a e0       	ldi	r22, 0x0A	; 10
    2448:	73 e0       	ldi	r23, 0x03	; 3
    244a:	0e 94 b2 1d 	call	0x3b64	; 0x3b64 <strcpy_P>
    244e:	ac 01       	movw	r20, r24
    2450:	81 e0       	ldi	r24, 0x01	; 1
    2452:	61 e0       	ldi	r22, 0x01	; 1
    2454:	0e 94 8f 05 	call	0xb1e	; 0xb1e <lcd_printlrc>
    2458:	86 e8       	ldi	r24, 0x86	; 134
    245a:	94 e0       	ldi	r25, 0x04	; 4
    245c:	68 e6       	ldi	r22, 0x68	; 104
    245e:	70 e0       	ldi	r23, 0x00	; 0
    2460:	0e 94 87 0a 	call	0x150e	; 0x150e <menue_zeiten_einstellen>
    2464:	08 95       	ret

00002466 <funkt_menu_regenzeit5>:
    2466:	81 e0       	ldi	r24, 0x01	; 1
    2468:	0e 94 75 06 	call	0xcea	; 0xcea <lcd_command>
    246c:	8d ed       	ldi	r24, 0xDD	; 221
    246e:	93 e0       	ldi	r25, 0x03	; 3
    2470:	6d ef       	ldi	r22, 0xFD	; 253
    2472:	72 e0       	ldi	r23, 0x02	; 2
    2474:	0e 94 b2 1d 	call	0x3b64	; 0x3b64 <strcpy_P>
    2478:	ac 01       	movw	r20, r24
    247a:	81 e0       	ldi	r24, 0x01	; 1
    247c:	61 e0       	ldi	r22, 0x01	; 1
    247e:	0e 94 8f 05 	call	0xb1e	; 0xb1e <lcd_printlrc>
    2482:	8d e8       	ldi	r24, 0x8D	; 141
    2484:	94 e0       	ldi	r25, 0x04	; 4
    2486:	6f e6       	ldi	r22, 0x6F	; 111
    2488:	70 e0       	ldi	r23, 0x00	; 0
    248a:	0e 94 87 0a 	call	0x150e	; 0x150e <menue_zeiten_einstellen>
    248e:	08 95       	ret

00002490 <funkt_menu_regenzeitzaehler>:
    2490:	df 92       	push	r13
    2492:	ef 92       	push	r14
    2494:	ff 92       	push	r15
    2496:	0f 93       	push	r16
    2498:	1f 93       	push	r17
    249a:	cf 93       	push	r28
    249c:	df 93       	push	r29
    249e:	f0 90 05 03 	lds	r15, 0x0305
    24a2:	81 e0       	ldi	r24, 0x01	; 1
    24a4:	0e 94 75 06 	call	0xcea	; 0xcea <lcd_command>
    24a8:	81 e0       	ldi	r24, 0x01	; 1
    24aa:	61 e0       	ldi	r22, 0x01	; 1
    24ac:	4e e8       	ldi	r20, 0x8E	; 142
    24ae:	52 e0       	ldi	r21, 0x02	; 2
    24b0:	0e 94 b7 05 	call	0xb6e	; 0xb6e <lcd_printlc>
    24b4:	cb e2       	ldi	r28, 0x2B	; 43
    24b6:	d4 e0       	ldi	r29, 0x04	; 4
    24b8:	02 ea       	ldi	r16, 0xA2	; 162
    24ba:	12 e0       	ldi	r17, 0x02	; 2
    24bc:	f5 e0       	ldi	r31, 0x05	; 5
    24be:	ef 2e       	mov	r14, r31
    24c0:	00 d0       	rcall	.+0      	; 0x24c2 <funkt_menu_regenzeitzaehler+0x32>
    24c2:	00 d0       	rcall	.+0      	; 0x24c4 <funkt_menu_regenzeitzaehler+0x34>
    24c4:	00 d0       	rcall	.+0      	; 0x24c6 <funkt_menu_regenzeitzaehler+0x36>
    24c6:	ed b7       	in	r30, 0x3d	; 61
    24c8:	fe b7       	in	r31, 0x3e	; 62
    24ca:	31 96       	adiw	r30, 0x01	; 1
    24cc:	ad b7       	in	r26, 0x3d	; 61
    24ce:	be b7       	in	r27, 0x3e	; 62
    24d0:	12 96       	adiw	r26, 0x02	; 2
    24d2:	dc 93       	st	X, r29
    24d4:	ce 93       	st	-X, r28
    24d6:	11 97       	sbiw	r26, 0x01	; 1
    24d8:	13 83       	std	Z+3, r17	; 0x03
    24da:	02 83       	std	Z+2, r16	; 0x02
    24dc:	80 91 05 03 	lds	r24, 0x0305
    24e0:	99 27       	eor	r25, r25
    24e2:	87 fd       	sbrc	r24, 7
    24e4:	90 95       	com	r25
    24e6:	95 83       	std	Z+5, r25	; 0x05
    24e8:	84 83       	std	Z+4, r24	; 0x04
    24ea:	0e 94 de 1d 	call	0x3bbc	; 0x3bbc <sprintf>
    24ee:	8d b7       	in	r24, 0x3d	; 61
    24f0:	9e b7       	in	r25, 0x3e	; 62
    24f2:	06 96       	adiw	r24, 0x06	; 6
    24f4:	0f b6       	in	r0, 0x3f	; 63
    24f6:	f8 94       	cli
    24f8:	9e bf       	out	0x3e, r25	; 62
    24fa:	0f be       	out	0x3f, r0	; 63
    24fc:	8d bf       	out	0x3d, r24	; 61
    24fe:	82 e0       	ldi	r24, 0x02	; 2
    2500:	61 e0       	ldi	r22, 0x01	; 1
    2502:	ae 01       	movw	r20, r28
    2504:	0e 94 6a 05 	call	0xad4	; 0xad4 <lcd_printlr>
    2508:	84 e0       	ldi	r24, 0x04	; 4
    250a:	0e 94 85 1b 	call	0x370a	; 0x370a <get_key_press>
    250e:	d8 2e       	mov	r13, r24
    2510:	84 e0       	ldi	r24, 0x04	; 4
    2512:	0e 94 90 1b 	call	0x3720	; 0x3720 <get_key_rpt>
    2516:	8d 29       	or	r24, r13
    2518:	f1 f0       	breq	.+60     	; 0x2556 <funkt_menu_regenzeitzaehler+0xc6>
    251a:	81 e0       	ldi	r24, 0x01	; 1
    251c:	0e 94 75 06 	call	0xcea	; 0xcea <lcd_command>
    2520:	81 e0       	ldi	r24, 0x01	; 1
    2522:	61 e0       	ldi	r22, 0x01	; 1
    2524:	4e e3       	ldi	r20, 0x3E	; 62
    2526:	52 e0       	ldi	r21, 0x02	; 2
    2528:	0e 94 b7 05 	call	0xb6e	; 0xb6e <lcd_printlc>
    252c:	f8 94       	cli
    252e:	86 e7       	ldi	r24, 0x76	; 118
    2530:	90 e0       	ldi	r25, 0x00	; 0
    2532:	60 91 05 03 	lds	r22, 0x0305
    2536:	0e 94 0a 20 	call	0x4014	; 0x4014 <__eewr_byte_m644p>
    253a:	78 94       	sei
    253c:	8f ef       	ldi	r24, 0xFF	; 255
    253e:	99 e6       	ldi	r25, 0x69	; 105
    2540:	a8 e1       	ldi	r26, 0x18	; 24
    2542:	81 50       	subi	r24, 0x01	; 1
    2544:	90 40       	sbci	r25, 0x00	; 0
    2546:	a0 40       	sbci	r26, 0x00	; 0
    2548:	e1 f7       	brne	.-8      	; 0x2542 <funkt_menu_regenzeitzaehler+0xb2>
    254a:	00 c0       	rjmp	.+0      	; 0x254c <funkt_menu_regenzeitzaehler+0xbc>
    254c:	00 00       	nop
    254e:	81 e0       	ldi	r24, 0x01	; 1
    2550:	0e 94 75 06 	call	0xcea	; 0xcea <lcd_command>
    2554:	33 c0       	rjmp	.+102    	; 0x25bc <funkt_menu_regenzeitzaehler+0x12c>
    2556:	80 e2       	ldi	r24, 0x20	; 32
    2558:	0e 94 85 1b 	call	0x370a	; 0x370a <get_key_press>
    255c:	d8 2e       	mov	r13, r24
    255e:	80 e2       	ldi	r24, 0x20	; 32
    2560:	0e 94 90 1b 	call	0x3720	; 0x3720 <get_key_rpt>
    2564:	8d 29       	or	r24, r13
    2566:	19 f0       	breq	.+6      	; 0x256e <funkt_menu_regenzeitzaehler+0xde>
    2568:	f0 92 05 03 	sts	0x0305, r15
    256c:	27 c0       	rjmp	.+78     	; 0x25bc <funkt_menu_regenzeitzaehler+0x12c>
    256e:	81 e0       	ldi	r24, 0x01	; 1
    2570:	0e 94 85 1b 	call	0x370a	; 0x370a <get_key_press>
    2574:	d8 2e       	mov	r13, r24
    2576:	81 e0       	ldi	r24, 0x01	; 1
    2578:	0e 94 90 1b 	call	0x3720	; 0x3720 <get_key_rpt>
    257c:	8d 29       	or	r24, r13
    257e:	49 f0       	breq	.+18     	; 0x2592 <funkt_menu_regenzeitzaehler+0x102>
    2580:	80 91 05 03 	lds	r24, 0x0305
    2584:	85 30       	cpi	r24, 0x05	; 5
    2586:	19 f4       	brne	.+6      	; 0x258e <funkt_menu_regenzeitzaehler+0xfe>
    2588:	10 92 05 03 	sts	0x0305, r1
    258c:	99 cf       	rjmp	.-206    	; 0x24c0 <funkt_menu_regenzeitzaehler+0x30>
    258e:	8f 5f       	subi	r24, 0xFF	; 255
    2590:	12 c0       	rjmp	.+36     	; 0x25b6 <funkt_menu_regenzeitzaehler+0x126>
    2592:	80 e1       	ldi	r24, 0x10	; 16
    2594:	0e 94 85 1b 	call	0x370a	; 0x370a <get_key_press>
    2598:	d8 2e       	mov	r13, r24
    259a:	80 e1       	ldi	r24, 0x10	; 16
    259c:	0e 94 90 1b 	call	0x3720	; 0x3720 <get_key_rpt>
    25a0:	8d 29       	or	r24, r13
    25a2:	09 f4       	brne	.+2      	; 0x25a6 <funkt_menu_regenzeitzaehler+0x116>
    25a4:	b1 cf       	rjmp	.-158    	; 0x2508 <funkt_menu_regenzeitzaehler+0x78>
    25a6:	80 91 05 03 	lds	r24, 0x0305
    25aa:	88 23       	and	r24, r24
    25ac:	19 f4       	brne	.+6      	; 0x25b4 <funkt_menu_regenzeitzaehler+0x124>
    25ae:	e0 92 05 03 	sts	0x0305, r14
    25b2:	86 cf       	rjmp	.-244    	; 0x24c0 <funkt_menu_regenzeitzaehler+0x30>
    25b4:	81 50       	subi	r24, 0x01	; 1
    25b6:	80 93 05 03 	sts	0x0305, r24
    25ba:	82 cf       	rjmp	.-252    	; 0x24c0 <funkt_menu_regenzeitzaehler+0x30>
    25bc:	df 91       	pop	r29
    25be:	cf 91       	pop	r28
    25c0:	1f 91       	pop	r17
    25c2:	0f 91       	pop	r16
    25c4:	ff 90       	pop	r15
    25c6:	ef 90       	pop	r14
    25c8:	df 90       	pop	r13
    25ca:	08 95       	ret

000025cc <funkt_menu_mondlicht_ein>:
    25cc:	81 e0       	ldi	r24, 0x01	; 1
    25ce:	0e 94 75 06 	call	0xcea	; 0xcea <lcd_command>
    25d2:	8d ed       	ldi	r24, 0xDD	; 221
    25d4:	93 e0       	ldi	r25, 0x03	; 3
    25d6:	63 ed       	ldi	r22, 0xD3	; 211
    25d8:	72 e0       	ldi	r23, 0x02	; 2
    25da:	0e 94 b2 1d 	call	0x3b64	; 0x3b64 <strcpy_P>
    25de:	ac 01       	movw	r20, r24
    25e0:	81 e0       	ldi	r24, 0x01	; 1
    25e2:	61 e0       	ldi	r22, 0x01	; 1
    25e4:	0e 94 8f 05 	call	0xb1e	; 0xb1e <lcd_printlrc>
    25e8:	83 e6       	ldi	r24, 0x63	; 99
    25ea:	94 e0       	ldi	r25, 0x04	; 4
    25ec:	6e e3       	ldi	r22, 0x3E	; 62
    25ee:	70 e0       	ldi	r23, 0x00	; 0
    25f0:	0e 94 87 0a 	call	0x150e	; 0x150e <menue_zeiten_einstellen>
    25f4:	08 95       	ret

000025f6 <funkt_menu_mondlicht_aus>:
    25f6:	81 e0       	ldi	r24, 0x01	; 1
    25f8:	0e 94 75 06 	call	0xcea	; 0xcea <lcd_command>
    25fc:	8d ed       	ldi	r24, 0xDD	; 221
    25fe:	93 e0       	ldi	r25, 0x03	; 3
    2600:	68 ea       	ldi	r22, 0xA8	; 168
    2602:	72 e0       	ldi	r23, 0x02	; 2
    2604:	0e 94 b2 1d 	call	0x3b64	; 0x3b64 <strcpy_P>
    2608:	ac 01       	movw	r20, r24
    260a:	81 e0       	ldi	r24, 0x01	; 1
    260c:	61 e0       	ldi	r22, 0x01	; 1
    260e:	0e 94 8f 05 	call	0xb1e	; 0xb1e <lcd_printlrc>
    2612:	8a e6       	ldi	r24, 0x6A	; 106
    2614:	94 e0       	ldi	r25, 0x04	; 4
    2616:	65 e4       	ldi	r22, 0x45	; 69
    2618:	70 e0       	ldi	r23, 0x00	; 0
    261a:	0e 94 87 0a 	call	0x150e	; 0x150e <menue_zeiten_einstellen>
    261e:	81 e0       	ldi	r24, 0x01	; 1
    2620:	0e 94 75 06 	call	0xcea	; 0xcea <lcd_command>
    2624:	08 95       	ret

00002626 <funkt_menu_phwert_kalibrieren>:
    2626:	0e 94 5d 0f 	call	0x1eba	; 0x1eba <menu_phwert_kalibrieren>
    262a:	f8 94       	cli
    262c:	82 ea       	ldi	r24, 0xA2	; 162
    262e:	93 e0       	ldi	r25, 0x03	; 3
    2630:	6a e1       	ldi	r22, 0x1A	; 26
    2632:	70 e0       	ldi	r23, 0x00	; 0
    2634:	46 e1       	ldi	r20, 0x16	; 22
    2636:	50 e0       	ldi	r21, 0x00	; 0
    2638:	0e 94 00 20 	call	0x4000	; 0x4000 <__eewr_block_m644p>
    263c:	78 94       	sei
    263e:	08 95       	ret

00002640 <funkt_menu_about>:
    2640:	81 e0       	ldi	r24, 0x01	; 1
    2642:	0e 94 75 06 	call	0xcea	; 0xcea <lcd_command>
    2646:	8d ed       	ldi	r24, 0xDD	; 221
    2648:	93 e0       	ldi	r25, 0x03	; 3
    264a:	64 e7       	ldi	r22, 0x74	; 116
    264c:	72 e0       	ldi	r23, 0x02	; 2
    264e:	0e 94 b2 1d 	call	0x3b64	; 0x3b64 <strcpy_P>
    2652:	ac 01       	movw	r20, r24
    2654:	81 e0       	ldi	r24, 0x01	; 1
    2656:	61 e0       	ldi	r22, 0x01	; 1
    2658:	0e 94 8f 05 	call	0xb1e	; 0xb1e <lcd_printlrc>
    265c:	8d ed       	ldi	r24, 0xDD	; 221
    265e:	93 e0       	ldi	r25, 0x03	; 3
    2660:	66 e6       	ldi	r22, 0x66	; 102
    2662:	72 e0       	ldi	r23, 0x02	; 2
    2664:	0e 94 b2 1d 	call	0x3b64	; 0x3b64 <strcpy_P>
    2668:	ac 01       	movw	r20, r24
    266a:	82 e0       	ldi	r24, 0x02	; 2
    266c:	61 e0       	ldi	r22, 0x01	; 1
    266e:	0e 94 8f 05 	call	0xb1e	; 0xb1e <lcd_printlrc>
    2672:	8d ed       	ldi	r24, 0xDD	; 221
    2674:	93 e0       	ldi	r25, 0x03	; 3
    2676:	65 e5       	ldi	r22, 0x55	; 85
    2678:	72 e0       	ldi	r23, 0x02	; 2
    267a:	0e 94 b2 1d 	call	0x3b64	; 0x3b64 <strcpy_P>
    267e:	ac 01       	movw	r20, r24
    2680:	83 e0       	ldi	r24, 0x03	; 3
    2682:	61 e0       	ldi	r22, 0x01	; 1
    2684:	0e 94 8f 05 	call	0xb1e	; 0xb1e <lcd_printlrc>
    2688:	8d ed       	ldi	r24, 0xDD	; 221
    268a:	93 e0       	ldi	r25, 0x03	; 3
    268c:	6d e4       	ldi	r22, 0x4D	; 77
    268e:	72 e0       	ldi	r23, 0x02	; 2
    2690:	0e 94 b2 1d 	call	0x3b64	; 0x3b64 <strcpy_P>
    2694:	ac 01       	movw	r20, r24
    2696:	84 e0       	ldi	r24, 0x04	; 4
    2698:	61 e0       	ldi	r22, 0x01	; 1
    269a:	0e 94 8f 05 	call	0xb1e	; 0xb1e <lcd_printlrc>
    269e:	8f ef       	ldi	r24, 0xFF	; 255
    26a0:	0e 94 85 1b 	call	0x370a	; 0x370a <get_key_press>
    26a4:	88 23       	and	r24, r24
    26a6:	d9 f3       	breq	.-10     	; 0x269e <funkt_menu_about+0x5e>
    26a8:	81 e0       	ldi	r24, 0x01	; 1
    26aa:	0e 94 75 06 	call	0xcea	; 0xcea <lcd_command>
    26ae:	08 95       	ret

000026b0 <funkt_menu_max_werte>:
    26b0:	0f 93       	push	r16
    26b2:	1f 93       	push	r17
    26b4:	cf 93       	push	r28
    26b6:	df 93       	push	r29
    26b8:	81 e0       	ldi	r24, 0x01	; 1
    26ba:	0e 94 75 06 	call	0xcea	; 0xcea <lcd_command>
    26be:	8d ed       	ldi	r24, 0xDD	; 221
    26c0:	93 e0       	ldi	r25, 0x03	; 3
    26c2:	66 e4       	ldi	r22, 0x46	; 70
    26c4:	72 e0       	ldi	r23, 0x02	; 2
    26c6:	0e 94 b2 1d 	call	0x3b64	; 0x3b64 <strcpy_P>
    26ca:	ac 01       	movw	r20, r24
    26cc:	81 e0       	ldi	r24, 0x01	; 1
    26ce:	61 e0       	ldi	r22, 0x01	; 1
    26d0:	0e 94 8f 05 	call	0xb1e	; 0xb1e <lcd_printlrc>
    26d4:	cb e2       	ldi	r28, 0x2B	; 43
    26d6:	d4 e0       	ldi	r29, 0x04	; 4
    26d8:	80 91 19 04 	lds	r24, 0x0419
    26dc:	90 91 1a 04 	lds	r25, 0x041A
    26e0:	be 01       	movw	r22, r28
    26e2:	0e 94 45 09 	call	0x128a	; 0x128a <temperatur_to_string>
    26e6:	ce 01       	movw	r24, r28
    26e8:	0e 94 1b 05 	call	0xa36	; 0xa36 <lcd_print>
    26ec:	8d b7       	in	r24, 0x3d	; 61
    26ee:	9e b7       	in	r25, 0x3e	; 62
    26f0:	0a 97       	sbiw	r24, 0x0a	; 10
    26f2:	0f b6       	in	r0, 0x3f	; 63
    26f4:	f8 94       	cli
    26f6:	9e bf       	out	0x3e, r25	; 62
    26f8:	0f be       	out	0x3f, r0	; 63
    26fa:	8d bf       	out	0x3d, r24	; 61
    26fc:	ed b7       	in	r30, 0x3d	; 61
    26fe:	fe b7       	in	r31, 0x3e	; 62
    2700:	31 96       	adiw	r30, 0x01	; 1
    2702:	ad b7       	in	r26, 0x3d	; 61
    2704:	be b7       	in	r27, 0x3e	; 62
    2706:	12 96       	adiw	r26, 0x02	; 2
    2708:	dc 93       	st	X, r29
    270a:	ce 93       	st	-X, r28
    270c:	11 97       	sbiw	r26, 0x01	; 1
    270e:	09 e1       	ldi	r16, 0x19	; 25
    2710:	12 e0       	ldi	r17, 0x02	; 2
    2712:	13 83       	std	Z+3, r17	; 0x03
    2714:	02 83       	std	Z+2, r16	; 0x02
    2716:	80 91 1f 04 	lds	r24, 0x041F
    271a:	84 83       	std	Z+4, r24	; 0x04
    271c:	15 82       	std	Z+5, r1	; 0x05
    271e:	80 91 1d 04 	lds	r24, 0x041D
    2722:	86 83       	std	Z+6, r24	; 0x06
    2724:	17 82       	std	Z+7, r1	; 0x07
    2726:	80 91 1e 04 	lds	r24, 0x041E
    272a:	80 87       	std	Z+8, r24	; 0x08
    272c:	11 86       	std	Z+9, r1	; 0x09
    272e:	0e 94 de 1d 	call	0x3bbc	; 0x3bbc <sprintf>
    2732:	8d b7       	in	r24, 0x3d	; 61
    2734:	9e b7       	in	r25, 0x3e	; 62
    2736:	0a 96       	adiw	r24, 0x0a	; 10
    2738:	0f b6       	in	r0, 0x3f	; 63
    273a:	f8 94       	cli
    273c:	9e bf       	out	0x3e, r25	; 62
    273e:	0f be       	out	0x3f, r0	; 63
    2740:	8d bf       	out	0x3d, r24	; 61
    2742:	81 e0       	ldi	r24, 0x01	; 1
    2744:	6d e0       	ldi	r22, 0x0D	; 13
    2746:	ae 01       	movw	r20, r28
    2748:	0e 94 8f 05 	call	0xb1e	; 0xb1e <lcd_printlrc>
    274c:	8d ed       	ldi	r24, 0xDD	; 221
    274e:	93 e0       	ldi	r25, 0x03	; 3
    2750:	6f e3       	ldi	r22, 0x3F	; 63
    2752:	72 e0       	ldi	r23, 0x02	; 2
    2754:	0e 94 b2 1d 	call	0x3b64	; 0x3b64 <strcpy_P>
    2758:	ac 01       	movw	r20, r24
    275a:	82 e0       	ldi	r24, 0x02	; 2
    275c:	61 e0       	ldi	r22, 0x01	; 1
    275e:	0e 94 8f 05 	call	0xb1e	; 0xb1e <lcd_printlrc>
    2762:	80 91 1b 04 	lds	r24, 0x041B
    2766:	90 91 1c 04 	lds	r25, 0x041C
    276a:	be 01       	movw	r22, r28
    276c:	0e 94 45 09 	call	0x128a	; 0x128a <temperatur_to_string>
    2770:	ce 01       	movw	r24, r28
    2772:	0e 94 1b 05 	call	0xa36	; 0xa36 <lcd_print>
    2776:	ad b7       	in	r26, 0x3d	; 61
    2778:	be b7       	in	r27, 0x3e	; 62
    277a:	1a 97       	sbiw	r26, 0x0a	; 10
    277c:	0f b6       	in	r0, 0x3f	; 63
    277e:	f8 94       	cli
    2780:	be bf       	out	0x3e, r27	; 62
    2782:	0f be       	out	0x3f, r0	; 63
    2784:	ad bf       	out	0x3d, r26	; 61
    2786:	ed b7       	in	r30, 0x3d	; 61
    2788:	fe b7       	in	r31, 0x3e	; 62
    278a:	31 96       	adiw	r30, 0x01	; 1
    278c:	12 96       	adiw	r26, 0x02	; 2
    278e:	dc 93       	st	X, r29
    2790:	ce 93       	st	-X, r28
    2792:	11 97       	sbiw	r26, 0x01	; 1
    2794:	13 83       	std	Z+3, r17	; 0x03
    2796:	02 83       	std	Z+2, r16	; 0x02
    2798:	80 91 26 04 	lds	r24, 0x0426
    279c:	84 83       	std	Z+4, r24	; 0x04
    279e:	15 82       	std	Z+5, r1	; 0x05
    27a0:	80 91 24 04 	lds	r24, 0x0424
    27a4:	86 83       	std	Z+6, r24	; 0x06
    27a6:	17 82       	std	Z+7, r1	; 0x07
    27a8:	80 91 25 04 	lds	r24, 0x0425
    27ac:	80 87       	std	Z+8, r24	; 0x08
    27ae:	11 86       	std	Z+9, r1	; 0x09
    27b0:	0e 94 de 1d 	call	0x3bbc	; 0x3bbc <sprintf>
    27b4:	8d b7       	in	r24, 0x3d	; 61
    27b6:	9e b7       	in	r25, 0x3e	; 62
    27b8:	0a 96       	adiw	r24, 0x0a	; 10
    27ba:	0f b6       	in	r0, 0x3f	; 63
    27bc:	f8 94       	cli
    27be:	9e bf       	out	0x3e, r25	; 62
    27c0:	0f be       	out	0x3f, r0	; 63
    27c2:	8d bf       	out	0x3d, r24	; 61
    27c4:	82 e0       	ldi	r24, 0x02	; 2
    27c6:	6d e0       	ldi	r22, 0x0D	; 13
    27c8:	ae 01       	movw	r20, r28
    27ca:	0e 94 8f 05 	call	0xb1e	; 0xb1e <lcd_printlrc>
    27ce:	8d ed       	ldi	r24, 0xDD	; 221
    27d0:	93 e0       	ldi	r25, 0x03	; 3
    27d2:	68 e3       	ldi	r22, 0x38	; 56
    27d4:	72 e0       	ldi	r23, 0x02	; 2
    27d6:	0e 94 b2 1d 	call	0x3b64	; 0x3b64 <strcpy_P>
    27da:	ac 01       	movw	r20, r24
    27dc:	83 e0       	ldi	r24, 0x03	; 3
    27de:	61 e0       	ldi	r22, 0x01	; 1
    27e0:	0e 94 8f 05 	call	0xb1e	; 0xb1e <lcd_printlrc>
    27e4:	80 91 c5 03 	lds	r24, 0x03C5
    27e8:	90 91 c6 03 	lds	r25, 0x03C6
    27ec:	be 01       	movw	r22, r28
    27ee:	0e 94 58 0a 	call	0x14b0	; 0x14b0 <phwert_to_string>
    27f2:	ce 01       	movw	r24, r28
    27f4:	0e 94 1b 05 	call	0xa36	; 0xa36 <lcd_print>
    27f8:	ad b7       	in	r26, 0x3d	; 61
    27fa:	be b7       	in	r27, 0x3e	; 62
    27fc:	1a 97       	sbiw	r26, 0x0a	; 10
    27fe:	0f b6       	in	r0, 0x3f	; 63
    2800:	f8 94       	cli
    2802:	be bf       	out	0x3e, r27	; 62
    2804:	0f be       	out	0x3f, r0	; 63
    2806:	ad bf       	out	0x3d, r26	; 61
    2808:	ed b7       	in	r30, 0x3d	; 61
    280a:	fe b7       	in	r31, 0x3e	; 62
    280c:	31 96       	adiw	r30, 0x01	; 1
    280e:	12 96       	adiw	r26, 0x02	; 2
    2810:	dc 93       	st	X, r29
    2812:	ce 93       	st	-X, r28
    2814:	11 97       	sbiw	r26, 0x01	; 1
    2816:	13 83       	std	Z+3, r17	; 0x03
    2818:	02 83       	std	Z+2, r16	; 0x02
    281a:	80 91 cb 03 	lds	r24, 0x03CB
    281e:	84 83       	std	Z+4, r24	; 0x04
    2820:	15 82       	std	Z+5, r1	; 0x05
    2822:	80 91 c9 03 	lds	r24, 0x03C9
    2826:	86 83       	std	Z+6, r24	; 0x06
    2828:	17 82       	std	Z+7, r1	; 0x07
    282a:	80 91 ca 03 	lds	r24, 0x03CA
    282e:	80 87       	std	Z+8, r24	; 0x08
    2830:	11 86       	std	Z+9, r1	; 0x09
    2832:	0e 94 de 1d 	call	0x3bbc	; 0x3bbc <sprintf>
    2836:	8d b7       	in	r24, 0x3d	; 61
    2838:	9e b7       	in	r25, 0x3e	; 62
    283a:	0a 96       	adiw	r24, 0x0a	; 10
    283c:	0f b6       	in	r0, 0x3f	; 63
    283e:	f8 94       	cli
    2840:	9e bf       	out	0x3e, r25	; 62
    2842:	0f be       	out	0x3f, r0	; 63
    2844:	8d bf       	out	0x3d, r24	; 61
    2846:	83 e0       	ldi	r24, 0x03	; 3
    2848:	6d e0       	ldi	r22, 0x0D	; 13
    284a:	ae 01       	movw	r20, r28
    284c:	0e 94 8f 05 	call	0xb1e	; 0xb1e <lcd_printlrc>
    2850:	8d ed       	ldi	r24, 0xDD	; 221
    2852:	93 e0       	ldi	r25, 0x03	; 3
    2854:	61 e3       	ldi	r22, 0x31	; 49
    2856:	72 e0       	ldi	r23, 0x02	; 2
    2858:	0e 94 b2 1d 	call	0x3b64	; 0x3b64 <strcpy_P>
    285c:	ac 01       	movw	r20, r24
    285e:	84 e0       	ldi	r24, 0x04	; 4
    2860:	61 e0       	ldi	r22, 0x01	; 1
    2862:	0e 94 8f 05 	call	0xb1e	; 0xb1e <lcd_printlrc>
    2866:	80 91 c7 03 	lds	r24, 0x03C7
    286a:	90 91 c8 03 	lds	r25, 0x03C8
    286e:	be 01       	movw	r22, r28
    2870:	0e 94 58 0a 	call	0x14b0	; 0x14b0 <phwert_to_string>
    2874:	ce 01       	movw	r24, r28
    2876:	0e 94 1b 05 	call	0xa36	; 0xa36 <lcd_print>
    287a:	ad b7       	in	r26, 0x3d	; 61
    287c:	be b7       	in	r27, 0x3e	; 62
    287e:	1a 97       	sbiw	r26, 0x0a	; 10
    2880:	0f b6       	in	r0, 0x3f	; 63
    2882:	f8 94       	cli
    2884:	be bf       	out	0x3e, r27	; 62
    2886:	0f be       	out	0x3f, r0	; 63
    2888:	ad bf       	out	0x3d, r26	; 61
    288a:	ed b7       	in	r30, 0x3d	; 61
    288c:	fe b7       	in	r31, 0x3e	; 62
    288e:	31 96       	adiw	r30, 0x01	; 1
    2890:	12 96       	adiw	r26, 0x02	; 2
    2892:	dc 93       	st	X, r29
    2894:	ce 93       	st	-X, r28
    2896:	11 97       	sbiw	r26, 0x01	; 1
    2898:	13 83       	std	Z+3, r17	; 0x03
    289a:	02 83       	std	Z+2, r16	; 0x02
    289c:	80 91 d2 03 	lds	r24, 0x03D2
    28a0:	84 83       	std	Z+4, r24	; 0x04
    28a2:	15 82       	std	Z+5, r1	; 0x05
    28a4:	80 91 d0 03 	lds	r24, 0x03D0
    28a8:	86 83       	std	Z+6, r24	; 0x06
    28aa:	17 82       	std	Z+7, r1	; 0x07
    28ac:	80 91 d1 03 	lds	r24, 0x03D1
    28b0:	80 87       	std	Z+8, r24	; 0x08
    28b2:	11 86       	std	Z+9, r1	; 0x09
    28b4:	0e 94 de 1d 	call	0x3bbc	; 0x3bbc <sprintf>
    28b8:	8d b7       	in	r24, 0x3d	; 61
    28ba:	9e b7       	in	r25, 0x3e	; 62
    28bc:	0a 96       	adiw	r24, 0x0a	; 10
    28be:	0f b6       	in	r0, 0x3f	; 63
    28c0:	f8 94       	cli
    28c2:	9e bf       	out	0x3e, r25	; 62
    28c4:	0f be       	out	0x3f, r0	; 63
    28c6:	8d bf       	out	0x3d, r24	; 61
    28c8:	84 e0       	ldi	r24, 0x04	; 4
    28ca:	6d e0       	ldi	r22, 0x0D	; 13
    28cc:	ae 01       	movw	r20, r28
    28ce:	0e 94 8f 05 	call	0xb1e	; 0xb1e <lcd_printlrc>
    28d2:	8f ef       	ldi	r24, 0xFF	; 255
    28d4:	0e 94 85 1b 	call	0x370a	; 0x370a <get_key_press>
    28d8:	88 23       	and	r24, r24
    28da:	d9 f3       	breq	.-10     	; 0x28d2 <funkt_menu_max_werte+0x222>
    28dc:	81 e0       	ldi	r24, 0x01	; 1
    28de:	0e 94 75 06 	call	0xcea	; 0xcea <lcd_command>
    28e2:	df 91       	pop	r29
    28e4:	cf 91       	pop	r28
    28e6:	1f 91       	pop	r17
    28e8:	0f 91       	pop	r16
    28ea:	08 95       	ret

000028ec <vergleiche_temperaturen>:
    28ec:	fa 01       	movw	r30, r20
    28ee:	20 81       	ld	r18, Z
    28f0:	31 81       	ldd	r19, Z+1	; 0x01
    28f2:	fb 01       	movw	r30, r22
    28f4:	40 81       	ld	r20, Z
    28f6:	51 81       	ldd	r21, Z+1	; 0x01
    28f8:	42 17       	cp	r20, r18
    28fa:	53 07       	cpc	r21, r19
    28fc:	44 f0       	brlt	.+16     	; 0x290e <vergleiche_temperaturen+0x22>
    28fe:	fc 01       	movw	r30, r24
    2900:	80 81       	ld	r24, Z
    2902:	91 81       	ldd	r25, Z+1	; 0x01
    2904:	28 17       	cp	r18, r24
    2906:	39 07       	cpc	r19, r25
    2908:	24 f4       	brge	.+8      	; 0x2912 <vergleiche_temperaturen+0x26>
    290a:	82 e0       	ldi	r24, 0x02	; 2
    290c:	08 95       	ret
    290e:	81 e0       	ldi	r24, 0x01	; 1
    2910:	08 95       	ret
    2912:	80 e0       	ldi	r24, 0x00	; 0
    2914:	08 95       	ret

00002916 <vergleiche_zeiten>:
    2916:	4f 92       	push	r4
    2918:	5f 92       	push	r5
    291a:	6f 92       	push	r6
    291c:	7f 92       	push	r7
    291e:	8f 92       	push	r8
    2920:	9f 92       	push	r9
    2922:	af 92       	push	r10
    2924:	bf 92       	push	r11
    2926:	cf 92       	push	r12
    2928:	df 92       	push	r13
    292a:	ef 92       	push	r14
    292c:	ff 92       	push	r15
    292e:	0f 93       	push	r16
    2930:	1f 93       	push	r17
    2932:	cf 93       	push	r28
    2934:	df 93       	push	r29
    2936:	ec 01       	movw	r28, r24
    2938:	5b 01       	movw	r10, r22
    293a:	2a 01       	movw	r4, r20
    293c:	6a 81       	ldd	r22, Y+2	; 0x02
    293e:	70 e0       	ldi	r23, 0x00	; 0
    2940:	80 e0       	ldi	r24, 0x00	; 0
    2942:	90 e0       	ldi	r25, 0x00	; 0
    2944:	20 e1       	ldi	r18, 0x10	; 16
    2946:	3e e0       	ldi	r19, 0x0E	; 14
    2948:	40 e0       	ldi	r20, 0x00	; 0
    294a:	50 e0       	ldi	r21, 0x00	; 0
    294c:	0e 94 36 1d 	call	0x3a6c	; 0x3a6c <__mulsi3>
    2950:	7b 01       	movw	r14, r22
    2952:	8c 01       	movw	r16, r24
    2954:	68 81       	ld	r22, Y
    2956:	70 e0       	ldi	r23, 0x00	; 0
    2958:	80 e0       	ldi	r24, 0x00	; 0
    295a:	90 e0       	ldi	r25, 0x00	; 0
    295c:	2c e3       	ldi	r18, 0x3C	; 60
    295e:	30 e0       	ldi	r19, 0x00	; 0
    2960:	40 e0       	ldi	r20, 0x00	; 0
    2962:	50 e0       	ldi	r21, 0x00	; 0
    2964:	0e 94 36 1d 	call	0x3a6c	; 0x3a6c <__mulsi3>
    2968:	e6 0e       	add	r14, r22
    296a:	f7 1e       	adc	r15, r23
    296c:	08 1f       	adc	r16, r24
    296e:	19 1f       	adc	r17, r25
    2970:	89 81       	ldd	r24, Y+1	; 0x01
    2972:	e8 0e       	add	r14, r24
    2974:	f1 1c       	adc	r15, r1
    2976:	01 1d       	adc	r16, r1
    2978:	11 1d       	adc	r17, r1
    297a:	f5 01       	movw	r30, r10
    297c:	62 81       	ldd	r22, Z+2	; 0x02
    297e:	70 e0       	ldi	r23, 0x00	; 0
    2980:	80 e0       	ldi	r24, 0x00	; 0
    2982:	90 e0       	ldi	r25, 0x00	; 0
    2984:	20 e1       	ldi	r18, 0x10	; 16
    2986:	3e e0       	ldi	r19, 0x0E	; 14
    2988:	40 e0       	ldi	r20, 0x00	; 0
    298a:	50 e0       	ldi	r21, 0x00	; 0
    298c:	0e 94 36 1d 	call	0x3a6c	; 0x3a6c <__mulsi3>
    2990:	3b 01       	movw	r6, r22
    2992:	4c 01       	movw	r8, r24
    2994:	f5 01       	movw	r30, r10
    2996:	60 81       	ld	r22, Z
    2998:	70 e0       	ldi	r23, 0x00	; 0
    299a:	80 e0       	ldi	r24, 0x00	; 0
    299c:	90 e0       	ldi	r25, 0x00	; 0
    299e:	2c e3       	ldi	r18, 0x3C	; 60
    29a0:	30 e0       	ldi	r19, 0x00	; 0
    29a2:	40 e0       	ldi	r20, 0x00	; 0
    29a4:	50 e0       	ldi	r21, 0x00	; 0
    29a6:	0e 94 36 1d 	call	0x3a6c	; 0x3a6c <__mulsi3>
    29aa:	66 0e       	add	r6, r22
    29ac:	77 1e       	adc	r7, r23
    29ae:	88 1e       	adc	r8, r24
    29b0:	99 1e       	adc	r9, r25
    29b2:	f5 01       	movw	r30, r10
    29b4:	81 81       	ldd	r24, Z+1	; 0x01
    29b6:	68 0e       	add	r6, r24
    29b8:	71 1c       	adc	r7, r1
    29ba:	81 1c       	adc	r8, r1
    29bc:	91 1c       	adc	r9, r1
    29be:	f2 01       	movw	r30, r4
    29c0:	62 81       	ldd	r22, Z+2	; 0x02
    29c2:	70 e0       	ldi	r23, 0x00	; 0
    29c4:	80 e0       	ldi	r24, 0x00	; 0
    29c6:	90 e0       	ldi	r25, 0x00	; 0
    29c8:	20 e1       	ldi	r18, 0x10	; 16
    29ca:	3e e0       	ldi	r19, 0x0E	; 14
    29cc:	40 e0       	ldi	r20, 0x00	; 0
    29ce:	50 e0       	ldi	r21, 0x00	; 0
    29d0:	0e 94 36 1d 	call	0x3a6c	; 0x3a6c <__mulsi3>
    29d4:	5b 01       	movw	r10, r22
    29d6:	6c 01       	movw	r12, r24
    29d8:	f2 01       	movw	r30, r4
    29da:	60 81       	ld	r22, Z
    29dc:	70 e0       	ldi	r23, 0x00	; 0
    29de:	80 e0       	ldi	r24, 0x00	; 0
    29e0:	90 e0       	ldi	r25, 0x00	; 0
    29e2:	2c e3       	ldi	r18, 0x3C	; 60
    29e4:	30 e0       	ldi	r19, 0x00	; 0
    29e6:	40 e0       	ldi	r20, 0x00	; 0
    29e8:	50 e0       	ldi	r21, 0x00	; 0
    29ea:	0e 94 36 1d 	call	0x3a6c	; 0x3a6c <__mulsi3>
    29ee:	a6 0e       	add	r10, r22
    29f0:	b7 1e       	adc	r11, r23
    29f2:	c8 1e       	adc	r12, r24
    29f4:	d9 1e       	adc	r13, r25
    29f6:	f2 01       	movw	r30, r4
    29f8:	81 81       	ldd	r24, Z+1	; 0x01
    29fa:	a8 0e       	add	r10, r24
    29fc:	b1 1c       	adc	r11, r1
    29fe:	c1 1c       	adc	r12, r1
    2a00:	d1 1c       	adc	r13, r1
    2a02:	6e 14       	cp	r6, r14
    2a04:	7f 04       	cpc	r7, r15
    2a06:	80 06       	cpc	r8, r16
    2a08:	91 06       	cpc	r9, r17
    2a0a:	40 f4       	brcc	.+16     	; 0x2a1c <vergleiche_zeiten+0x106>
    2a0c:	ea 14       	cp	r14, r10
    2a0e:	fb 04       	cpc	r15, r11
    2a10:	0c 05       	cpc	r16, r12
    2a12:	1d 05       	cpc	r17, r13
    2a14:	a8 f4       	brcc	.+42     	; 0x2a40 <vergleiche_zeiten+0x12a>
    2a16:	81 e0       	ldi	r24, 0x01	; 1
    2a18:	90 e0       	ldi	r25, 0x00	; 0
    2a1a:	1b c0       	rjmp	.+54     	; 0x2a52 <vergleiche_zeiten+0x13c>
    2a1c:	e6 14       	cp	r14, r6
    2a1e:	f7 04       	cpc	r15, r7
    2a20:	08 05       	cpc	r16, r8
    2a22:	19 05       	cpc	r17, r9
    2a24:	41 f4       	brne	.+16     	; 0x2a36 <vergleiche_zeiten+0x120>
    2a26:	81 e0       	ldi	r24, 0x01	; 1
    2a28:	ea 14       	cp	r14, r10
    2a2a:	fb 04       	cpc	r15, r11
    2a2c:	0c 05       	cpc	r16, r12
    2a2e:	1d 05       	cpc	r17, r13
    2a30:	81 f0       	breq	.+32     	; 0x2a52 <vergleiche_zeiten+0x13c>
    2a32:	80 e0       	ldi	r24, 0x00	; 0
    2a34:	0e c0       	rjmp	.+28     	; 0x2a52 <vergleiche_zeiten+0x13c>
    2a36:	ea 14       	cp	r14, r10
    2a38:	fb 04       	cpc	r15, r11
    2a3a:	0c 05       	cpc	r16, r12
    2a3c:	1d 05       	cpc	r17, r13
    2a3e:	38 f4       	brcc	.+14     	; 0x2a4e <vergleiche_zeiten+0x138>
    2a40:	81 e0       	ldi	r24, 0x01	; 1
    2a42:	90 e0       	ldi	r25, 0x00	; 0
    2a44:	a6 14       	cp	r10, r6
    2a46:	b7 04       	cpc	r11, r7
    2a48:	c8 04       	cpc	r12, r8
    2a4a:	d9 04       	cpc	r13, r9
    2a4c:	10 f0       	brcs	.+4      	; 0x2a52 <vergleiche_zeiten+0x13c>
    2a4e:	80 e0       	ldi	r24, 0x00	; 0
    2a50:	90 e0       	ldi	r25, 0x00	; 0
    2a52:	df 91       	pop	r29
    2a54:	cf 91       	pop	r28
    2a56:	1f 91       	pop	r17
    2a58:	0f 91       	pop	r16
    2a5a:	ff 90       	pop	r15
    2a5c:	ef 90       	pop	r14
    2a5e:	df 90       	pop	r13
    2a60:	cf 90       	pop	r12
    2a62:	bf 90       	pop	r11
    2a64:	af 90       	pop	r10
    2a66:	9f 90       	pop	r9
    2a68:	8f 90       	pop	r8
    2a6a:	7f 90       	pop	r7
    2a6c:	6f 90       	pop	r6
    2a6e:	5f 90       	pop	r5
    2a70:	4f 90       	pop	r4
    2a72:	08 95       	ret

00002a74 <temperatuen_schalten>:
    2a74:	80 91 08 03 	lds	r24, 0x0308
    2a78:	90 91 09 03 	lds	r25, 0x0309
    2a7c:	20 91 d7 03 	lds	r18, 0x03D7
    2a80:	30 91 d8 03 	lds	r19, 0x03D8
    2a84:	28 17       	cp	r18, r24
    2a86:	39 07       	cpc	r19, r25
    2a88:	44 f0       	brlt	.+16     	; 0x2a9a <temperatuen_schalten+0x26>
    2a8a:	20 91 d9 03 	lds	r18, 0x03D9
    2a8e:	30 91 da 03 	lds	r19, 0x03DA
    2a92:	82 17       	cp	r24, r18
    2a94:	93 07       	cpc	r25, r19
    2a96:	5c f1       	brlt	.+86     	; 0x2aee <temperatuen_schalten+0x7a>
    2a98:	05 c0       	rjmp	.+10     	; 0x2aa4 <temperatuen_schalten+0x30>
    2a9a:	20 91 9b 04 	lds	r18, 0x049B
    2a9e:	22 60       	ori	r18, 0x02	; 2
    2aa0:	20 93 9b 04 	sts	0x049B, r18
    2aa4:	20 91 13 04 	lds	r18, 0x0413
    2aa8:	30 91 14 04 	lds	r19, 0x0414
    2aac:	28 17       	cp	r18, r24
    2aae:	39 07       	cpc	r19, r25
    2ab0:	44 f0       	brlt	.+16     	; 0x2ac2 <temperatuen_schalten+0x4e>
    2ab2:	20 91 15 04 	lds	r18, 0x0415
    2ab6:	30 91 16 04 	lds	r19, 0x0416
    2aba:	82 17       	cp	r24, r18
    2abc:	93 07       	cpc	r25, r19
    2abe:	dc f0       	brlt	.+54     	; 0x2af6 <temperatuen_schalten+0x82>
    2ac0:	03 c0       	rjmp	.+6      	; 0x2ac8 <temperatuen_schalten+0x54>
    2ac2:	22 e0       	ldi	r18, 0x02	; 2
    2ac4:	20 93 06 03 	sts	0x0306, r18
    2ac8:	20 91 08 04 	lds	r18, 0x0408
    2acc:	30 91 09 04 	lds	r19, 0x0409
    2ad0:	28 17       	cp	r18, r24
    2ad2:	39 07       	cpc	r19, r25
    2ad4:	44 f0       	brlt	.+16     	; 0x2ae6 <temperatuen_schalten+0x72>
    2ad6:	20 91 06 04 	lds	r18, 0x0406
    2ada:	30 91 07 04 	lds	r19, 0x0407
    2ade:	82 17       	cp	r24, r18
    2ae0:	93 07       	cpc	r25, r19
    2ae2:	5c f0       	brlt	.+22     	; 0x2afa <temperatuen_schalten+0x86>
    2ae4:	08 95       	ret
    2ae6:	80 91 9b 04 	lds	r24, 0x049B
    2aea:	8e 7f       	andi	r24, 0xFE	; 254
    2aec:	09 c0       	rjmp	.+18     	; 0x2b00 <temperatuen_schalten+0x8c>
    2aee:	20 91 9b 04 	lds	r18, 0x049B
    2af2:	2d 7f       	andi	r18, 0xFD	; 253
    2af4:	d5 cf       	rjmp	.-86     	; 0x2aa0 <temperatuen_schalten+0x2c>
    2af6:	23 e0       	ldi	r18, 0x03	; 3
    2af8:	e5 cf       	rjmp	.-54     	; 0x2ac4 <temperatuen_schalten+0x50>
    2afa:	80 91 9b 04 	lds	r24, 0x049B
    2afe:	81 60       	ori	r24, 0x01	; 1
    2b00:	80 93 9b 04 	sts	0x049B, r24
    2b04:	08 95       	ret

00002b06 <regenpumpe_aktivieren>:
    2b06:	ef 92       	push	r14
    2b08:	ff 92       	push	r15
    2b0a:	0f 93       	push	r16
    2b0c:	1f 93       	push	r17
    2b0e:	cf 93       	push	r28
    2b10:	df 93       	push	r29
    2b12:	ec 01       	movw	r28, r24
    2b14:	80 91 b8 03 	lds	r24, 0x03B8
    2b18:	90 91 b9 03 	lds	r25, 0x03B9
    2b1c:	a0 91 ba 03 	lds	r26, 0x03BA
    2b20:	b0 91 bb 03 	lds	r27, 0x03BB
    2b24:	00 97       	sbiw	r24, 0x00	; 0
    2b26:	a1 05       	cpc	r26, r1
    2b28:	b1 05       	cpc	r27, r1
    2b2a:	41 f5       	brne	.+80     	; 0x2b7c <regenpumpe_aktivieren+0x76>
    2b2c:	6a 81       	ldd	r22, Y+2	; 0x02
    2b2e:	70 e0       	ldi	r23, 0x00	; 0
    2b30:	80 e0       	ldi	r24, 0x00	; 0
    2b32:	90 e0       	ldi	r25, 0x00	; 0
    2b34:	20 e1       	ldi	r18, 0x10	; 16
    2b36:	3e e0       	ldi	r19, 0x0E	; 14
    2b38:	40 e0       	ldi	r20, 0x00	; 0
    2b3a:	50 e0       	ldi	r21, 0x00	; 0
    2b3c:	0e 94 36 1d 	call	0x3a6c	; 0x3a6c <__mulsi3>
    2b40:	7b 01       	movw	r14, r22
    2b42:	8c 01       	movw	r16, r24
    2b44:	68 81       	ld	r22, Y
    2b46:	70 e0       	ldi	r23, 0x00	; 0
    2b48:	80 e0       	ldi	r24, 0x00	; 0
    2b4a:	90 e0       	ldi	r25, 0x00	; 0
    2b4c:	2c e3       	ldi	r18, 0x3C	; 60
    2b4e:	30 e0       	ldi	r19, 0x00	; 0
    2b50:	40 e0       	ldi	r20, 0x00	; 0
    2b52:	50 e0       	ldi	r21, 0x00	; 0
    2b54:	0e 94 36 1d 	call	0x3a6c	; 0x3a6c <__mulsi3>
    2b58:	e6 0e       	add	r14, r22
    2b5a:	f7 1e       	adc	r15, r23
    2b5c:	08 1f       	adc	r16, r24
    2b5e:	19 1f       	adc	r17, r25
    2b60:	89 81       	ldd	r24, Y+1	; 0x01
    2b62:	e8 0e       	add	r14, r24
    2b64:	f1 1c       	adc	r15, r1
    2b66:	01 1d       	adc	r16, r1
    2b68:	11 1d       	adc	r17, r1
    2b6a:	e0 92 b8 03 	sts	0x03B8, r14
    2b6e:	f0 92 b9 03 	sts	0x03B9, r15
    2b72:	00 93 ba 03 	sts	0x03BA, r16
    2b76:	10 93 bb 03 	sts	0x03BB, r17
    2b7a:	08 c0       	rjmp	.+16     	; 0x2b8c <regenpumpe_aktivieren+0x86>
    2b7c:	10 92 b8 03 	sts	0x03B8, r1
    2b80:	10 92 b9 03 	sts	0x03B9, r1
    2b84:	10 92 ba 03 	sts	0x03BA, r1
    2b88:	10 92 bb 03 	sts	0x03BB, r1
    2b8c:	df 91       	pop	r29
    2b8e:	cf 91       	pop	r28
    2b90:	1f 91       	pop	r17
    2b92:	0f 91       	pop	r16
    2b94:	ff 90       	pop	r15
    2b96:	ef 90       	pop	r14
    2b98:	08 95       	ret

00002b9a <lampen_schalten>:
    2b9a:	cf 93       	push	r28
    2b9c:	df 93       	push	r29
    2b9e:	87 e4       	ldi	r24, 0x47	; 71
    2ba0:	94 e0       	ldi	r25, 0x04	; 4
    2ba2:	60 e4       	ldi	r22, 0x40	; 64
    2ba4:	74 e0       	ldi	r23, 0x04	; 4
    2ba6:	4c e0       	ldi	r20, 0x0C	; 12
    2ba8:	54 e0       	ldi	r21, 0x04	; 4
    2baa:	0e 94 8b 14 	call	0x2916	; 0x2916 <vergleiche_zeiten>
    2bae:	90 91 9b 04 	lds	r25, 0x049B
    2bb2:	88 23       	and	r24, r24
    2bb4:	11 f0       	breq	.+4      	; 0x2bba <lampen_schalten+0x20>
    2bb6:	94 60       	ori	r25, 0x04	; 4
    2bb8:	01 c0       	rjmp	.+2      	; 0x2bbc <lampen_schalten+0x22>
    2bba:	9b 7f       	andi	r25, 0xFB	; 251
    2bbc:	90 93 9b 04 	sts	0x049B, r25
    2bc0:	83 e6       	ldi	r24, 0x63	; 99
    2bc2:	94 e0       	ldi	r25, 0x04	; 4
    2bc4:	6a e6       	ldi	r22, 0x6A	; 106
    2bc6:	74 e0       	ldi	r23, 0x04	; 4
    2bc8:	4c e0       	ldi	r20, 0x0C	; 12
    2bca:	54 e0       	ldi	r21, 0x04	; 4
    2bcc:	0e 94 8b 14 	call	0x2916	; 0x2916 <vergleiche_zeiten>
    2bd0:	90 91 9b 04 	lds	r25, 0x049B
    2bd4:	88 23       	and	r24, r24
    2bd6:	11 f0       	breq	.+4      	; 0x2bdc <lampen_schalten+0x42>
    2bd8:	98 60       	ori	r25, 0x08	; 8
    2bda:	01 c0       	rjmp	.+2      	; 0x2bde <lampen_schalten+0x44>
    2bdc:	97 7f       	andi	r25, 0xF7	; 247
    2bde:	90 93 9b 04 	sts	0x049B, r25
    2be2:	c0 e0       	ldi	r28, 0x00	; 0
    2be4:	d0 e0       	ldi	r29, 0x00	; 0
    2be6:	1a c0       	rjmp	.+52     	; 0x2c1c <lampen_schalten+0x82>
    2be8:	80 91 9b 04 	lds	r24, 0x049B
    2bec:	85 fd       	sbrc	r24, 5
    2bee:	15 c0       	rjmp	.+42     	; 0x2c1a <lampen_schalten+0x80>
    2bf0:	be 01       	movw	r22, r28
    2bf2:	a3 e0       	ldi	r26, 0x03	; 3
    2bf4:	66 0f       	add	r22, r22
    2bf6:	77 1f       	adc	r23, r23
    2bf8:	aa 95       	dec	r26
    2bfa:	e1 f7       	brne	.-8      	; 0x2bf4 <lampen_schalten+0x5a>
    2bfc:	6c 1b       	sub	r22, r28
    2bfe:	7d 0b       	sbc	r23, r29
    2c00:	6f 58       	subi	r22, 0x8F	; 143
    2c02:	7b 4f       	sbci	r23, 0xFB	; 251
    2c04:	cb 01       	movw	r24, r22
    2c06:	4c e0       	ldi	r20, 0x0C	; 12
    2c08:	54 e0       	ldi	r21, 0x04	; 4
    2c0a:	0e 94 8b 14 	call	0x2916	; 0x2916 <vergleiche_zeiten>
    2c0e:	88 23       	and	r24, r24
    2c10:	21 f0       	breq	.+8      	; 0x2c1a <lampen_schalten+0x80>
    2c12:	84 e9       	ldi	r24, 0x94	; 148
    2c14:	94 e0       	ldi	r25, 0x04	; 4
    2c16:	0e 94 83 15 	call	0x2b06	; 0x2b06 <regenpumpe_aktivieren>
    2c1a:	21 96       	adiw	r28, 0x01	; 1
    2c1c:	80 91 05 03 	lds	r24, 0x0305
    2c20:	99 27       	eor	r25, r25
    2c22:	87 fd       	sbrc	r24, 7
    2c24:	90 95       	com	r25
    2c26:	c8 17       	cp	r28, r24
    2c28:	d9 07       	cpc	r29, r25
    2c2a:	f4 f2       	brlt	.-68     	; 0x2be8 <lampen_schalten+0x4e>
    2c2c:	df 91       	pop	r29
    2c2e:	cf 91       	pop	r28
    2c30:	08 95       	ret

00002c32 <read_eeprom_daten>:
    2c32:	f8 94       	cli
    2c34:	80 e0       	ldi	r24, 0x00	; 0
    2c36:	90 e0       	ldi	r25, 0x00	; 0
    2c38:	0e 94 f8 1f 	call	0x3ff0	; 0x3ff0 <__eerd_byte_m644p>
    2c3c:	80 93 03 03 	sts	0x0303, r24
    2c40:	81 e0       	ldi	r24, 0x01	; 1
    2c42:	90 e0       	ldi	r25, 0x00	; 0
    2c44:	0e 94 f8 1f 	call	0x3ff0	; 0x3ff0 <__eerd_byte_m644p>
    2c48:	80 93 04 03 	sts	0x0304, r24
    2c4c:	82 ea       	ldi	r24, 0xA2	; 162
    2c4e:	93 e0       	ldi	r25, 0x03	; 3
    2c50:	6a e1       	ldi	r22, 0x1A	; 26
    2c52:	70 e0       	ldi	r23, 0x00	; 0
    2c54:	46 e1       	ldi	r20, 0x16	; 22
    2c56:	50 e0       	ldi	r21, 0x00	; 0
    2c58:	0e 94 e8 1f 	call	0x3fd0	; 0x3fd0 <__eerd_block_m644p>
    2c5c:	87 e4       	ldi	r24, 0x47	; 71
    2c5e:	94 e0       	ldi	r25, 0x04	; 4
    2c60:	60 e3       	ldi	r22, 0x30	; 48
    2c62:	70 e0       	ldi	r23, 0x00	; 0
    2c64:	47 e0       	ldi	r20, 0x07	; 7
    2c66:	50 e0       	ldi	r21, 0x00	; 0
    2c68:	0e 94 e8 1f 	call	0x3fd0	; 0x3fd0 <__eerd_block_m644p>
    2c6c:	80 e4       	ldi	r24, 0x40	; 64
    2c6e:	94 e0       	ldi	r25, 0x04	; 4
    2c70:	67 e3       	ldi	r22, 0x37	; 55
    2c72:	70 e0       	ldi	r23, 0x00	; 0
    2c74:	47 e0       	ldi	r20, 0x07	; 7
    2c76:	50 e0       	ldi	r21, 0x00	; 0
    2c78:	0e 94 e8 1f 	call	0x3fd0	; 0x3fd0 <__eerd_block_m644p>
    2c7c:	83 e6       	ldi	r24, 0x63	; 99
    2c7e:	94 e0       	ldi	r25, 0x04	; 4
    2c80:	6e e3       	ldi	r22, 0x3E	; 62
    2c82:	70 e0       	ldi	r23, 0x00	; 0
    2c84:	47 e0       	ldi	r20, 0x07	; 7
    2c86:	50 e0       	ldi	r21, 0x00	; 0
    2c88:	0e 94 e8 1f 	call	0x3fd0	; 0x3fd0 <__eerd_block_m644p>
    2c8c:	8a e6       	ldi	r24, 0x6A	; 106
    2c8e:	94 e0       	ldi	r25, 0x04	; 4
    2c90:	65 e4       	ldi	r22, 0x45	; 69
    2c92:	70 e0       	ldi	r23, 0x00	; 0
    2c94:	47 e0       	ldi	r20, 0x07	; 7
    2c96:	50 e0       	ldi	r21, 0x00	; 0
    2c98:	0e 94 e8 1f 	call	0x3fd0	; 0x3fd0 <__eerd_block_m644p>
    2c9c:	83 e1       	ldi	r24, 0x13	; 19
    2c9e:	94 e0       	ldi	r25, 0x04	; 4
    2ca0:	62 e0       	ldi	r22, 0x02	; 2
    2ca2:	70 e0       	ldi	r23, 0x00	; 0
    2ca4:	46 e0       	ldi	r20, 0x06	; 6
    2ca6:	50 e0       	ldi	r21, 0x00	; 0
    2ca8:	0e 94 e8 1f 	call	0x3fd0	; 0x3fd0 <__eerd_block_m644p>
    2cac:	86 e0       	ldi	r24, 0x06	; 6
    2cae:	94 e0       	ldi	r25, 0x04	; 4
    2cb0:	68 e0       	ldi	r22, 0x08	; 8
    2cb2:	70 e0       	ldi	r23, 0x00	; 0
    2cb4:	46 e0       	ldi	r20, 0x06	; 6
    2cb6:	50 e0       	ldi	r21, 0x00	; 0
    2cb8:	0e 94 e8 1f 	call	0x3fd0	; 0x3fd0 <__eerd_block_m644p>
    2cbc:	87 ed       	ldi	r24, 0xD7	; 215
    2cbe:	93 e0       	ldi	r25, 0x03	; 3
    2cc0:	6e e0       	ldi	r22, 0x0E	; 14
    2cc2:	70 e0       	ldi	r23, 0x00	; 0
    2cc4:	46 e0       	ldi	r20, 0x06	; 6
    2cc6:	50 e0       	ldi	r21, 0x00	; 0
    2cc8:	0e 94 e8 1f 	call	0x3fd0	; 0x3fd0 <__eerd_block_m644p>
    2ccc:	84 e9       	ldi	r24, 0x94	; 148
    2cce:	94 e0       	ldi	r25, 0x04	; 4
    2cd0:	6c e4       	ldi	r22, 0x4C	; 76
    2cd2:	70 e0       	ldi	r23, 0x00	; 0
    2cd4:	46 e0       	ldi	r20, 0x06	; 6
    2cd6:	50 e0       	ldi	r21, 0x00	; 0
    2cd8:	0e 94 e8 1f 	call	0x3fd0	; 0x3fd0 <__eerd_block_m644p>
    2cdc:	81 e7       	ldi	r24, 0x71	; 113
    2cde:	94 e0       	ldi	r25, 0x04	; 4
    2ce0:	63 e5       	ldi	r22, 0x53	; 83
    2ce2:	70 e0       	ldi	r23, 0x00	; 0
    2ce4:	43 e2       	ldi	r20, 0x23	; 35
    2ce6:	50 e0       	ldi	r21, 0x00	; 0
    2ce8:	0e 94 e8 1f 	call	0x3fd0	; 0x3fd0 <__eerd_block_m644p>
    2cec:	86 e7       	ldi	r24, 0x76	; 118
    2cee:	90 e0       	ldi	r25, 0x00	; 0
    2cf0:	0e 94 f8 1f 	call	0x3ff0	; 0x3ff0 <__eerd_byte_m644p>
    2cf4:	80 93 05 03 	sts	0x0305, r24
    2cf8:	78 94       	sei
    2cfa:	08 95       	ret

00002cfc <zustand_lcd>:
    2cfc:	88 23       	and	r24, r24
    2cfe:	11 f0       	breq	.+4      	; 0x2d04 <zustand_lcd+0x8>
    2d00:	8e e5       	ldi	r24, 0x5E	; 94
    2d02:	08 95       	ret
    2d04:	8f e5       	ldi	r24, 0x5F	; 95
    2d06:	08 95       	ret

00002d08 <send_to_uart>:
    2d08:	0f 93       	push	r16
    2d0a:	1f 93       	push	r17
    2d0c:	cf 93       	push	r28
    2d0e:	df 93       	push	r29
    2d10:	cb e2       	ldi	r28, 0x2B	; 43
    2d12:	d4 e0       	ldi	r29, 0x04	; 4
    2d14:	88 e0       	ldi	r24, 0x08	; 8
    2d16:	93 e0       	ldi	r25, 0x03	; 3
    2d18:	be 01       	movw	r22, r28
    2d1a:	0e 94 45 09 	call	0x128a	; 0x128a <temperatur_to_string>
    2d1e:	ce 01       	movw	r24, r28
    2d20:	0e 94 54 1c 	call	0x38a8	; 0x38a8 <uart_puts>
    2d24:	8d e0       	ldi	r24, 0x0D	; 13
    2d26:	0e 94 3f 1c 	call	0x387e	; 0x387e <uart_putc>
    2d2a:	80 91 0e 03 	lds	r24, 0x030E
    2d2e:	90 e0       	ldi	r25, 0x00	; 0
    2d30:	be 01       	movw	r22, r28
    2d32:	0e 94 58 0a 	call	0x14b0	; 0x14b0 <phwert_to_string>
    2d36:	ce 01       	movw	r24, r28
    2d38:	0e 94 54 1c 	call	0x38a8	; 0x38a8 <uart_puts>
    2d3c:	8d e0       	ldi	r24, 0x0D	; 13
    2d3e:	0e 94 3f 1c 	call	0x387e	; 0x387e <uart_putc>
    2d42:	8d b7       	in	r24, 0x3d	; 61
    2d44:	9e b7       	in	r25, 0x3e	; 62
    2d46:	0a 97       	sbiw	r24, 0x0a	; 10
    2d48:	0f b6       	in	r0, 0x3f	; 63
    2d4a:	f8 94       	cli
    2d4c:	9e bf       	out	0x3e, r25	; 62
    2d4e:	0f be       	out	0x3f, r0	; 63
    2d50:	8d bf       	out	0x3d, r24	; 61
    2d52:	ed b7       	in	r30, 0x3d	; 61
    2d54:	fe b7       	in	r31, 0x3e	; 62
    2d56:	31 96       	adiw	r30, 0x01	; 1
    2d58:	ad b7       	in	r26, 0x3d	; 61
    2d5a:	be b7       	in	r27, 0x3e	; 62
    2d5c:	12 96       	adiw	r26, 0x02	; 2
    2d5e:	dc 93       	st	X, r29
    2d60:	ce 93       	st	-X, r28
    2d62:	11 97       	sbiw	r26, 0x01	; 1
    2d64:	89 e1       	ldi	r24, 0x19	; 25
    2d66:	92 e0       	ldi	r25, 0x02	; 2
    2d68:	93 83       	std	Z+3, r25	; 0x03
    2d6a:	82 83       	std	Z+2, r24	; 0x02
    2d6c:	80 91 0e 04 	lds	r24, 0x040E
    2d70:	84 83       	std	Z+4, r24	; 0x04
    2d72:	15 82       	std	Z+5, r1	; 0x05
    2d74:	0c e0       	ldi	r16, 0x0C	; 12
    2d76:	14 e0       	ldi	r17, 0x04	; 4
    2d78:	d8 01       	movw	r26, r16
    2d7a:	8c 91       	ld	r24, X
    2d7c:	86 83       	std	Z+6, r24	; 0x06
    2d7e:	17 82       	std	Z+7, r1	; 0x07
    2d80:	11 96       	adiw	r26, 0x01	; 1
    2d82:	8c 91       	ld	r24, X
    2d84:	80 87       	std	Z+8, r24	; 0x08
    2d86:	11 86       	std	Z+9, r1	; 0x09
    2d88:	0e 94 de 1d 	call	0x3bbc	; 0x3bbc <sprintf>
    2d8c:	8d b7       	in	r24, 0x3d	; 61
    2d8e:	9e b7       	in	r25, 0x3e	; 62
    2d90:	0a 96       	adiw	r24, 0x0a	; 10
    2d92:	0f b6       	in	r0, 0x3f	; 63
    2d94:	f8 94       	cli
    2d96:	9e bf       	out	0x3e, r25	; 62
    2d98:	0f be       	out	0x3f, r0	; 63
    2d9a:	8d bf       	out	0x3d, r24	; 61
    2d9c:	ce 01       	movw	r24, r28
    2d9e:	0e 94 54 1c 	call	0x38a8	; 0x38a8 <uart_puts>
    2da2:	8d e0       	ldi	r24, 0x0D	; 13
    2da4:	0e 94 3f 1c 	call	0x387e	; 0x387e <uart_putc>
    2da8:	ad b7       	in	r26, 0x3d	; 61
    2daa:	be b7       	in	r27, 0x3e	; 62
    2dac:	1a 97       	sbiw	r26, 0x0a	; 10
    2dae:	0f b6       	in	r0, 0x3f	; 63
    2db0:	f8 94       	cli
    2db2:	be bf       	out	0x3e, r27	; 62
    2db4:	0f be       	out	0x3f, r0	; 63
    2db6:	ad bf       	out	0x3d, r26	; 61
    2db8:	ed b7       	in	r30, 0x3d	; 61
    2dba:	fe b7       	in	r31, 0x3e	; 62
    2dbc:	31 96       	adiw	r30, 0x01	; 1
    2dbe:	12 96       	adiw	r26, 0x02	; 2
    2dc0:	dc 93       	st	X, r29
    2dc2:	ce 93       	st	-X, r28
    2dc4:	11 97       	sbiw	r26, 0x01	; 1
    2dc6:	88 e2       	ldi	r24, 0x28	; 40
    2dc8:	92 e0       	ldi	r25, 0x02	; 2
    2dca:	93 83       	std	Z+3, r25	; 0x03
    2dcc:	82 83       	std	Z+2, r24	; 0x02
    2dce:	d8 01       	movw	r26, r16
    2dd0:	13 96       	adiw	r26, 0x03	; 3
    2dd2:	8c 91       	ld	r24, X
    2dd4:	13 97       	sbiw	r26, 0x03	; 3
    2dd6:	84 83       	std	Z+4, r24	; 0x04
    2dd8:	15 82       	std	Z+5, r1	; 0x05
    2dda:	15 96       	adiw	r26, 0x05	; 5
    2ddc:	8c 91       	ld	r24, X
    2dde:	15 97       	sbiw	r26, 0x05	; 5
    2de0:	86 83       	std	Z+6, r24	; 0x06
    2de2:	17 82       	std	Z+7, r1	; 0x07
    2de4:	16 96       	adiw	r26, 0x06	; 6
    2de6:	8c 91       	ld	r24, X
    2de8:	80 87       	std	Z+8, r24	; 0x08
    2dea:	11 86       	std	Z+9, r1	; 0x09
    2dec:	0e 94 de 1d 	call	0x3bbc	; 0x3bbc <sprintf>
    2df0:	8d b7       	in	r24, 0x3d	; 61
    2df2:	9e b7       	in	r25, 0x3e	; 62
    2df4:	0a 96       	adiw	r24, 0x0a	; 10
    2df6:	0f b6       	in	r0, 0x3f	; 63
    2df8:	f8 94       	cli
    2dfa:	9e bf       	out	0x3e, r25	; 62
    2dfc:	0f be       	out	0x3f, r0	; 63
    2dfe:	8d bf       	out	0x3d, r24	; 61
    2e00:	ce 01       	movw	r24, r28
    2e02:	0e 94 54 1c 	call	0x38a8	; 0x38a8 <uart_puts>
    2e06:	8d e0       	ldi	r24, 0x0D	; 13
    2e08:	0e 94 3f 1c 	call	0x387e	; 0x387e <uart_putc>
    2e0c:	df 91       	pop	r29
    2e0e:	cf 91       	pop	r28
    2e10:	1f 91       	pop	r17
    2e12:	0f 91       	pop	r16
    2e14:	08 95       	ret

00002e16 <mondlicht_dimmer>:
    2e16:	9f ef       	ldi	r25, 0xFF	; 255
    2e18:	89 9f       	mul	r24, r25
    2e1a:	c0 01       	movw	r24, r0
    2e1c:	11 24       	eor	r1, r1
    2e1e:	64 e6       	ldi	r22, 0x64	; 100
    2e20:	70 e0       	ldi	r23, 0x00	; 0
    2e22:	0e 94 61 1d 	call	0x3ac2	; 0x3ac2 <__udivmodhi4>
    2e26:	70 93 11 03 	sts	0x0311, r23
    2e2a:	60 93 10 03 	sts	0x0310, r22
    2e2e:	70 93 8b 00 	sts	0x008B, r23
    2e32:	60 93 8a 00 	sts	0x008A, r22
    2e36:	08 95       	ret

00002e38 <ausgaenge_ansteuern>:
    2e38:	80 91 9b 04 	lds	r24, 0x049B
    2e3c:	84 ff       	sbrs	r24, 4
    2e3e:	6c c0       	rjmp	.+216    	; 0x2f18 <ausgaenge_ansteuern+0xe0>
    2e40:	47 9a       	sbi	0x08, 7	; 8
    2e42:	80 ff       	sbrs	r24, 0
    2e44:	02 c0       	rjmp	.+4      	; 0x2e4a <ausgaenge_ansteuern+0x12>
    2e46:	12 9a       	sbi	0x02, 2	; 2
    2e48:	01 c0       	rjmp	.+2      	; 0x2e4c <ausgaenge_ansteuern+0x14>
    2e4a:	12 98       	cbi	0x02, 2	; 2
    2e4c:	80 91 9b 04 	lds	r24, 0x049B
    2e50:	81 ff       	sbrs	r24, 1
    2e52:	02 c0       	rjmp	.+4      	; 0x2e58 <ausgaenge_ansteuern+0x20>
    2e54:	11 9a       	sbi	0x02, 1	; 2
    2e56:	01 c0       	rjmp	.+2      	; 0x2e5a <ausgaenge_ansteuern+0x22>
    2e58:	11 98       	cbi	0x02, 1	; 2
    2e5a:	80 91 9b 04 	lds	r24, 0x049B
    2e5e:	82 ff       	sbrs	r24, 2
    2e60:	02 c0       	rjmp	.+4      	; 0x2e66 <ausgaenge_ansteuern+0x2e>
    2e62:	13 9a       	sbi	0x02, 3	; 2
    2e64:	01 c0       	rjmp	.+2      	; 0x2e68 <ausgaenge_ansteuern+0x30>
    2e66:	13 98       	cbi	0x02, 3	; 2
    2e68:	80 91 9b 04 	lds	r24, 0x049B
    2e6c:	83 ff       	sbrs	r24, 3
    2e6e:	03 c0       	rjmp	.+6      	; 0x2e76 <ausgaenge_ansteuern+0x3e>
    2e70:	80 91 04 03 	lds	r24, 0x0304
    2e74:	01 c0       	rjmp	.+2      	; 0x2e78 <ausgaenge_ansteuern+0x40>
    2e76:	80 e0       	ldi	r24, 0x00	; 0
    2e78:	0e 94 0b 17 	call	0x2e16	; 0x2e16 <mondlicht_dimmer>
    2e7c:	80 91 06 03 	lds	r24, 0x0306
    2e80:	88 23       	and	r24, r24
    2e82:	11 f4       	brne	.+4      	; 0x2e88 <ausgaenge_ansteuern+0x50>
    2e84:	46 98       	cbi	0x08, 6	; 8
    2e86:	5d 98       	cbi	0x0b, 5	; 11
    2e88:	88 e0       	ldi	r24, 0x08	; 8
    2e8a:	93 e0       	ldi	r25, 0x03	; 3
    2e8c:	20 91 08 03 	lds	r18, 0x0308
    2e90:	30 91 09 03 	lds	r19, 0x0309
    2e94:	40 91 19 04 	lds	r20, 0x0419
    2e98:	50 91 1a 04 	lds	r21, 0x041A
    2e9c:	42 17       	cp	r20, r18
    2e9e:	53 07       	cpc	r21, r19
    2ea0:	4c f0       	brlt	.+18     	; 0x2eb4 <ausgaenge_ansteuern+0x7c>
    2ea2:	40 91 1b 04 	lds	r20, 0x041B
    2ea6:	50 91 1c 04 	lds	r21, 0x041C
    2eaa:	24 17       	cp	r18, r20
    2eac:	35 07       	cpc	r19, r21
    2eae:	0c f4       	brge	.+2      	; 0x2eb2 <ausgaenge_ansteuern+0x7a>
    2eb0:	44 c0       	rjmp	.+136    	; 0x2f3a <ausgaenge_ansteuern+0x102>
    2eb2:	0d c0       	rjmp	.+26     	; 0x2ece <ausgaenge_ansteuern+0x96>
    2eb4:	90 93 1a 04 	sts	0x041A, r25
    2eb8:	80 93 19 04 	sts	0x0419, r24
    2ebc:	ad e1       	ldi	r26, 0x1D	; 29
    2ebe:	b4 e0       	ldi	r27, 0x04	; 4
    2ec0:	ec e0       	ldi	r30, 0x0C	; 12
    2ec2:	f4 e0       	ldi	r31, 0x04	; 4
    2ec4:	87 e0       	ldi	r24, 0x07	; 7
    2ec6:	01 90       	ld	r0, Z+
    2ec8:	0d 92       	st	X+, r0
    2eca:	81 50       	subi	r24, 0x01	; 1
    2ecc:	e1 f7       	brne	.-8      	; 0x2ec6 <ausgaenge_ansteuern+0x8e>
    2ece:	80 91 0e 03 	lds	r24, 0x030E
    2ed2:	90 91 0f 03 	lds	r25, 0x030F
    2ed6:	20 91 c5 03 	lds	r18, 0x03C5
    2eda:	30 91 c6 03 	lds	r19, 0x03C6
    2ede:	28 17       	cp	r18, r24
    2ee0:	39 07       	cpc	r19, r25
    2ee2:	54 f0       	brlt	.+20     	; 0x2ef8 <ausgaenge_ansteuern+0xc0>
    2ee4:	e7 ec       	ldi	r30, 0xC7	; 199
    2ee6:	f3 e0       	ldi	r31, 0x03	; 3
    2ee8:	20 91 c7 03 	lds	r18, 0x03C7
    2eec:	30 91 c8 03 	lds	r19, 0x03C8
    2ef0:	82 17       	cp	r24, r18
    2ef2:	93 07       	cpc	r25, r19
    2ef4:	84 f1       	brlt	.+96     	; 0x2f56 <ausgaenge_ansteuern+0x11e>
    2ef6:	19 c0       	rjmp	.+50     	; 0x2f2a <ausgaenge_ansteuern+0xf2>
    2ef8:	80 91 0e 03 	lds	r24, 0x030E
    2efc:	80 93 c5 03 	sts	0x03C5, r24
    2f00:	10 92 c6 03 	sts	0x03C6, r1
    2f04:	a9 ec       	ldi	r26, 0xC9	; 201
    2f06:	b3 e0       	ldi	r27, 0x03	; 3
    2f08:	ec e0       	ldi	r30, 0x0C	; 12
    2f0a:	f4 e0       	ldi	r31, 0x04	; 4
    2f0c:	87 e0       	ldi	r24, 0x07	; 7
    2f0e:	01 90       	ld	r0, Z+
    2f10:	0d 92       	st	X+, r0
    2f12:	81 50       	subi	r24, 0x01	; 1
    2f14:	e1 f7       	brne	.-8      	; 0x2f0e <ausgaenge_ansteuern+0xd6>
    2f16:	09 c0       	rjmp	.+18     	; 0x2f2a <ausgaenge_ansteuern+0xf2>
    2f18:	47 98       	cbi	0x08, 7	; 8
    2f1a:	12 98       	cbi	0x02, 2	; 2
    2f1c:	11 98       	cbi	0x02, 1	; 2
    2f1e:	13 9a       	sbi	0x02, 3	; 2
    2f20:	46 98       	cbi	0x08, 6	; 8
    2f22:	5d 98       	cbi	0x0b, 5	; 11
    2f24:	80 e0       	ldi	r24, 0x00	; 0
    2f26:	0e 94 0b 17 	call	0x2e16	; 0x2e16 <mondlicht_dimmer>
    2f2a:	80 91 9b 04 	lds	r24, 0x049B
    2f2e:	85 ff       	sbrs	r24, 5
    2f30:	02 c0       	rjmp	.+4      	; 0x2f36 <ausgaenge_ansteuern+0xfe>
    2f32:	10 9a       	sbi	0x02, 0	; 2
    2f34:	08 95       	ret
    2f36:	10 98       	cbi	0x02, 0	; 2
    2f38:	08 95       	ret
    2f3a:	90 93 1c 04 	sts	0x041C, r25
    2f3e:	80 93 1b 04 	sts	0x041B, r24
    2f42:	a4 e2       	ldi	r26, 0x24	; 36
    2f44:	b4 e0       	ldi	r27, 0x04	; 4
    2f46:	ec e0       	ldi	r30, 0x0C	; 12
    2f48:	f4 e0       	ldi	r31, 0x04	; 4
    2f4a:	87 e0       	ldi	r24, 0x07	; 7
    2f4c:	01 90       	ld	r0, Z+
    2f4e:	0d 92       	st	X+, r0
    2f50:	81 50       	subi	r24, 0x01	; 1
    2f52:	e1 f7       	brne	.-8      	; 0x2f4c <ausgaenge_ansteuern+0x114>
    2f54:	bc cf       	rjmp	.-136    	; 0x2ece <ausgaenge_ansteuern+0x96>
    2f56:	80 91 0e 03 	lds	r24, 0x030E
    2f5a:	80 93 c7 03 	sts	0x03C7, r24
    2f5e:	11 82       	std	Z+1, r1	; 0x01
    2f60:	39 96       	adiw	r30, 0x09	; 9
    2f62:	ac e0       	ldi	r26, 0x0C	; 12
    2f64:	b4 e0       	ldi	r27, 0x04	; 4
    2f66:	87 e0       	ldi	r24, 0x07	; 7
    2f68:	0d 90       	ld	r0, X+
    2f6a:	01 92       	st	Z+, r0
    2f6c:	81 50       	subi	r24, 0x01	; 1
    2f6e:	e1 f7       	brne	.-8      	; 0x2f68 <ausgaenge_ansteuern+0x130>
    2f70:	dc cf       	rjmp	.-72     	; 0x2f2a <ausgaenge_ansteuern+0xf2>

00002f72 <menu_mondlicht_helligkeit_einstellen>:
    2f72:	6f 92       	push	r6
    2f74:	7f 92       	push	r7
    2f76:	9f 92       	push	r9
    2f78:	af 92       	push	r10
    2f7a:	bf 92       	push	r11
    2f7c:	cf 92       	push	r12
    2f7e:	df 92       	push	r13
    2f80:	ef 92       	push	r14
    2f82:	ff 92       	push	r15
    2f84:	0f 93       	push	r16
    2f86:	1f 93       	push	r17
    2f88:	df 93       	push	r29
    2f8a:	cf 93       	push	r28
    2f8c:	0f 92       	push	r0
    2f8e:	cd b7       	in	r28, 0x3d	; 61
    2f90:	de b7       	in	r29, 0x3e	; 62
    2f92:	3c 01       	movw	r6, r24
    2f94:	6b 01       	movw	r12, r22
    2f96:	dc 01       	movw	r26, r24
    2f98:	bc 90       	ld	r11, X
    2f9a:	83 e0       	ldi	r24, 0x03	; 3
    2f9c:	61 e0       	ldi	r22, 0x01	; 1
    2f9e:	48 ea       	ldi	r20, 0xA8	; 168
    2fa0:	52 e0       	ldi	r21, 0x02	; 2
    2fa2:	0e 94 b7 05 	call	0xb6e	; 0xb6e <lcd_printlc>
    2fa6:	91 e0       	ldi	r25, 0x01	; 1
    2fa8:	0b e2       	ldi	r16, 0x2B	; 43
    2faa:	14 e0       	ldi	r17, 0x04	; 4
    2fac:	87 eb       	ldi	r24, 0xB7	; 183
    2fae:	e8 2e       	mov	r14, r24
    2fb0:	82 e0       	ldi	r24, 0x02	; 2
    2fb2:	f8 2e       	mov	r15, r24
    2fb4:	b4 e6       	ldi	r27, 0x64	; 100
    2fb6:	ab 2e       	mov	r10, r27
    2fb8:	01 c0       	rjmp	.+2      	; 0x2fbc <menu_mondlicht_helligkeit_einstellen+0x4a>
    2fba:	90 e0       	ldi	r25, 0x00	; 0
    2fbc:	f3 01       	movw	r30, r6
    2fbe:	80 81       	ld	r24, Z
    2fc0:	99 83       	std	Y+1, r25	; 0x01
    2fc2:	0e 94 0b 17 	call	0x2e16	; 0x2e16 <mondlicht_dimmer>
    2fc6:	99 81       	ldd	r25, Y+1	; 0x01
    2fc8:	99 23       	and	r25, r25
    2fca:	09 f1       	breq	.+66     	; 0x300e <menu_mondlicht_helligkeit_einstellen+0x9c>
    2fcc:	00 d0       	rcall	.+0      	; 0x2fce <menu_mondlicht_helligkeit_einstellen+0x5c>
    2fce:	00 d0       	rcall	.+0      	; 0x2fd0 <menu_mondlicht_helligkeit_einstellen+0x5e>
    2fd0:	00 d0       	rcall	.+0      	; 0x2fd2 <menu_mondlicht_helligkeit_einstellen+0x60>
    2fd2:	ed b7       	in	r30, 0x3d	; 61
    2fd4:	fe b7       	in	r31, 0x3e	; 62
    2fd6:	31 96       	adiw	r30, 0x01	; 1
    2fd8:	ad b7       	in	r26, 0x3d	; 61
    2fda:	be b7       	in	r27, 0x3e	; 62
    2fdc:	12 96       	adiw	r26, 0x02	; 2
    2fde:	1c 93       	st	X, r17
    2fe0:	0e 93       	st	-X, r16
    2fe2:	11 97       	sbiw	r26, 0x01	; 1
    2fe4:	f3 82       	std	Z+3, r15	; 0x03
    2fe6:	e2 82       	std	Z+2, r14	; 0x02
    2fe8:	d3 01       	movw	r26, r6
    2fea:	8c 91       	ld	r24, X
    2fec:	84 83       	std	Z+4, r24	; 0x04
    2fee:	15 82       	std	Z+5, r1	; 0x05
    2ff0:	0e 94 de 1d 	call	0x3bbc	; 0x3bbc <sprintf>
    2ff4:	ed b7       	in	r30, 0x3d	; 61
    2ff6:	fe b7       	in	r31, 0x3e	; 62
    2ff8:	36 96       	adiw	r30, 0x06	; 6
    2ffa:	0f b6       	in	r0, 0x3f	; 63
    2ffc:	f8 94       	cli
    2ffe:	fe bf       	out	0x3e, r31	; 62
    3000:	0f be       	out	0x3f, r0	; 63
    3002:	ed bf       	out	0x3d, r30	; 61
    3004:	83 e0       	ldi	r24, 0x03	; 3
    3006:	6d e0       	ldi	r22, 0x0D	; 13
    3008:	a8 01       	movw	r20, r16
    300a:	0e 94 6a 05 	call	0xad4	; 0xad4 <lcd_printlr>
    300e:	84 e0       	ldi	r24, 0x04	; 4
    3010:	0e 94 85 1b 	call	0x370a	; 0x370a <get_key_press>
    3014:	98 2e       	mov	r9, r24
    3016:	84 e0       	ldi	r24, 0x04	; 4
    3018:	0e 94 90 1b 	call	0x3720	; 0x3720 <get_key_rpt>
    301c:	89 29       	or	r24, r9
    301e:	01 f1       	breq	.+64     	; 0x3060 <menu_mondlicht_helligkeit_einstellen+0xee>
    3020:	80 e0       	ldi	r24, 0x00	; 0
    3022:	0e 94 0b 17 	call	0x2e16	; 0x2e16 <mondlicht_dimmer>
    3026:	81 e0       	ldi	r24, 0x01	; 1
    3028:	0e 94 75 06 	call	0xcea	; 0xcea <lcd_command>
    302c:	81 e0       	ldi	r24, 0x01	; 1
    302e:	61 e0       	ldi	r22, 0x01	; 1
    3030:	4e e3       	ldi	r20, 0x3E	; 62
    3032:	52 e0       	ldi	r21, 0x02	; 2
    3034:	0e 94 b7 05 	call	0xb6e	; 0xb6e <lcd_printlc>
    3038:	f8 94       	cli
    303a:	c6 01       	movw	r24, r12
    303c:	d3 01       	movw	r26, r6
    303e:	6c 91       	ld	r22, X
    3040:	0e 94 0a 20 	call	0x4014	; 0x4014 <__eewr_byte_m644p>
    3044:	78 94       	sei
    3046:	8f ef       	ldi	r24, 0xFF	; 255
    3048:	99 e6       	ldi	r25, 0x69	; 105
    304a:	a8 e1       	ldi	r26, 0x18	; 24
    304c:	81 50       	subi	r24, 0x01	; 1
    304e:	90 40       	sbci	r25, 0x00	; 0
    3050:	a0 40       	sbci	r26, 0x00	; 0
    3052:	e1 f7       	brne	.-8      	; 0x304c <menu_mondlicht_helligkeit_einstellen+0xda>
    3054:	00 c0       	rjmp	.+0      	; 0x3056 <menu_mondlicht_helligkeit_einstellen+0xe4>
    3056:	00 00       	nop
    3058:	81 e0       	ldi	r24, 0x01	; 1
    305a:	0e 94 75 06 	call	0xcea	; 0xcea <lcd_command>
    305e:	35 c0       	rjmp	.+106    	; 0x30ca <menu_mondlicht_helligkeit_einstellen+0x158>
    3060:	80 e2       	ldi	r24, 0x20	; 32
    3062:	0e 94 85 1b 	call	0x370a	; 0x370a <get_key_press>
    3066:	98 2e       	mov	r9, r24
    3068:	80 e2       	ldi	r24, 0x20	; 32
    306a:	0e 94 90 1b 	call	0x3720	; 0x3720 <get_key_rpt>
    306e:	89 29       	or	r24, r9
    3070:	31 f0       	breq	.+12     	; 0x307e <menu_mondlicht_helligkeit_einstellen+0x10c>
    3072:	d3 01       	movw	r26, r6
    3074:	bc 92       	st	X, r11
    3076:	80 e0       	ldi	r24, 0x00	; 0
    3078:	0e 94 0b 17 	call	0x2e16	; 0x2e16 <mondlicht_dimmer>
    307c:	26 c0       	rjmp	.+76     	; 0x30ca <menu_mondlicht_helligkeit_einstellen+0x158>
    307e:	81 e0       	ldi	r24, 0x01	; 1
    3080:	0e 94 85 1b 	call	0x370a	; 0x370a <get_key_press>
    3084:	98 2e       	mov	r9, r24
    3086:	81 e0       	ldi	r24, 0x01	; 1
    3088:	0e 94 90 1b 	call	0x3720	; 0x3720 <get_key_rpt>
    308c:	89 29       	or	r24, r9
    308e:	41 f0       	breq	.+16     	; 0x30a0 <menu_mondlicht_helligkeit_einstellen+0x12e>
    3090:	f3 01       	movw	r30, r6
    3092:	80 81       	ld	r24, Z
    3094:	84 36       	cpi	r24, 0x64	; 100
    3096:	11 f4       	brne	.+4      	; 0x309c <menu_mondlicht_helligkeit_einstellen+0x12a>
    3098:	10 82       	st	Z, r1
    309a:	15 c0       	rjmp	.+42     	; 0x30c6 <menu_mondlicht_helligkeit_einstellen+0x154>
    309c:	8f 5f       	subi	r24, 0xFF	; 255
    309e:	11 c0       	rjmp	.+34     	; 0x30c2 <menu_mondlicht_helligkeit_einstellen+0x150>
    30a0:	80 e1       	ldi	r24, 0x10	; 16
    30a2:	0e 94 85 1b 	call	0x370a	; 0x370a <get_key_press>
    30a6:	98 2e       	mov	r9, r24
    30a8:	80 e1       	ldi	r24, 0x10	; 16
    30aa:	0e 94 90 1b 	call	0x3720	; 0x3720 <get_key_rpt>
    30ae:	89 29       	or	r24, r9
    30b0:	09 f4       	brne	.+2      	; 0x30b4 <menu_mondlicht_helligkeit_einstellen+0x142>
    30b2:	83 cf       	rjmp	.-250    	; 0x2fba <menu_mondlicht_helligkeit_einstellen+0x48>
    30b4:	f3 01       	movw	r30, r6
    30b6:	80 81       	ld	r24, Z
    30b8:	88 23       	and	r24, r24
    30ba:	11 f4       	brne	.+4      	; 0x30c0 <menu_mondlicht_helligkeit_einstellen+0x14e>
    30bc:	a0 82       	st	Z, r10
    30be:	03 c0       	rjmp	.+6      	; 0x30c6 <menu_mondlicht_helligkeit_einstellen+0x154>
    30c0:	81 50       	subi	r24, 0x01	; 1
    30c2:	d3 01       	movw	r26, r6
    30c4:	8c 93       	st	X, r24
    30c6:	91 e0       	ldi	r25, 0x01	; 1
    30c8:	79 cf       	rjmp	.-270    	; 0x2fbc <menu_mondlicht_helligkeit_einstellen+0x4a>
    30ca:	0f 90       	pop	r0
    30cc:	cf 91       	pop	r28
    30ce:	df 91       	pop	r29
    30d0:	1f 91       	pop	r17
    30d2:	0f 91       	pop	r16
    30d4:	ff 90       	pop	r15
    30d6:	ef 90       	pop	r14
    30d8:	df 90       	pop	r13
    30da:	cf 90       	pop	r12
    30dc:	bf 90       	pop	r11
    30de:	af 90       	pop	r10
    30e0:	9f 90       	pop	r9
    30e2:	7f 90       	pop	r7
    30e4:	6f 90       	pop	r6
    30e6:	08 95       	ret

000030e8 <funkt_menu_mondlicht_helligkeit>:
    30e8:	cf 93       	push	r28
    30ea:	df 93       	push	r29
    30ec:	81 e0       	ldi	r24, 0x01	; 1
    30ee:	0e 94 75 06 	call	0xcea	; 0xcea <lcd_command>
    30f2:	cd ed       	ldi	r28, 0xDD	; 221
    30f4:	d3 e0       	ldi	r29, 0x03	; 3
    30f6:	ce 01       	movw	r24, r28
    30f8:	63 e9       	ldi	r22, 0x93	; 147
    30fa:	72 e0       	ldi	r23, 0x02	; 2
    30fc:	0e 94 b2 1d 	call	0x3b64	; 0x3b64 <strcpy_P>
    3100:	ac 01       	movw	r20, r24
    3102:	81 e0       	ldi	r24, 0x01	; 1
    3104:	61 e0       	ldi	r22, 0x01	; 1
    3106:	0e 94 b7 05 	call	0xb6e	; 0xb6e <lcd_printlc>
    310a:	ce 01       	movw	r24, r28
    310c:	68 e8       	ldi	r22, 0x88	; 136
    310e:	72 e0       	ldi	r23, 0x02	; 2
    3110:	0e 94 b2 1d 	call	0x3b64	; 0x3b64 <strcpy_P>
    3114:	ac 01       	movw	r20, r24
    3116:	82 e0       	ldi	r24, 0x02	; 2
    3118:	61 e0       	ldi	r22, 0x01	; 1
    311a:	0e 94 b7 05 	call	0xb6e	; 0xb6e <lcd_printlc>
    311e:	84 e0       	ldi	r24, 0x04	; 4
    3120:	93 e0       	ldi	r25, 0x03	; 3
    3122:	61 e0       	ldi	r22, 0x01	; 1
    3124:	70 e0       	ldi	r23, 0x00	; 0
    3126:	0e 94 b9 17 	call	0x2f72	; 0x2f72 <menu_mondlicht_helligkeit_einstellen>
    312a:	81 e0       	ldi	r24, 0x01	; 1
    312c:	0e 94 75 06 	call	0xcea	; 0xcea <lcd_command>
    3130:	df 91       	pop	r29
    3132:	cf 91       	pop	r28
    3134:	08 95       	ret

00003136 <reset_tageswerte>:
    3136:	20 91 0f 04 	lds	r18, 0x040F
    313a:	80 91 0f 03 	lds	r24, 0x030F
    313e:	82 17       	cp	r24, r18
    3140:	09 f4       	brne	.+2      	; 0x3144 <reset_tageswerte+0xe>
    3142:	3c c0       	rjmp	.+120    	; 0x31bc <reset_tageswerte+0x86>
    3144:	88 e0       	ldi	r24, 0x08	; 8
    3146:	93 e0       	ldi	r25, 0x03	; 3
    3148:	90 93 1a 04 	sts	0x041A, r25
    314c:	80 93 19 04 	sts	0x0419, r24
    3150:	90 93 1c 04 	sts	0x041C, r25
    3154:	80 93 1b 04 	sts	0x041B, r24
    3158:	ad e1       	ldi	r26, 0x1D	; 29
    315a:	b4 e0       	ldi	r27, 0x04	; 4
    315c:	ec e0       	ldi	r30, 0x0C	; 12
    315e:	f4 e0       	ldi	r31, 0x04	; 4
    3160:	87 e0       	ldi	r24, 0x07	; 7
    3162:	01 90       	ld	r0, Z+
    3164:	0d 92       	st	X+, r0
    3166:	81 50       	subi	r24, 0x01	; 1
    3168:	e1 f7       	brne	.-8      	; 0x3162 <reset_tageswerte+0x2c>
    316a:	a4 e2       	ldi	r26, 0x24	; 36
    316c:	b4 e0       	ldi	r27, 0x04	; 4
    316e:	ec e0       	ldi	r30, 0x0C	; 12
    3170:	f4 e0       	ldi	r31, 0x04	; 4
    3172:	87 e0       	ldi	r24, 0x07	; 7
    3174:	01 90       	ld	r0, Z+
    3176:	0d 92       	st	X+, r0
    3178:	81 50       	subi	r24, 0x01	; 1
    317a:	e1 f7       	brne	.-8      	; 0x3174 <reset_tageswerte+0x3e>
    317c:	80 91 0e 03 	lds	r24, 0x030E
    3180:	80 93 c5 03 	sts	0x03C5, r24
    3184:	10 92 c6 03 	sts	0x03C6, r1
    3188:	a7 ec       	ldi	r26, 0xC7	; 199
    318a:	b3 e0       	ldi	r27, 0x03	; 3
    318c:	80 93 c7 03 	sts	0x03C7, r24
    3190:	11 96       	adiw	r26, 0x01	; 1
    3192:	1c 92       	st	X, r1
    3194:	11 97       	sbiw	r26, 0x01	; 1
    3196:	12 96       	adiw	r26, 0x02	; 2
    3198:	ec e0       	ldi	r30, 0x0C	; 12
    319a:	f4 e0       	ldi	r31, 0x04	; 4
    319c:	87 e0       	ldi	r24, 0x07	; 7
    319e:	01 90       	ld	r0, Z+
    31a0:	0d 92       	st	X+, r0
    31a2:	81 50       	subi	r24, 0x01	; 1
    31a4:	e1 f7       	brne	.-8      	; 0x319e <reset_tageswerte+0x68>
    31a6:	a0 ed       	ldi	r26, 0xD0	; 208
    31a8:	b3 e0       	ldi	r27, 0x03	; 3
    31aa:	ec e0       	ldi	r30, 0x0C	; 12
    31ac:	f4 e0       	ldi	r31, 0x04	; 4
    31ae:	87 e0       	ldi	r24, 0x07	; 7
    31b0:	01 90       	ld	r0, Z+
    31b2:	0d 92       	st	X+, r0
    31b4:	81 50       	subi	r24, 0x01	; 1
    31b6:	e1 f7       	brne	.-8      	; 0x31b0 <reset_tageswerte+0x7a>
    31b8:	20 93 0f 03 	sts	0x030F, r18
    31bc:	08 95       	ret

000031be <main_anzeige>:
    31be:	cf 93       	push	r28
    31c0:	df 93       	push	r29
    31c2:	8c e0       	ldi	r24, 0x0C	; 12
    31c4:	0e 94 75 06 	call	0xcea	; 0xcea <lcd_command>
    31c8:	8d b7       	in	r24, 0x3d	; 61
    31ca:	9e b7       	in	r25, 0x3e	; 62
    31cc:	0a 97       	sbiw	r24, 0x0a	; 10
    31ce:	0f b6       	in	r0, 0x3f	; 63
    31d0:	f8 94       	cli
    31d2:	9e bf       	out	0x3e, r25	; 62
    31d4:	0f be       	out	0x3f, r0	; 63
    31d6:	8d bf       	out	0x3d, r24	; 61
    31d8:	ed b7       	in	r30, 0x3d	; 61
    31da:	fe b7       	in	r31, 0x3e	; 62
    31dc:	31 96       	adiw	r30, 0x01	; 1
    31de:	cb e2       	ldi	r28, 0x2B	; 43
    31e0:	d4 e0       	ldi	r29, 0x04	; 4
    31e2:	ad b7       	in	r26, 0x3d	; 61
    31e4:	be b7       	in	r27, 0x3e	; 62
    31e6:	12 96       	adiw	r26, 0x02	; 2
    31e8:	dc 93       	st	X, r29
    31ea:	ce 93       	st	-X, r28
    31ec:	11 97       	sbiw	r26, 0x01	; 1
    31ee:	89 e1       	ldi	r24, 0x19	; 25
    31f0:	92 e0       	ldi	r25, 0x02	; 2
    31f2:	93 83       	std	Z+3, r25	; 0x03
    31f4:	82 83       	std	Z+2, r24	; 0x02
    31f6:	80 91 0e 04 	lds	r24, 0x040E
    31fa:	84 83       	std	Z+4, r24	; 0x04
    31fc:	15 82       	std	Z+5, r1	; 0x05
    31fe:	80 91 0c 04 	lds	r24, 0x040C
    3202:	86 83       	std	Z+6, r24	; 0x06
    3204:	17 82       	std	Z+7, r1	; 0x07
    3206:	80 91 0d 04 	lds	r24, 0x040D
    320a:	80 87       	std	Z+8, r24	; 0x08
    320c:	11 86       	std	Z+9, r1	; 0x09
    320e:	0e 94 de 1d 	call	0x3bbc	; 0x3bbc <sprintf>
    3212:	8d b7       	in	r24, 0x3d	; 61
    3214:	9e b7       	in	r25, 0x3e	; 62
    3216:	0a 96       	adiw	r24, 0x0a	; 10
    3218:	0f b6       	in	r0, 0x3f	; 63
    321a:	f8 94       	cli
    321c:	9e bf       	out	0x3e, r25	; 62
    321e:	0f be       	out	0x3f, r0	; 63
    3220:	8d bf       	out	0x3d, r24	; 61
    3222:	81 e0       	ldi	r24, 0x01	; 1
    3224:	61 e0       	ldi	r22, 0x01	; 1
    3226:	ae 01       	movw	r20, r28
    3228:	0e 94 b7 05 	call	0xb6e	; 0xb6e <lcd_printlc>
    322c:	80 e2       	ldi	r24, 0x20	; 32
    322e:	0e 94 0d 05 	call	0xa1a	; 0xa1a <lcd_putchar>
    3232:	60 91 10 04 	lds	r22, 0x0410
    3236:	83 e0       	ldi	r24, 0x03	; 3
    3238:	68 9f       	mul	r22, r24
    323a:	b0 01       	movw	r22, r0
    323c:	11 24       	eor	r1, r1
    323e:	66 52       	subi	r22, 0x26	; 38
    3240:	7e 4f       	sbci	r23, 0xFE	; 254
    3242:	8d ed       	ldi	r24, 0xDD	; 221
    3244:	93 e0       	ldi	r25, 0x03	; 3
    3246:	0e 94 b2 1d 	call	0x3b64	; 0x3b64 <strcpy_P>
    324a:	0e 94 1b 05 	call	0xa36	; 0xa36 <lcd_print>
    324e:	88 e0       	ldi	r24, 0x08	; 8
    3250:	93 e0       	ldi	r25, 0x03	; 3
    3252:	be 01       	movw	r22, r28
    3254:	0e 94 45 09 	call	0x128a	; 0x128a <temperatur_to_string>
    3258:	82 e0       	ldi	r24, 0x02	; 2
    325a:	61 e0       	ldi	r22, 0x01	; 1
    325c:	4e eb       	ldi	r20, 0xBE	; 190
    325e:	52 e0       	ldi	r21, 0x02	; 2
    3260:	0e 94 b7 05 	call	0xb6e	; 0xb6e <lcd_printlc>
    3264:	ce 01       	movw	r24, r28
    3266:	0e 94 1b 05 	call	0xa36	; 0xa36 <lcd_print>
    326a:	82 e0       	ldi	r24, 0x02	; 2
    326c:	6b e0       	ldi	r22, 0x0B	; 11
    326e:	44 ec       	ldi	r20, 0xC4	; 196
    3270:	52 e0       	ldi	r21, 0x02	; 2
    3272:	0e 94 b7 05 	call	0xb6e	; 0xb6e <lcd_printlc>
    3276:	80 91 19 04 	lds	r24, 0x0419
    327a:	90 91 1a 04 	lds	r25, 0x041A
    327e:	6e e4       	ldi	r22, 0x4E	; 78
    3280:	74 e0       	ldi	r23, 0x04	; 4
    3282:	0e 94 45 09 	call	0x128a	; 0x128a <temperatur_to_string>
    3286:	8e e4       	ldi	r24, 0x4E	; 78
    3288:	94 e0       	ldi	r25, 0x04	; 4
    328a:	0e 94 1b 05 	call	0xa36	; 0xa36 <lcd_print>
    328e:	83 e0       	ldi	r24, 0x03	; 3
    3290:	61 e0       	ldi	r22, 0x01	; 1
    3292:	4a ec       	ldi	r20, 0xCA	; 202
    3294:	52 e0       	ldi	r21, 0x02	; 2
    3296:	0e 94 b7 05 	call	0xb6e	; 0xb6e <lcd_printlc>
    329a:	83 e0       	ldi	r24, 0x03	; 3
    329c:	6b e0       	ldi	r22, 0x0B	; 11
    329e:	4e ec       	ldi	r20, 0xCE	; 206
    32a0:	52 e0       	ldi	r21, 0x02	; 2
    32a2:	0e 94 8f 05 	call	0xb1e	; 0xb1e <lcd_printlrc>
    32a6:	80 91 1b 04 	lds	r24, 0x041B
    32aa:	90 91 1c 04 	lds	r25, 0x041C
    32ae:	6e e4       	ldi	r22, 0x4E	; 78
    32b0:	74 e0       	ldi	r23, 0x04	; 4
    32b2:	0e 94 45 09 	call	0x128a	; 0x128a <temperatur_to_string>
    32b6:	8e e4       	ldi	r24, 0x4E	; 78
    32b8:	94 e0       	ldi	r25, 0x04	; 4
    32ba:	0e 94 1b 05 	call	0xa36	; 0xa36 <lcd_print>
    32be:	84 e0       	ldi	r24, 0x04	; 4
    32c0:	61 e0       	ldi	r22, 0x01	; 1
    32c2:	44 ed       	ldi	r20, 0xD4	; 212
    32c4:	52 e0       	ldi	r21, 0x02	; 2
    32c6:	0e 94 b7 05 	call	0xb6e	; 0xb6e <lcd_printlc>
    32ca:	80 b1       	in	r24, 0x00	; 0
    32cc:	82 ff       	sbrs	r24, 2
    32ce:	02 c0       	rjmp	.+4      	; 0x32d4 <main_anzeige+0x116>
    32d0:	8e e5       	ldi	r24, 0x5E	; 94
    32d2:	01 c0       	rjmp	.+2      	; 0x32d6 <main_anzeige+0x118>
    32d4:	8f e5       	ldi	r24, 0x5F	; 95
    32d6:	0e 94 0d 05 	call	0xa1a	; 0xa1a <lcd_putchar>
    32da:	87 ed       	ldi	r24, 0xD7	; 215
    32dc:	92 e0       	ldi	r25, 0x02	; 2
    32de:	0e 94 1b 05 	call	0xa36	; 0xa36 <lcd_print>
    32e2:	80 b1       	in	r24, 0x00	; 0
    32e4:	81 ff       	sbrs	r24, 1
    32e6:	02 c0       	rjmp	.+4      	; 0x32ec <main_anzeige+0x12e>
    32e8:	8e e5       	ldi	r24, 0x5E	; 94
    32ea:	01 c0       	rjmp	.+2      	; 0x32ee <main_anzeige+0x130>
    32ec:	8f e5       	ldi	r24, 0x5F	; 95
    32ee:	0e 94 0d 05 	call	0xa1a	; 0xa1a <lcd_putchar>
    32f2:	8b ed       	ldi	r24, 0xDB	; 219
    32f4:	92 e0       	ldi	r25, 0x02	; 2
    32f6:	0e 94 1b 05 	call	0xa36	; 0xa36 <lcd_print>
    32fa:	80 b1       	in	r24, 0x00	; 0
    32fc:	83 ff       	sbrs	r24, 3
    32fe:	02 c0       	rjmp	.+4      	; 0x3304 <main_anzeige+0x146>
    3300:	8e e5       	ldi	r24, 0x5E	; 94
    3302:	01 c0       	rjmp	.+2      	; 0x3306 <main_anzeige+0x148>
    3304:	8f e5       	ldi	r24, 0x5F	; 95
    3306:	0e 94 0d 05 	call	0xa1a	; 0xa1a <lcd_putchar>
    330a:	8f ed       	ldi	r24, 0xDF	; 223
    330c:	92 e0       	ldi	r25, 0x02	; 2
    330e:	0e 94 1b 05 	call	0xa36	; 0xa36 <lcd_print>
    3312:	80 91 9b 04 	lds	r24, 0x049B
    3316:	83 ff       	sbrs	r24, 3
    3318:	02 c0       	rjmp	.+4      	; 0x331e <main_anzeige+0x160>
    331a:	8e e5       	ldi	r24, 0x5E	; 94
    331c:	01 c0       	rjmp	.+2      	; 0x3320 <main_anzeige+0x162>
    331e:	8f e5       	ldi	r24, 0x5F	; 95
    3320:	0e 94 0d 05 	call	0xa1a	; 0xa1a <lcd_putchar>
    3324:	84 ee       	ldi	r24, 0xE4	; 228
    3326:	92 e0       	ldi	r25, 0x02	; 2
    3328:	0e 94 1b 05 	call	0xa36	; 0xa36 <lcd_print>
    332c:	80 b1       	in	r24, 0x00	; 0
    332e:	80 ff       	sbrs	r24, 0
    3330:	02 c0       	rjmp	.+4      	; 0x3336 <main_anzeige+0x178>
    3332:	8e e5       	ldi	r24, 0x5E	; 94
    3334:	01 c0       	rjmp	.+2      	; 0x3338 <main_anzeige+0x17a>
    3336:	8f e5       	ldi	r24, 0x5F	; 95
    3338:	0e 94 0d 05 	call	0xa1a	; 0xa1a <lcd_putchar>
    333c:	df 91       	pop	r29
    333e:	cf 91       	pop	r28
    3340:	08 95       	ret

00003342 <main>:
    3342:	0f 93       	push	r16
    3344:	1f 93       	push	r17
    3346:	cf 93       	push	r28
    3348:	df 93       	push	r29
    334a:	04 b6       	in	r0, 0x34	; 52
    334c:	03 fe       	sbrs	r0, 3
    334e:	06 c0       	rjmp	.+12     	; 0x335c <main+0x1a>
    3350:	86 e0       	ldi	r24, 0x06	; 6
    3352:	80 93 06 03 	sts	0x0306, r24
    3356:	84 b7       	in	r24, 0x34	; 52
    3358:	87 7f       	andi	r24, 0xF7	; 247
    335a:	84 bf       	out	0x34, r24	; 52
    335c:	88 e1       	ldi	r24, 0x18	; 24
    335e:	0f b6       	in	r0, 0x3f	; 63
    3360:	f8 94       	cli
    3362:	80 93 60 00 	sts	0x0060, r24
    3366:	10 92 60 00 	sts	0x0060, r1
    336a:	0f be       	out	0x3f, r0	; 63
    336c:	0e 94 2d 09 	call	0x125a	; 0x125a <timer_init>
    3370:	0e 94 19 16 	call	0x2c32	; 0x2c32 <read_eeprom_daten>
    3374:	0e 94 a8 1b 	call	0x3750	; 0x3750 <init_taster>
    3378:	0e 94 b2 06 	call	0xd64	; 0xd64 <i2c_init>
    337c:	0e 94 db 03 	call	0x7b6	; 0x7b6 <ds_1307_init>
    3380:	0e 94 85 06 	call	0xd0a	; 0xd0a <lcd_init>
    3384:	0e 94 3d 09 	call	0x127a	; 0x127a <init_ports>
    3388:	80 e1       	ldi	r24, 0x10	; 16
    338a:	90 e0       	ldi	r25, 0x00	; 0
    338c:	0e 94 0b 1c 	call	0x3816	; 0x3816 <uart_init>
    3390:	78 94       	sei
    3392:	8f ef       	ldi	r24, 0xFF	; 255
    3394:	93 ed       	ldi	r25, 0xD3	; 211
    3396:	a0 e3       	ldi	r26, 0x30	; 48
    3398:	81 50       	subi	r24, 0x01	; 1
    339a:	90 40       	sbci	r25, 0x00	; 0
    339c:	a0 40       	sbci	r26, 0x00	; 0
    339e:	e1 f7       	brne	.-8      	; 0x3398 <main+0x56>
    33a0:	00 c0       	rjmp	.+0      	; 0x33a2 <main+0x60>
    33a2:	00 00       	nop
    33a4:	2e e0       	ldi	r18, 0x0E	; 14
    33a6:	88 e1       	ldi	r24, 0x18	; 24
    33a8:	90 e0       	ldi	r25, 0x00	; 0
    33aa:	0f b6       	in	r0, 0x3f	; 63
    33ac:	f8 94       	cli
    33ae:	a8 95       	wdr
    33b0:	80 93 60 00 	sts	0x0060, r24
    33b4:	0f be       	out	0x3f, r0	; 63
    33b6:	20 93 60 00 	sts	0x0060, r18
    33ba:	80 e9       	ldi	r24, 0x90	; 144
    33bc:	0e 94 a0 08 	call	0x1140	; 0x1140 <get_lm76_temperatur>
    33c0:	20 91 03 03 	lds	r18, 0x0303
    33c4:	33 27       	eor	r19, r19
    33c6:	27 fd       	sbrc	r18, 7
    33c8:	30 95       	com	r19
    33ca:	28 0f       	add	r18, r24
    33cc:	39 1f       	adc	r19, r25
    33ce:	30 93 09 03 	sts	0x0309, r19
    33d2:	20 93 08 03 	sts	0x0308, r18
    33d6:	8c e0       	ldi	r24, 0x0C	; 12
    33d8:	94 e0       	ldi	r25, 0x04	; 4
    33da:	0e 94 00 04 	call	0x800	; 0x800 <get_ds1307_zeit_datum>
    33de:	82 ea       	ldi	r24, 0xA2	; 162
    33e0:	93 e0       	ldi	r25, 0x03	; 3
    33e2:	0e 94 a9 03 	call	0x752	; 0x752 <read_phwert>
    33e6:	80 93 0e 03 	sts	0x030E, r24
    33ea:	20 91 08 03 	lds	r18, 0x0308
    33ee:	30 91 09 03 	lds	r19, 0x0309
    33f2:	30 93 1a 04 	sts	0x041A, r19
    33f6:	20 93 19 04 	sts	0x0419, r18
    33fa:	30 93 1c 04 	sts	0x041C, r19
    33fe:	20 93 1b 04 	sts	0x041B, r18
    3402:	80 93 c5 03 	sts	0x03C5, r24
    3406:	10 92 c6 03 	sts	0x03C6, r1
    340a:	80 93 c7 03 	sts	0x03C7, r24
    340e:	10 92 c8 03 	sts	0x03C8, r1
    3412:	80 91 9b 04 	lds	r24, 0x049B
    3416:	80 61       	ori	r24, 0x10	; 16
    3418:	8f 7d       	andi	r24, 0xDF	; 223
    341a:	80 93 9b 04 	sts	0x049B, r24
    341e:	0e 94 34 07 	call	0xe68	; 0xe68 <init_menu>
    3422:	85 e0       	ldi	r24, 0x05	; 5
    3424:	0e 94 8d 07 	call	0xf1a	; 0xf1a <menu>
    3428:	81 e0       	ldi	r24, 0x01	; 1
    342a:	0e 94 75 06 	call	0xcea	; 0xcea <lcd_command>
    342e:	80 e0       	ldi	r24, 0x00	; 0
    3430:	90 e0       	ldi	r25, 0x00	; 0
    3432:	0e 94 ad 06 	call	0xd5a	; 0xd5a <lcd_backlight>
    3436:	8c e0       	ldi	r24, 0x0C	; 12
    3438:	0e 94 75 06 	call	0xcea	; 0xcea <lcd_command>
    343c:	08 e1       	ldi	r16, 0x18	; 24
    343e:	c8 e1       	ldi	r28, 0x18	; 24
    3440:	d0 e0       	ldi	r29, 0x00	; 0
    3442:	1e e0       	ldi	r17, 0x0E	; 14
    3444:	a8 95       	wdr
    3446:	0e 94 df 18 	call	0x31be	; 0x31be <main_anzeige>
    344a:	84 e0       	ldi	r24, 0x04	; 4
    344c:	0e 94 85 1b 	call	0x370a	; 0x370a <get_key_press>
    3450:	88 23       	and	r24, r24
    3452:	09 f4       	brne	.+2      	; 0x3456 <main+0x114>
    3454:	4a c0       	rjmp	.+148    	; 0x34ea <main+0x1a8>
    3456:	0f b6       	in	r0, 0x3f	; 63
    3458:	f8 94       	cli
    345a:	00 93 60 00 	sts	0x0060, r16
    345e:	10 92 60 00 	sts	0x0060, r1
    3462:	0f be       	out	0x3f, r0	; 63
    3464:	81 e0       	ldi	r24, 0x01	; 1
    3466:	0e 94 75 06 	call	0xcea	; 0xcea <lcd_command>
    346a:	80 e0       	ldi	r24, 0x00	; 0
    346c:	90 e0       	ldi	r25, 0x00	; 0
    346e:	0e 94 ad 06 	call	0xd5a	; 0xd5a <lcd_backlight>
    3472:	0e 94 51 08 	call	0x10a2	; 0x10a2 <displayMenu>
    3476:	81 e0       	ldi	r24, 0x01	; 1
    3478:	0e 94 85 1b 	call	0x370a	; 0x370a <get_key_press>
    347c:	88 23       	and	r24, r24
    347e:	11 f0       	breq	.+4      	; 0x3484 <main+0x142>
    3480:	80 e0       	ldi	r24, 0x00	; 0
    3482:	06 c0       	rjmp	.+12     	; 0x3490 <main+0x14e>
    3484:	82 e0       	ldi	r24, 0x02	; 2
    3486:	0e 94 85 1b 	call	0x370a	; 0x370a <get_key_press>
    348a:	88 23       	and	r24, r24
    348c:	21 f0       	breq	.+8      	; 0x3496 <main+0x154>
    348e:	81 e0       	ldi	r24, 0x01	; 1
    3490:	0e 94 8d 07 	call	0xf1a	; 0xf1a <menu>
    3494:	ee cf       	rjmp	.-36     	; 0x3472 <main+0x130>
    3496:	84 e0       	ldi	r24, 0x04	; 4
    3498:	0e 94 85 1b 	call	0x370a	; 0x370a <get_key_press>
    349c:	88 23       	and	r24, r24
    349e:	11 f0       	breq	.+4      	; 0x34a4 <main+0x162>
    34a0:	82 e0       	ldi	r24, 0x02	; 2
    34a2:	f6 cf       	rjmp	.-20     	; 0x3490 <main+0x14e>
    34a4:	88 e0       	ldi	r24, 0x08	; 8
    34a6:	0e 94 85 1b 	call	0x370a	; 0x370a <get_key_press>
    34aa:	88 23       	and	r24, r24
    34ac:	11 f0       	breq	.+4      	; 0x34b2 <main+0x170>
    34ae:	83 e0       	ldi	r24, 0x03	; 3
    34b0:	ef cf       	rjmp	.-34     	; 0x3490 <main+0x14e>
    34b2:	80 e1       	ldi	r24, 0x10	; 16
    34b4:	0e 94 85 1b 	call	0x370a	; 0x370a <get_key_press>
    34b8:	88 23       	and	r24, r24
    34ba:	11 f0       	breq	.+4      	; 0x34c0 <main+0x17e>
    34bc:	84 e0       	ldi	r24, 0x04	; 4
    34be:	e8 cf       	rjmp	.-48     	; 0x3490 <main+0x14e>
    34c0:	80 e2       	ldi	r24, 0x20	; 32
    34c2:	0e 94 85 1b 	call	0x370a	; 0x370a <get_key_press>
    34c6:	88 23       	and	r24, r24
    34c8:	a1 f2       	breq	.-88     	; 0x3472 <main+0x130>
    34ca:	0f b6       	in	r0, 0x3f	; 63
    34cc:	f8 94       	cli
    34ce:	a8 95       	wdr
    34d0:	c0 93 60 00 	sts	0x0060, r28
    34d4:	0f be       	out	0x3f, r0	; 63
    34d6:	10 93 60 00 	sts	0x0060, r17
    34da:	85 e0       	ldi	r24, 0x05	; 5
    34dc:	0e 94 8d 07 	call	0xf1a	; 0xf1a <menu>
    34e0:	81 e0       	ldi	r24, 0x01	; 1
    34e2:	0e 94 75 06 	call	0xcea	; 0xcea <lcd_command>
    34e6:	10 92 12 03 	sts	0x0312, r1
    34ea:	80 e8       	ldi	r24, 0x80	; 128
    34ec:	0e 94 85 1b 	call	0x370a	; 0x370a <get_key_press>
    34f0:	88 23       	and	r24, r24
    34f2:	99 f0       	breq	.+38     	; 0x351a <main+0x1d8>
    34f4:	90 91 9b 04 	lds	r25, 0x049B
    34f8:	89 2f       	mov	r24, r25
    34fa:	82 95       	swap	r24
    34fc:	8f 70       	andi	r24, 0x0F	; 15
    34fe:	80 95       	com	r24
    3500:	81 70       	andi	r24, 0x01	; 1
    3502:	82 95       	swap	r24
    3504:	80 7f       	andi	r24, 0xF0	; 240
    3506:	9f 7e       	andi	r25, 0xEF	; 239
    3508:	98 2b       	or	r25, r24
    350a:	90 93 9b 04 	sts	0x049B, r25
    350e:	80 e0       	ldi	r24, 0x00	; 0
    3510:	90 e0       	ldi	r25, 0x00	; 0
    3512:	0e 94 ad 06 	call	0xd5a	; 0xd5a <lcd_backlight>
    3516:	10 92 12 03 	sts	0x0312, r1
    351a:	80 e4       	ldi	r24, 0x40	; 64
    351c:	0e 94 85 1b 	call	0x370a	; 0x370a <get_key_press>
    3520:	88 23       	and	r24, r24
    3522:	51 f0       	breq	.+20     	; 0x3538 <main+0x1f6>
    3524:	84 e9       	ldi	r24, 0x94	; 148
    3526:	94 e0       	ldi	r25, 0x04	; 4
    3528:	0e 94 83 15 	call	0x2b06	; 0x2b06 <regenpumpe_aktivieren>
    352c:	80 e0       	ldi	r24, 0x00	; 0
    352e:	90 e0       	ldi	r25, 0x00	; 0
    3530:	0e 94 ad 06 	call	0xd5a	; 0xd5a <lcd_backlight>
    3534:	10 92 12 03 	sts	0x0312, r1
    3538:	80 e2       	ldi	r24, 0x20	; 32
    353a:	0e 94 85 1b 	call	0x370a	; 0x370a <get_key_press>
    353e:	88 23       	and	r24, r24
    3540:	61 f0       	breq	.+24     	; 0x355a <main+0x218>
    3542:	80 91 12 03 	lds	r24, 0x0312
    3546:	8e 31       	cpi	r24, 0x1E	; 30
    3548:	10 f4       	brcc	.+4      	; 0x354e <main+0x20c>
    354a:	10 92 06 03 	sts	0x0306, r1
    354e:	80 e0       	ldi	r24, 0x00	; 0
    3550:	90 e0       	ldi	r25, 0x00	; 0
    3552:	0e 94 ad 06 	call	0xd5a	; 0xd5a <lcd_backlight>
    3556:	10 92 12 03 	sts	0x0312, r1
    355a:	8b e3       	ldi	r24, 0x3B	; 59
    355c:	0e 94 85 1b 	call	0x370a	; 0x370a <get_key_press>
    3560:	88 23       	and	r24, r24
    3562:	31 f0       	breq	.+12     	; 0x3570 <main+0x22e>
    3564:	80 e0       	ldi	r24, 0x00	; 0
    3566:	90 e0       	ldi	r25, 0x00	; 0
    3568:	0e 94 ad 06 	call	0xd5a	; 0xd5a <lcd_backlight>
    356c:	10 92 12 03 	sts	0x0312, r1
    3570:	80 91 c3 03 	lds	r24, 0x03C3
    3574:	88 23       	and	r24, r24
    3576:	f9 f0       	breq	.+62     	; 0x35b6 <main+0x274>
    3578:	10 92 c3 03 	sts	0x03C3, r1
    357c:	8c e0       	ldi	r24, 0x0C	; 12
    357e:	94 e0       	ldi	r25, 0x04	; 4
    3580:	0e 94 00 04 	call	0x800	; 0x800 <get_ds1307_zeit_datum>
    3584:	0e 94 cd 15 	call	0x2b9a	; 0x2b9a <lampen_schalten>
    3588:	0e 94 9b 18 	call	0x3136	; 0x3136 <reset_tageswerte>
    358c:	80 91 b8 03 	lds	r24, 0x03B8
    3590:	90 91 b9 03 	lds	r25, 0x03B9
    3594:	a0 91 ba 03 	lds	r26, 0x03BA
    3598:	b0 91 bb 03 	lds	r27, 0x03BB
    359c:	20 91 9b 04 	lds	r18, 0x049B
    35a0:	00 97       	sbiw	r24, 0x00	; 0
    35a2:	a1 05       	cpc	r26, r1
    35a4:	b1 05       	cpc	r27, r1
    35a6:	11 f0       	breq	.+4      	; 0x35ac <main+0x26a>
    35a8:	20 62       	ori	r18, 0x20	; 32
    35aa:	01 c0       	rjmp	.+2      	; 0x35ae <main+0x26c>
    35ac:	2f 7d       	andi	r18, 0xDF	; 223
    35ae:	20 93 9b 04 	sts	0x049B, r18
    35b2:	0e 94 1c 17 	call	0x2e38	; 0x2e38 <ausgaenge_ansteuern>
    35b6:	80 91 be 03 	lds	r24, 0x03BE
    35ba:	88 23       	and	r24, r24
    35bc:	09 f4       	brne	.+2      	; 0x35c0 <main+0x27e>
    35be:	42 cf       	rjmp	.-380    	; 0x3444 <main+0x102>
    35c0:	10 92 be 03 	sts	0x03BE, r1
    35c4:	80 e9       	ldi	r24, 0x90	; 144
    35c6:	0e 94 d6 08 	call	0x11ac	; 0x11ac <get_lm76_temperatur_4x>
    35ca:	20 91 03 03 	lds	r18, 0x0303
    35ce:	33 27       	eor	r19, r19
    35d0:	27 fd       	sbrc	r18, 7
    35d2:	30 95       	com	r19
    35d4:	28 0f       	add	r18, r24
    35d6:	39 1f       	adc	r19, r25
    35d8:	30 93 09 03 	sts	0x0309, r19
    35dc:	20 93 08 03 	sts	0x0308, r18
    35e0:	0e 94 3a 15 	call	0x2a74	; 0x2a74 <temperatuen_schalten>
    35e4:	0e 94 84 16 	call	0x2d08	; 0x2d08 <send_to_uart>
    35e8:	80 91 12 03 	lds	r24, 0x0312
    35ec:	8f 31       	cpi	r24, 0x1F	; 31
    35ee:	28 f0       	brcs	.+10     	; 0x35fa <main+0x2b8>
    35f0:	81 e0       	ldi	r24, 0x01	; 1
    35f2:	90 e0       	ldi	r25, 0x00	; 0
    35f4:	0e 94 ad 06 	call	0xd5a	; 0xd5a <lcd_backlight>
    35f8:	25 cf       	rjmp	.-438    	; 0x3444 <main+0x102>
    35fa:	8f 5f       	subi	r24, 0xFF	; 255
    35fc:	80 93 12 03 	sts	0x0312, r24
    3600:	21 cf       	rjmp	.-446    	; 0x3444 <main+0x102>

00003602 <__vector_18>:
    3602:	1f 92       	push	r1
    3604:	0f 92       	push	r0
    3606:	0f b6       	in	r0, 0x3f	; 63
    3608:	0f 92       	push	r0
    360a:	11 24       	eor	r1, r1
    360c:	2f 93       	push	r18
    360e:	8f 93       	push	r24
    3610:	9f 93       	push	r25
    3612:	af 93       	push	r26
    3614:	bf 93       	push	r27
    3616:	84 e6       	ldi	r24, 0x64	; 100
    3618:	86 bd       	out	0x26, r24	; 38
    361a:	90 91 c4 03 	lds	r25, 0x03C4
    361e:	83 b1       	in	r24, 0x03	; 3
    3620:	80 95       	com	r24
    3622:	89 27       	eor	r24, r25
    3624:	90 91 17 03 	lds	r25, 0x0317
    3628:	98 23       	and	r25, r24
    362a:	90 95       	com	r25
    362c:	90 93 17 03 	sts	0x0317, r25
    3630:	20 91 16 03 	lds	r18, 0x0316
    3634:	28 23       	and	r18, r24
    3636:	29 27       	eor	r18, r25
    3638:	20 93 16 03 	sts	0x0316, r18
    363c:	89 23       	and	r24, r25
    363e:	82 23       	and	r24, r18
    3640:	90 91 c4 03 	lds	r25, 0x03C4
    3644:	98 27       	eor	r25, r24
    3646:	90 93 c4 03 	sts	0x03C4, r25
    364a:	90 91 c2 03 	lds	r25, 0x03C2
    364e:	20 91 c4 03 	lds	r18, 0x03C4
    3652:	28 23       	and	r18, r24
    3654:	29 2b       	or	r18, r25
    3656:	20 93 c2 03 	sts	0x03C2, r18
    365a:	80 91 c4 03 	lds	r24, 0x03C4
    365e:	88 23       	and	r24, r24
    3660:	19 f4       	brne	.+6      	; 0x3668 <__vector_18+0x66>
    3662:	82 e3       	ldi	r24, 0x32	; 50
    3664:	80 93 15 03 	sts	0x0315, r24
    3668:	80 91 15 03 	lds	r24, 0x0315
    366c:	81 50       	subi	r24, 0x01	; 1
    366e:	80 93 15 03 	sts	0x0315, r24
    3672:	88 23       	and	r24, r24
    3674:	51 f4       	brne	.+20     	; 0x368a <__vector_18+0x88>
    3676:	8a e0       	ldi	r24, 0x0A	; 10
    3678:	80 93 15 03 	sts	0x0315, r24
    367c:	90 91 bf 03 	lds	r25, 0x03BF
    3680:	80 91 c4 03 	lds	r24, 0x03C4
    3684:	89 2b       	or	r24, r25
    3686:	80 93 bf 03 	sts	0x03BF, r24
    368a:	80 91 14 03 	lds	r24, 0x0314
    368e:	8f 5f       	subi	r24, 0xFF	; 255
    3690:	80 93 14 03 	sts	0x0314, r24
    3694:	82 33       	cpi	r24, 0x32	; 50
    3696:	79 f5       	brne	.+94     	; 0x36f6 <__vector_18+0xf4>
    3698:	10 92 14 03 	sts	0x0314, r1
    369c:	91 e0       	ldi	r25, 0x01	; 1
    369e:	90 93 c3 03 	sts	0x03C3, r25
    36a2:	80 91 13 03 	lds	r24, 0x0313
    36a6:	8f 5f       	subi	r24, 0xFF	; 255
    36a8:	80 93 13 03 	sts	0x0313, r24
    36ac:	82 30       	cpi	r24, 0x02	; 2
    36ae:	19 f5       	brne	.+70     	; 0x36f6 <__vector_18+0xf4>
    36b0:	10 92 13 03 	sts	0x0313, r1
    36b4:	90 93 be 03 	sts	0x03BE, r25
    36b8:	80 91 b8 03 	lds	r24, 0x03B8
    36bc:	90 91 b9 03 	lds	r25, 0x03B9
    36c0:	a0 91 ba 03 	lds	r26, 0x03BA
    36c4:	b0 91 bb 03 	lds	r27, 0x03BB
    36c8:	00 97       	sbiw	r24, 0x00	; 0
    36ca:	a1 05       	cpc	r26, r1
    36cc:	b1 05       	cpc	r27, r1
    36ce:	99 f0       	breq	.+38     	; 0x36f6 <__vector_18+0xf4>
    36d0:	80 91 b8 03 	lds	r24, 0x03B8
    36d4:	90 91 b9 03 	lds	r25, 0x03B9
    36d8:	a0 91 ba 03 	lds	r26, 0x03BA
    36dc:	b0 91 bb 03 	lds	r27, 0x03BB
    36e0:	01 97       	sbiw	r24, 0x01	; 1
    36e2:	a1 09       	sbc	r26, r1
    36e4:	b1 09       	sbc	r27, r1
    36e6:	80 93 b8 03 	sts	0x03B8, r24
    36ea:	90 93 b9 03 	sts	0x03B9, r25
    36ee:	a0 93 ba 03 	sts	0x03BA, r26
    36f2:	b0 93 bb 03 	sts	0x03BB, r27
    36f6:	bf 91       	pop	r27
    36f8:	af 91       	pop	r26
    36fa:	9f 91       	pop	r25
    36fc:	8f 91       	pop	r24
    36fe:	2f 91       	pop	r18
    3700:	0f 90       	pop	r0
    3702:	0f be       	out	0x3f, r0	; 63
    3704:	0f 90       	pop	r0
    3706:	1f 90       	pop	r1
    3708:	18 95       	reti

0000370a <get_key_press>:
    370a:	f8 94       	cli
    370c:	90 91 c2 03 	lds	r25, 0x03C2
    3710:	89 23       	and	r24, r25
    3712:	90 91 c2 03 	lds	r25, 0x03C2
    3716:	98 27       	eor	r25, r24
    3718:	90 93 c2 03 	sts	0x03C2, r25
    371c:	78 94       	sei
    371e:	08 95       	ret

00003720 <get_key_rpt>:
    3720:	f8 94       	cli
    3722:	90 91 bf 03 	lds	r25, 0x03BF
    3726:	89 23       	and	r24, r25
    3728:	90 91 bf 03 	lds	r25, 0x03BF
    372c:	98 27       	eor	r25, r24
    372e:	90 93 bf 03 	sts	0x03BF, r25
    3732:	78 94       	sei
    3734:	08 95       	ret

00003736 <get_key_short>:
    3736:	f8 94       	cli
    3738:	90 91 c4 03 	lds	r25, 0x03C4
    373c:	90 95       	com	r25
    373e:	89 23       	and	r24, r25
    3740:	0e 94 85 1b 	call	0x370a	; 0x370a <get_key_press>
    3744:	08 95       	ret

00003746 <get_key_long>:
    3746:	0e 94 90 1b 	call	0x3720	; 0x3720 <get_key_rpt>
    374a:	0e 94 85 1b 	call	0x370a	; 0x370a <get_key_press>
    374e:	08 95       	ret

00003750 <init_taster>:
    3750:	10 92 b8 03 	sts	0x03B8, r1
    3754:	10 92 b9 03 	sts	0x03B9, r1
    3758:	10 92 ba 03 	sts	0x03BA, r1
    375c:	10 92 bb 03 	sts	0x03BB, r1
    3760:	84 b1       	in	r24, 0x04	; 4
    3762:	14 b8       	out	0x04, r1	; 4
    3764:	85 b1       	in	r24, 0x05	; 5
    3766:	8f ef       	ldi	r24, 0xFF	; 255
    3768:	85 b9       	out	0x05, r24	; 5
    376a:	08 95       	ret

0000376c <__vector_20>:
    376c:	1f 92       	push	r1
    376e:	0f 92       	push	r0
    3770:	0f b6       	in	r0, 0x3f	; 63
    3772:	0f 92       	push	r0
    3774:	11 24       	eor	r1, r1
    3776:	2f 93       	push	r18
    3778:	8f 93       	push	r24
    377a:	9f 93       	push	r25
    377c:	ef 93       	push	r30
    377e:	ff 93       	push	r31
    3780:	80 91 c0 00 	lds	r24, 0x00C0
    3784:	90 91 c6 00 	lds	r25, 0x00C6
    3788:	e0 91 7f 03 	lds	r30, 0x037F
    378c:	ef 5f       	subi	r30, 0xFF	; 255
    378e:	ef 71       	andi	r30, 0x1F	; 31
    3790:	20 91 80 03 	lds	r18, 0x0380
    3794:	e2 17       	cp	r30, r18
    3796:	41 f0       	breq	.+16     	; 0x37a8 <__vector_20+0x3c>
    3798:	88 71       	andi	r24, 0x18	; 24
    379a:	e0 93 7f 03 	sts	0x037F, r30
    379e:	f0 e0       	ldi	r31, 0x00	; 0
    37a0:	ef 57       	subi	r30, 0x7F	; 127
    37a2:	fc 4f       	sbci	r31, 0xFC	; 252
    37a4:	90 83       	st	Z, r25
    37a6:	01 c0       	rjmp	.+2      	; 0x37aa <__vector_20+0x3e>
    37a8:	82 e0       	ldi	r24, 0x02	; 2
    37aa:	80 93 a1 03 	sts	0x03A1, r24
    37ae:	ff 91       	pop	r31
    37b0:	ef 91       	pop	r30
    37b2:	9f 91       	pop	r25
    37b4:	8f 91       	pop	r24
    37b6:	2f 91       	pop	r18
    37b8:	0f 90       	pop	r0
    37ba:	0f be       	out	0x3f, r0	; 63
    37bc:	0f 90       	pop	r0
    37be:	1f 90       	pop	r1
    37c0:	18 95       	reti

000037c2 <__vector_21>:
    37c2:	1f 92       	push	r1
    37c4:	0f 92       	push	r0
    37c6:	0f b6       	in	r0, 0x3f	; 63
    37c8:	0f 92       	push	r0
    37ca:	11 24       	eor	r1, r1
    37cc:	8f 93       	push	r24
    37ce:	9f 93       	push	r25
    37d0:	ef 93       	push	r30
    37d2:	ff 93       	push	r31
    37d4:	90 91 5d 03 	lds	r25, 0x035D
    37d8:	80 91 5e 03 	lds	r24, 0x035E
    37dc:	98 17       	cp	r25, r24
    37de:	69 f0       	breq	.+26     	; 0x37fa <__vector_21+0x38>
    37e0:	e0 91 5e 03 	lds	r30, 0x035E
    37e4:	ef 5f       	subi	r30, 0xFF	; 255
    37e6:	ef 71       	andi	r30, 0x1F	; 31
    37e8:	e0 93 5e 03 	sts	0x035E, r30
    37ec:	f0 e0       	ldi	r31, 0x00	; 0
    37ee:	e1 5a       	subi	r30, 0xA1	; 161
    37f0:	fc 4f       	sbci	r31, 0xFC	; 252
    37f2:	80 81       	ld	r24, Z
    37f4:	80 93 c6 00 	sts	0x00C6, r24
    37f8:	05 c0       	rjmp	.+10     	; 0x3804 <__vector_21+0x42>
    37fa:	80 91 c1 00 	lds	r24, 0x00C1
    37fe:	8f 7d       	andi	r24, 0xDF	; 223
    3800:	80 93 c1 00 	sts	0x00C1, r24
    3804:	ff 91       	pop	r31
    3806:	ef 91       	pop	r30
    3808:	9f 91       	pop	r25
    380a:	8f 91       	pop	r24
    380c:	0f 90       	pop	r0
    380e:	0f be       	out	0x3f, r0	; 63
    3810:	0f 90       	pop	r0
    3812:	1f 90       	pop	r1
    3814:	18 95       	reti

00003816 <uart_init>:
    3816:	10 92 5d 03 	sts	0x035D, r1
    381a:	10 92 5e 03 	sts	0x035E, r1
    381e:	10 92 7f 03 	sts	0x037F, r1
    3822:	10 92 80 03 	sts	0x0380, r1
    3826:	97 ff       	sbrs	r25, 7
    3828:	04 c0       	rjmp	.+8      	; 0x3832 <uart_init+0x1c>
    382a:	22 e0       	ldi	r18, 0x02	; 2
    382c:	20 93 c0 00 	sts	0x00C0, r18
    3830:	9f 77       	andi	r25, 0x7F	; 127
    3832:	90 93 c5 00 	sts	0x00C5, r25
    3836:	80 93 c4 00 	sts	0x00C4, r24
    383a:	88 e9       	ldi	r24, 0x98	; 152
    383c:	80 93 c1 00 	sts	0x00C1, r24
    3840:	86 e0       	ldi	r24, 0x06	; 6
    3842:	80 93 c2 00 	sts	0x00C2, r24
    3846:	08 95       	ret

00003848 <uart_getc>:
    3848:	90 91 7f 03 	lds	r25, 0x037F
    384c:	80 91 80 03 	lds	r24, 0x0380
    3850:	98 17       	cp	r25, r24
    3852:	89 f0       	breq	.+34     	; 0x3876 <uart_getc+0x2e>
    3854:	e0 91 80 03 	lds	r30, 0x0380
    3858:	ef 5f       	subi	r30, 0xFF	; 255
    385a:	ef 71       	andi	r30, 0x1F	; 31
    385c:	e0 93 80 03 	sts	0x0380, r30
    3860:	f0 e0       	ldi	r31, 0x00	; 0
    3862:	ef 57       	subi	r30, 0x7F	; 127
    3864:	fc 4f       	sbci	r31, 0xFC	; 252
    3866:	80 81       	ld	r24, Z
    3868:	90 91 a1 03 	lds	r25, 0x03A1
    386c:	39 2f       	mov	r19, r25
    386e:	20 e0       	ldi	r18, 0x00	; 0
    3870:	28 0f       	add	r18, r24
    3872:	31 1d       	adc	r19, r1
    3874:	02 c0       	rjmp	.+4      	; 0x387a <uart_getc+0x32>
    3876:	20 e0       	ldi	r18, 0x00	; 0
    3878:	31 e0       	ldi	r19, 0x01	; 1
    387a:	c9 01       	movw	r24, r18
    387c:	08 95       	ret

0000387e <uart_putc>:
    387e:	90 91 5d 03 	lds	r25, 0x035D
    3882:	9f 5f       	subi	r25, 0xFF	; 255
    3884:	9f 71       	andi	r25, 0x1F	; 31
    3886:	20 91 5e 03 	lds	r18, 0x035E
    388a:	92 17       	cp	r25, r18
    388c:	e1 f3       	breq	.-8      	; 0x3886 <uart_putc+0x8>
    388e:	e9 2f       	mov	r30, r25
    3890:	f0 e0       	ldi	r31, 0x00	; 0
    3892:	e1 5a       	subi	r30, 0xA1	; 161
    3894:	fc 4f       	sbci	r31, 0xFC	; 252
    3896:	80 83       	st	Z, r24
    3898:	90 93 5d 03 	sts	0x035D, r25
    389c:	80 91 c1 00 	lds	r24, 0x00C1
    38a0:	80 62       	ori	r24, 0x20	; 32
    38a2:	80 93 c1 00 	sts	0x00C1, r24
    38a6:	08 95       	ret

000038a8 <uart_puts>:
    38a8:	ef 92       	push	r14
    38aa:	ff 92       	push	r15
    38ac:	cf 93       	push	r28
    38ae:	df 93       	push	r29
    38b0:	e8 2e       	mov	r14, r24
    38b2:	e7 01       	movw	r28, r14
    38b4:	7e 01       	movw	r14, r28
    38b6:	f9 2e       	mov	r15, r25
    38b8:	e7 01       	movw	r28, r14
    38ba:	02 c0       	rjmp	.+4      	; 0x38c0 <uart_puts+0x18>
    38bc:	0e 94 3f 1c 	call	0x387e	; 0x387e <uart_putc>
    38c0:	89 91       	ld	r24, Y+
    38c2:	88 23       	and	r24, r24
    38c4:	d9 f7       	brne	.-10     	; 0x38bc <uart_puts+0x14>
    38c6:	df 91       	pop	r29
    38c8:	cf 91       	pop	r28
    38ca:	ff 90       	pop	r15
    38cc:	ef 90       	pop	r14
    38ce:	08 95       	ret

000038d0 <uart_puts_p>:
    38d0:	cf 93       	push	r28
    38d2:	df 93       	push	r29
    38d4:	ec 01       	movw	r28, r24
    38d6:	02 c0       	rjmp	.+4      	; 0x38dc <uart_puts_p+0xc>
    38d8:	0e 94 3f 1c 	call	0x387e	; 0x387e <uart_putc>
    38dc:	fe 01       	movw	r30, r28
    38de:	21 96       	adiw	r28, 0x01	; 1
    38e0:	84 91       	lpm	r24, Z+
    38e2:	88 23       	and	r24, r24
    38e4:	c9 f7       	brne	.-14     	; 0x38d8 <uart_puts_p+0x8>
    38e6:	df 91       	pop	r29
    38e8:	cf 91       	pop	r28
    38ea:	08 95       	ret

000038ec <__vector_28>:
    38ec:	1f 92       	push	r1
    38ee:	0f 92       	push	r0
    38f0:	0f b6       	in	r0, 0x3f	; 63
    38f2:	0f 92       	push	r0
    38f4:	11 24       	eor	r1, r1
    38f6:	2f 93       	push	r18
    38f8:	8f 93       	push	r24
    38fa:	9f 93       	push	r25
    38fc:	ef 93       	push	r30
    38fe:	ff 93       	push	r31
    3900:	80 91 c8 00 	lds	r24, 0x00C8
    3904:	90 91 ce 00 	lds	r25, 0x00CE
    3908:	e0 91 3a 03 	lds	r30, 0x033A
    390c:	ef 5f       	subi	r30, 0xFF	; 255
    390e:	ef 71       	andi	r30, 0x1F	; 31
    3910:	20 91 3b 03 	lds	r18, 0x033B
    3914:	e2 17       	cp	r30, r18
    3916:	41 f0       	breq	.+16     	; 0x3928 <__vector_28+0x3c>
    3918:	88 71       	andi	r24, 0x18	; 24
    391a:	e0 93 3a 03 	sts	0x033A, r30
    391e:	f0 e0       	ldi	r31, 0x00	; 0
    3920:	e4 5c       	subi	r30, 0xC4	; 196
    3922:	fc 4f       	sbci	r31, 0xFC	; 252
    3924:	90 83       	st	Z, r25
    3926:	01 c0       	rjmp	.+2      	; 0x392a <__vector_28+0x3e>
    3928:	82 e0       	ldi	r24, 0x02	; 2
    392a:	80 93 5c 03 	sts	0x035C, r24
    392e:	ff 91       	pop	r31
    3930:	ef 91       	pop	r30
    3932:	9f 91       	pop	r25
    3934:	8f 91       	pop	r24
    3936:	2f 91       	pop	r18
    3938:	0f 90       	pop	r0
    393a:	0f be       	out	0x3f, r0	; 63
    393c:	0f 90       	pop	r0
    393e:	1f 90       	pop	r1
    3940:	18 95       	reti

00003942 <__vector_29>:
    3942:	1f 92       	push	r1
    3944:	0f 92       	push	r0
    3946:	0f b6       	in	r0, 0x3f	; 63
    3948:	0f 92       	push	r0
    394a:	11 24       	eor	r1, r1
    394c:	8f 93       	push	r24
    394e:	9f 93       	push	r25
    3950:	ef 93       	push	r30
    3952:	ff 93       	push	r31
    3954:	90 91 18 03 	lds	r25, 0x0318
    3958:	80 91 19 03 	lds	r24, 0x0319
    395c:	98 17       	cp	r25, r24
    395e:	69 f0       	breq	.+26     	; 0x397a <__vector_29+0x38>
    3960:	e0 91 19 03 	lds	r30, 0x0319
    3964:	ef 5f       	subi	r30, 0xFF	; 255
    3966:	ef 71       	andi	r30, 0x1F	; 31
    3968:	e0 93 19 03 	sts	0x0319, r30
    396c:	f0 e0       	ldi	r31, 0x00	; 0
    396e:	e6 5e       	subi	r30, 0xE6	; 230
    3970:	fc 4f       	sbci	r31, 0xFC	; 252
    3972:	80 81       	ld	r24, Z
    3974:	80 93 ce 00 	sts	0x00CE, r24
    3978:	05 c0       	rjmp	.+10     	; 0x3984 <__vector_29+0x42>
    397a:	80 91 c9 00 	lds	r24, 0x00C9
    397e:	8f 7d       	andi	r24, 0xDF	; 223
    3980:	80 93 c9 00 	sts	0x00C9, r24
    3984:	ff 91       	pop	r31
    3986:	ef 91       	pop	r30
    3988:	9f 91       	pop	r25
    398a:	8f 91       	pop	r24
    398c:	0f 90       	pop	r0
    398e:	0f be       	out	0x3f, r0	; 63
    3990:	0f 90       	pop	r0
    3992:	1f 90       	pop	r1
    3994:	18 95       	reti

00003996 <uart1_init>:
    3996:	10 92 18 03 	sts	0x0318, r1
    399a:	10 92 19 03 	sts	0x0319, r1
    399e:	10 92 3a 03 	sts	0x033A, r1
    39a2:	10 92 3b 03 	sts	0x033B, r1
    39a6:	97 ff       	sbrs	r25, 7
    39a8:	04 c0       	rjmp	.+8      	; 0x39b2 <uart1_init+0x1c>
    39aa:	22 e0       	ldi	r18, 0x02	; 2
    39ac:	20 93 c8 00 	sts	0x00C8, r18
    39b0:	9f 77       	andi	r25, 0x7F	; 127
    39b2:	90 93 cd 00 	sts	0x00CD, r25
    39b6:	80 93 cc 00 	sts	0x00CC, r24
    39ba:	88 e9       	ldi	r24, 0x98	; 152
    39bc:	80 93 c9 00 	sts	0x00C9, r24
    39c0:	86 e0       	ldi	r24, 0x06	; 6
    39c2:	80 93 ca 00 	sts	0x00CA, r24
    39c6:	08 95       	ret

000039c8 <uart1_getc>:
    39c8:	90 91 3a 03 	lds	r25, 0x033A
    39cc:	80 91 3b 03 	lds	r24, 0x033B
    39d0:	98 17       	cp	r25, r24
    39d2:	89 f0       	breq	.+34     	; 0x39f6 <uart1_getc+0x2e>
    39d4:	e0 91 3b 03 	lds	r30, 0x033B
    39d8:	ef 5f       	subi	r30, 0xFF	; 255
    39da:	ef 71       	andi	r30, 0x1F	; 31
    39dc:	e0 93 3b 03 	sts	0x033B, r30
    39e0:	f0 e0       	ldi	r31, 0x00	; 0
    39e2:	e4 5c       	subi	r30, 0xC4	; 196
    39e4:	fc 4f       	sbci	r31, 0xFC	; 252
    39e6:	80 81       	ld	r24, Z
    39e8:	90 91 5c 03 	lds	r25, 0x035C
    39ec:	39 2f       	mov	r19, r25
    39ee:	20 e0       	ldi	r18, 0x00	; 0
    39f0:	28 0f       	add	r18, r24
    39f2:	31 1d       	adc	r19, r1
    39f4:	02 c0       	rjmp	.+4      	; 0x39fa <uart1_getc+0x32>
    39f6:	20 e0       	ldi	r18, 0x00	; 0
    39f8:	31 e0       	ldi	r19, 0x01	; 1
    39fa:	c9 01       	movw	r24, r18
    39fc:	08 95       	ret

000039fe <uart1_putc>:
    39fe:	90 91 18 03 	lds	r25, 0x0318
    3a02:	9f 5f       	subi	r25, 0xFF	; 255
    3a04:	9f 71       	andi	r25, 0x1F	; 31
    3a06:	20 91 19 03 	lds	r18, 0x0319
    3a0a:	92 17       	cp	r25, r18
    3a0c:	e1 f3       	breq	.-8      	; 0x3a06 <uart1_putc+0x8>
    3a0e:	e9 2f       	mov	r30, r25
    3a10:	f0 e0       	ldi	r31, 0x00	; 0
    3a12:	e6 5e       	subi	r30, 0xE6	; 230
    3a14:	fc 4f       	sbci	r31, 0xFC	; 252
    3a16:	80 83       	st	Z, r24
    3a18:	90 93 18 03 	sts	0x0318, r25
    3a1c:	80 91 c9 00 	lds	r24, 0x00C9
    3a20:	80 62       	ori	r24, 0x20	; 32
    3a22:	80 93 c9 00 	sts	0x00C9, r24
    3a26:	08 95       	ret

00003a28 <uart1_puts>:
    3a28:	ef 92       	push	r14
    3a2a:	ff 92       	push	r15
    3a2c:	cf 93       	push	r28
    3a2e:	df 93       	push	r29
    3a30:	e8 2e       	mov	r14, r24
    3a32:	e7 01       	movw	r28, r14
    3a34:	7e 01       	movw	r14, r28
    3a36:	f9 2e       	mov	r15, r25
    3a38:	e7 01       	movw	r28, r14
    3a3a:	02 c0       	rjmp	.+4      	; 0x3a40 <uart1_puts+0x18>
    3a3c:	0e 94 ff 1c 	call	0x39fe	; 0x39fe <uart1_putc>
    3a40:	89 91       	ld	r24, Y+
    3a42:	88 23       	and	r24, r24
    3a44:	d9 f7       	brne	.-10     	; 0x3a3c <uart1_puts+0x14>
    3a46:	df 91       	pop	r29
    3a48:	cf 91       	pop	r28
    3a4a:	ff 90       	pop	r15
    3a4c:	ef 90       	pop	r14
    3a4e:	08 95       	ret

00003a50 <uart1_puts_p>:
    3a50:	cf 93       	push	r28
    3a52:	df 93       	push	r29
    3a54:	ec 01       	movw	r28, r24
    3a56:	02 c0       	rjmp	.+4      	; 0x3a5c <uart1_puts_p+0xc>
    3a58:	0e 94 ff 1c 	call	0x39fe	; 0x39fe <uart1_putc>
    3a5c:	fe 01       	movw	r30, r28
    3a5e:	21 96       	adiw	r28, 0x01	; 1
    3a60:	84 91       	lpm	r24, Z+
    3a62:	88 23       	and	r24, r24
    3a64:	c9 f7       	brne	.-14     	; 0x3a58 <uart1_puts_p+0x8>
    3a66:	df 91       	pop	r29
    3a68:	cf 91       	pop	r28
    3a6a:	08 95       	ret

00003a6c <__mulsi3>:
    3a6c:	62 9f       	mul	r22, r18
    3a6e:	d0 01       	movw	r26, r0
    3a70:	73 9f       	mul	r23, r19
    3a72:	f0 01       	movw	r30, r0
    3a74:	82 9f       	mul	r24, r18
    3a76:	e0 0d       	add	r30, r0
    3a78:	f1 1d       	adc	r31, r1
    3a7a:	64 9f       	mul	r22, r20
    3a7c:	e0 0d       	add	r30, r0
    3a7e:	f1 1d       	adc	r31, r1
    3a80:	92 9f       	mul	r25, r18
    3a82:	f0 0d       	add	r31, r0
    3a84:	83 9f       	mul	r24, r19
    3a86:	f0 0d       	add	r31, r0
    3a88:	74 9f       	mul	r23, r20
    3a8a:	f0 0d       	add	r31, r0
    3a8c:	65 9f       	mul	r22, r21
    3a8e:	f0 0d       	add	r31, r0
    3a90:	99 27       	eor	r25, r25
    3a92:	72 9f       	mul	r23, r18
    3a94:	b0 0d       	add	r27, r0
    3a96:	e1 1d       	adc	r30, r1
    3a98:	f9 1f       	adc	r31, r25
    3a9a:	63 9f       	mul	r22, r19
    3a9c:	b0 0d       	add	r27, r0
    3a9e:	e1 1d       	adc	r30, r1
    3aa0:	f9 1f       	adc	r31, r25
    3aa2:	bd 01       	movw	r22, r26
    3aa4:	cf 01       	movw	r24, r30
    3aa6:	11 24       	eor	r1, r1
    3aa8:	08 95       	ret

00003aaa <__udivmodqi4>:
    3aaa:	99 1b       	sub	r25, r25
    3aac:	79 e0       	ldi	r23, 0x09	; 9
    3aae:	04 c0       	rjmp	.+8      	; 0x3ab8 <__udivmodqi4_ep>

00003ab0 <__udivmodqi4_loop>:
    3ab0:	99 1f       	adc	r25, r25
    3ab2:	96 17       	cp	r25, r22
    3ab4:	08 f0       	brcs	.+2      	; 0x3ab8 <__udivmodqi4_ep>
    3ab6:	96 1b       	sub	r25, r22

00003ab8 <__udivmodqi4_ep>:
    3ab8:	88 1f       	adc	r24, r24
    3aba:	7a 95       	dec	r23
    3abc:	c9 f7       	brne	.-14     	; 0x3ab0 <__udivmodqi4_loop>
    3abe:	80 95       	com	r24
    3ac0:	08 95       	ret

00003ac2 <__udivmodhi4>:
    3ac2:	aa 1b       	sub	r26, r26
    3ac4:	bb 1b       	sub	r27, r27
    3ac6:	51 e1       	ldi	r21, 0x11	; 17
    3ac8:	07 c0       	rjmp	.+14     	; 0x3ad8 <__udivmodhi4_ep>

00003aca <__udivmodhi4_loop>:
    3aca:	aa 1f       	adc	r26, r26
    3acc:	bb 1f       	adc	r27, r27
    3ace:	a6 17       	cp	r26, r22
    3ad0:	b7 07       	cpc	r27, r23
    3ad2:	10 f0       	brcs	.+4      	; 0x3ad8 <__udivmodhi4_ep>
    3ad4:	a6 1b       	sub	r26, r22
    3ad6:	b7 0b       	sbc	r27, r23

00003ad8 <__udivmodhi4_ep>:
    3ad8:	88 1f       	adc	r24, r24
    3ada:	99 1f       	adc	r25, r25
    3adc:	5a 95       	dec	r21
    3ade:	a9 f7       	brne	.-22     	; 0x3aca <__udivmodhi4_loop>
    3ae0:	80 95       	com	r24
    3ae2:	90 95       	com	r25
    3ae4:	bc 01       	movw	r22, r24
    3ae6:	cd 01       	movw	r24, r26
    3ae8:	08 95       	ret

00003aea <__udivmodsi4>:
    3aea:	a1 e2       	ldi	r26, 0x21	; 33
    3aec:	1a 2e       	mov	r1, r26
    3aee:	aa 1b       	sub	r26, r26
    3af0:	bb 1b       	sub	r27, r27
    3af2:	fd 01       	movw	r30, r26
    3af4:	0d c0       	rjmp	.+26     	; 0x3b10 <__udivmodsi4_ep>

00003af6 <__udivmodsi4_loop>:
    3af6:	aa 1f       	adc	r26, r26
    3af8:	bb 1f       	adc	r27, r27
    3afa:	ee 1f       	adc	r30, r30
    3afc:	ff 1f       	adc	r31, r31
    3afe:	a2 17       	cp	r26, r18
    3b00:	b3 07       	cpc	r27, r19
    3b02:	e4 07       	cpc	r30, r20
    3b04:	f5 07       	cpc	r31, r21
    3b06:	20 f0       	brcs	.+8      	; 0x3b10 <__udivmodsi4_ep>
    3b08:	a2 1b       	sub	r26, r18
    3b0a:	b3 0b       	sbc	r27, r19
    3b0c:	e4 0b       	sbc	r30, r20
    3b0e:	f5 0b       	sbc	r31, r21

00003b10 <__udivmodsi4_ep>:
    3b10:	66 1f       	adc	r22, r22
    3b12:	77 1f       	adc	r23, r23
    3b14:	88 1f       	adc	r24, r24
    3b16:	99 1f       	adc	r25, r25
    3b18:	1a 94       	dec	r1
    3b1a:	69 f7       	brne	.-38     	; 0x3af6 <__udivmodsi4_loop>
    3b1c:	60 95       	com	r22
    3b1e:	70 95       	com	r23
    3b20:	80 95       	com	r24
    3b22:	90 95       	com	r25
    3b24:	9b 01       	movw	r18, r22
    3b26:	ac 01       	movw	r20, r24
    3b28:	bd 01       	movw	r22, r26
    3b2a:	cf 01       	movw	r24, r30
    3b2c:	08 95       	ret

00003b2e <__divmodsi4>:
    3b2e:	97 fb       	bst	r25, 7
    3b30:	09 2e       	mov	r0, r25
    3b32:	05 26       	eor	r0, r21
    3b34:	0e d0       	rcall	.+28     	; 0x3b52 <__divmodsi4_neg1>
    3b36:	57 fd       	sbrc	r21, 7
    3b38:	04 d0       	rcall	.+8      	; 0x3b42 <__divmodsi4_neg2>
    3b3a:	d7 df       	rcall	.-82     	; 0x3aea <__udivmodsi4>
    3b3c:	0a d0       	rcall	.+20     	; 0x3b52 <__divmodsi4_neg1>
    3b3e:	00 1c       	adc	r0, r0
    3b40:	38 f4       	brcc	.+14     	; 0x3b50 <__divmodsi4_exit>

00003b42 <__divmodsi4_neg2>:
    3b42:	50 95       	com	r21
    3b44:	40 95       	com	r20
    3b46:	30 95       	com	r19
    3b48:	21 95       	neg	r18
    3b4a:	3f 4f       	sbci	r19, 0xFF	; 255
    3b4c:	4f 4f       	sbci	r20, 0xFF	; 255
    3b4e:	5f 4f       	sbci	r21, 0xFF	; 255

00003b50 <__divmodsi4_exit>:
    3b50:	08 95       	ret

00003b52 <__divmodsi4_neg1>:
    3b52:	f6 f7       	brtc	.-4      	; 0x3b50 <__divmodsi4_exit>
    3b54:	90 95       	com	r25
    3b56:	80 95       	com	r24
    3b58:	70 95       	com	r23
    3b5a:	61 95       	neg	r22
    3b5c:	7f 4f       	sbci	r23, 0xFF	; 255
    3b5e:	8f 4f       	sbci	r24, 0xFF	; 255
    3b60:	9f 4f       	sbci	r25, 0xFF	; 255
    3b62:	08 95       	ret

00003b64 <strcpy_P>:
    3b64:	fb 01       	movw	r30, r22
    3b66:	dc 01       	movw	r26, r24
    3b68:	05 90       	lpm	r0, Z+
    3b6a:	0d 92       	st	X+, r0
    3b6c:	00 20       	and	r0, r0
    3b6e:	e1 f7       	brne	.-8      	; 0x3b68 <strcpy_P+0x4>
    3b70:	08 95       	ret

00003b72 <ultoa>:
    3b72:	fa 01       	movw	r30, r20
    3b74:	cf 93       	push	r28
    3b76:	ff 93       	push	r31
    3b78:	ef 93       	push	r30
    3b7a:	22 30       	cpi	r18, 0x02	; 2
    3b7c:	cc f0       	brlt	.+50     	; 0x3bb0 <ultoa+0x3e>
    3b7e:	25 32       	cpi	r18, 0x25	; 37
    3b80:	bc f4       	brge	.+46     	; 0x3bb0 <ultoa+0x3e>
    3b82:	c2 2f       	mov	r28, r18
    3b84:	2c 2f       	mov	r18, r28
    3b86:	33 27       	eor	r19, r19
    3b88:	44 27       	eor	r20, r20
    3b8a:	55 27       	eor	r21, r21
    3b8c:	ff 93       	push	r31
    3b8e:	ef 93       	push	r30
    3b90:	0e 94 75 1d 	call	0x3aea	; 0x3aea <__udivmodsi4>
    3b94:	ef 91       	pop	r30
    3b96:	ff 91       	pop	r31
    3b98:	60 5d       	subi	r22, 0xD0	; 208
    3b9a:	6a 33       	cpi	r22, 0x3A	; 58
    3b9c:	0c f0       	brlt	.+2      	; 0x3ba0 <ultoa+0x2e>
    3b9e:	69 5d       	subi	r22, 0xD9	; 217
    3ba0:	61 93       	st	Z+, r22
    3ba2:	b9 01       	movw	r22, r18
    3ba4:	ca 01       	movw	r24, r20
    3ba6:	60 50       	subi	r22, 0x00	; 0
    3ba8:	70 40       	sbci	r23, 0x00	; 0
    3baa:	80 40       	sbci	r24, 0x00	; 0
    3bac:	90 40       	sbci	r25, 0x00	; 0
    3bae:	51 f7       	brne	.-44     	; 0x3b84 <ultoa+0x12>
    3bb0:	10 82       	st	Z, r1
    3bb2:	8f 91       	pop	r24
    3bb4:	9f 91       	pop	r25
    3bb6:	cf 91       	pop	r28
    3bb8:	0c 94 2e 20 	jmp	0x405c	; 0x405c <strrev>

00003bbc <sprintf>:
    3bbc:	ae e0       	ldi	r26, 0x0E	; 14
    3bbe:	b0 e0       	ldi	r27, 0x00	; 0
    3bc0:	e4 ee       	ldi	r30, 0xE4	; 228
    3bc2:	fd e1       	ldi	r31, 0x1D	; 29
    3bc4:	0c 94 d6 20 	jmp	0x41ac	; 0x41ac <__prologue_saves__+0x1c>
    3bc8:	0d 89       	ldd	r16, Y+21	; 0x15
    3bca:	1e 89       	ldd	r17, Y+22	; 0x16
    3bcc:	86 e0       	ldi	r24, 0x06	; 6
    3bce:	8c 83       	std	Y+4, r24	; 0x04
    3bd0:	1a 83       	std	Y+2, r17	; 0x02
    3bd2:	09 83       	std	Y+1, r16	; 0x01
    3bd4:	8f ef       	ldi	r24, 0xFF	; 255
    3bd6:	9f e7       	ldi	r25, 0x7F	; 127
    3bd8:	9e 83       	std	Y+6, r25	; 0x06
    3bda:	8d 83       	std	Y+5, r24	; 0x05
    3bdc:	9e 01       	movw	r18, r28
    3bde:	27 5e       	subi	r18, 0xE7	; 231
    3be0:	3f 4f       	sbci	r19, 0xFF	; 255
    3be2:	ce 01       	movw	r24, r28
    3be4:	01 96       	adiw	r24, 0x01	; 1
    3be6:	6f 89       	ldd	r22, Y+23	; 0x17
    3be8:	78 8d       	ldd	r23, Y+24	; 0x18
    3bea:	a9 01       	movw	r20, r18
    3bec:	0e 94 01 1e 	call	0x3c02	; 0x3c02 <vfprintf>
    3bf0:	ef 81       	ldd	r30, Y+7	; 0x07
    3bf2:	f8 85       	ldd	r31, Y+8	; 0x08
    3bf4:	e0 0f       	add	r30, r16
    3bf6:	f1 1f       	adc	r31, r17
    3bf8:	10 82       	st	Z, r1
    3bfa:	2e 96       	adiw	r28, 0x0e	; 14
    3bfc:	e4 e0       	ldi	r30, 0x04	; 4
    3bfe:	0c 94 f2 20 	jmp	0x41e4	; 0x41e4 <__epilogue_restores__+0x1c>

00003c02 <vfprintf>:
    3c02:	ac e0       	ldi	r26, 0x0C	; 12
    3c04:	b0 e0       	ldi	r27, 0x00	; 0
    3c06:	e7 e0       	ldi	r30, 0x07	; 7
    3c08:	fe e1       	ldi	r31, 0x1E	; 30
    3c0a:	0c 94 c8 20 	jmp	0x4190	; 0x4190 <__prologue_saves__>
    3c0e:	6c 01       	movw	r12, r24
    3c10:	1b 01       	movw	r2, r22
    3c12:	8a 01       	movw	r16, r20
    3c14:	fc 01       	movw	r30, r24
    3c16:	17 82       	std	Z+7, r1	; 0x07
    3c18:	16 82       	std	Z+6, r1	; 0x06
    3c1a:	83 81       	ldd	r24, Z+3	; 0x03
    3c1c:	81 ff       	sbrs	r24, 1
    3c1e:	d1 c1       	rjmp	.+930    	; 0x3fc2 <vfprintf+0x3c0>
    3c20:	2e 01       	movw	r4, r28
    3c22:	08 94       	sec
    3c24:	41 1c       	adc	r4, r1
    3c26:	51 1c       	adc	r5, r1
    3c28:	f6 01       	movw	r30, r12
    3c2a:	93 81       	ldd	r25, Z+3	; 0x03
    3c2c:	f1 01       	movw	r30, r2
    3c2e:	93 fd       	sbrc	r25, 3
    3c30:	85 91       	lpm	r24, Z+
    3c32:	93 ff       	sbrs	r25, 3
    3c34:	81 91       	ld	r24, Z+
    3c36:	1f 01       	movw	r2, r30
    3c38:	88 23       	and	r24, r24
    3c3a:	09 f4       	brne	.+2      	; 0x3c3e <vfprintf+0x3c>
    3c3c:	be c1       	rjmp	.+892    	; 0x3fba <vfprintf+0x3b8>
    3c3e:	85 32       	cpi	r24, 0x25	; 37
    3c40:	39 f4       	brne	.+14     	; 0x3c50 <vfprintf+0x4e>
    3c42:	93 fd       	sbrc	r25, 3
    3c44:	85 91       	lpm	r24, Z+
    3c46:	93 ff       	sbrs	r25, 3
    3c48:	81 91       	ld	r24, Z+
    3c4a:	1f 01       	movw	r2, r30
    3c4c:	85 32       	cpi	r24, 0x25	; 37
    3c4e:	29 f4       	brne	.+10     	; 0x3c5a <vfprintf+0x58>
    3c50:	90 e0       	ldi	r25, 0x00	; 0
    3c52:	b6 01       	movw	r22, r12
    3c54:	0e 94 3e 20 	call	0x407c	; 0x407c <fputc>
    3c58:	e7 cf       	rjmp	.-50     	; 0x3c28 <vfprintf+0x26>
    3c5a:	ee 24       	eor	r14, r14
    3c5c:	ff 24       	eor	r15, r15
    3c5e:	20 e0       	ldi	r18, 0x00	; 0
    3c60:	20 32       	cpi	r18, 0x20	; 32
    3c62:	b0 f4       	brcc	.+44     	; 0x3c90 <vfprintf+0x8e>
    3c64:	8b 32       	cpi	r24, 0x2B	; 43
    3c66:	69 f0       	breq	.+26     	; 0x3c82 <vfprintf+0x80>
    3c68:	8c 32       	cpi	r24, 0x2C	; 44
    3c6a:	28 f4       	brcc	.+10     	; 0x3c76 <vfprintf+0x74>
    3c6c:	80 32       	cpi	r24, 0x20	; 32
    3c6e:	51 f0       	breq	.+20     	; 0x3c84 <vfprintf+0x82>
    3c70:	83 32       	cpi	r24, 0x23	; 35
    3c72:	71 f4       	brne	.+28     	; 0x3c90 <vfprintf+0x8e>
    3c74:	0b c0       	rjmp	.+22     	; 0x3c8c <vfprintf+0x8a>
    3c76:	8d 32       	cpi	r24, 0x2D	; 45
    3c78:	39 f0       	breq	.+14     	; 0x3c88 <vfprintf+0x86>
    3c7a:	80 33       	cpi	r24, 0x30	; 48
    3c7c:	49 f4       	brne	.+18     	; 0x3c90 <vfprintf+0x8e>
    3c7e:	21 60       	ori	r18, 0x01	; 1
    3c80:	2c c0       	rjmp	.+88     	; 0x3cda <vfprintf+0xd8>
    3c82:	22 60       	ori	r18, 0x02	; 2
    3c84:	24 60       	ori	r18, 0x04	; 4
    3c86:	29 c0       	rjmp	.+82     	; 0x3cda <vfprintf+0xd8>
    3c88:	28 60       	ori	r18, 0x08	; 8
    3c8a:	27 c0       	rjmp	.+78     	; 0x3cda <vfprintf+0xd8>
    3c8c:	20 61       	ori	r18, 0x10	; 16
    3c8e:	25 c0       	rjmp	.+74     	; 0x3cda <vfprintf+0xd8>
    3c90:	27 fd       	sbrc	r18, 7
    3c92:	2c c0       	rjmp	.+88     	; 0x3cec <vfprintf+0xea>
    3c94:	38 2f       	mov	r19, r24
    3c96:	30 53       	subi	r19, 0x30	; 48
    3c98:	3a 30       	cpi	r19, 0x0A	; 10
    3c9a:	98 f4       	brcc	.+38     	; 0x3cc2 <vfprintf+0xc0>
    3c9c:	26 ff       	sbrs	r18, 6
    3c9e:	08 c0       	rjmp	.+16     	; 0x3cb0 <vfprintf+0xae>
    3ca0:	8e 2d       	mov	r24, r14
    3ca2:	88 0f       	add	r24, r24
    3ca4:	e8 2e       	mov	r14, r24
    3ca6:	ee 0c       	add	r14, r14
    3ca8:	ee 0c       	add	r14, r14
    3caa:	e8 0e       	add	r14, r24
    3cac:	e3 0e       	add	r14, r19
    3cae:	15 c0       	rjmp	.+42     	; 0x3cda <vfprintf+0xd8>
    3cb0:	8f 2d       	mov	r24, r15
    3cb2:	88 0f       	add	r24, r24
    3cb4:	f8 2e       	mov	r15, r24
    3cb6:	ff 0c       	add	r15, r15
    3cb8:	ff 0c       	add	r15, r15
    3cba:	f8 0e       	add	r15, r24
    3cbc:	f3 0e       	add	r15, r19
    3cbe:	20 62       	ori	r18, 0x20	; 32
    3cc0:	0c c0       	rjmp	.+24     	; 0x3cda <vfprintf+0xd8>
    3cc2:	8e 32       	cpi	r24, 0x2E	; 46
    3cc4:	21 f4       	brne	.+8      	; 0x3cce <vfprintf+0xcc>
    3cc6:	26 fd       	sbrc	r18, 6
    3cc8:	78 c1       	rjmp	.+752    	; 0x3fba <vfprintf+0x3b8>
    3cca:	20 64       	ori	r18, 0x40	; 64
    3ccc:	06 c0       	rjmp	.+12     	; 0x3cda <vfprintf+0xd8>
    3cce:	8c 36       	cpi	r24, 0x6C	; 108
    3cd0:	11 f4       	brne	.+4      	; 0x3cd6 <vfprintf+0xd4>
    3cd2:	20 68       	ori	r18, 0x80	; 128
    3cd4:	02 c0       	rjmp	.+4      	; 0x3cda <vfprintf+0xd8>
    3cd6:	88 36       	cpi	r24, 0x68	; 104
    3cd8:	49 f4       	brne	.+18     	; 0x3cec <vfprintf+0xea>
    3cda:	f1 01       	movw	r30, r2
    3cdc:	93 fd       	sbrc	r25, 3
    3cde:	85 91       	lpm	r24, Z+
    3ce0:	93 ff       	sbrs	r25, 3
    3ce2:	81 91       	ld	r24, Z+
    3ce4:	1f 01       	movw	r2, r30
    3ce6:	88 23       	and	r24, r24
    3ce8:	09 f0       	breq	.+2      	; 0x3cec <vfprintf+0xea>
    3cea:	ba cf       	rjmp	.-140    	; 0x3c60 <vfprintf+0x5e>
    3cec:	98 2f       	mov	r25, r24
    3cee:	95 54       	subi	r25, 0x45	; 69
    3cf0:	93 30       	cpi	r25, 0x03	; 3
    3cf2:	18 f0       	brcs	.+6      	; 0x3cfa <vfprintf+0xf8>
    3cf4:	90 52       	subi	r25, 0x20	; 32
    3cf6:	93 30       	cpi	r25, 0x03	; 3
    3cf8:	28 f4       	brcc	.+10     	; 0x3d04 <vfprintf+0x102>
    3cfa:	0c 5f       	subi	r16, 0xFC	; 252
    3cfc:	1f 4f       	sbci	r17, 0xFF	; 255
    3cfe:	ff e3       	ldi	r31, 0x3F	; 63
    3d00:	f9 83       	std	Y+1, r31	; 0x01
    3d02:	0d c0       	rjmp	.+26     	; 0x3d1e <vfprintf+0x11c>
    3d04:	83 36       	cpi	r24, 0x63	; 99
    3d06:	31 f0       	breq	.+12     	; 0x3d14 <vfprintf+0x112>
    3d08:	83 37       	cpi	r24, 0x73	; 115
    3d0a:	71 f0       	breq	.+28     	; 0x3d28 <vfprintf+0x126>
    3d0c:	83 35       	cpi	r24, 0x53	; 83
    3d0e:	09 f0       	breq	.+2      	; 0x3d12 <vfprintf+0x110>
    3d10:	60 c0       	rjmp	.+192    	; 0x3dd2 <vfprintf+0x1d0>
    3d12:	22 c0       	rjmp	.+68     	; 0x3d58 <vfprintf+0x156>
    3d14:	f8 01       	movw	r30, r16
    3d16:	80 81       	ld	r24, Z
    3d18:	89 83       	std	Y+1, r24	; 0x01
    3d1a:	0e 5f       	subi	r16, 0xFE	; 254
    3d1c:	1f 4f       	sbci	r17, 0xFF	; 255
    3d1e:	42 01       	movw	r8, r4
    3d20:	71 e0       	ldi	r23, 0x01	; 1
    3d22:	a7 2e       	mov	r10, r23
    3d24:	b1 2c       	mov	r11, r1
    3d26:	16 c0       	rjmp	.+44     	; 0x3d54 <vfprintf+0x152>
    3d28:	62 e0       	ldi	r22, 0x02	; 2
    3d2a:	66 2e       	mov	r6, r22
    3d2c:	71 2c       	mov	r7, r1
    3d2e:	60 0e       	add	r6, r16
    3d30:	71 1e       	adc	r7, r17
    3d32:	f8 01       	movw	r30, r16
    3d34:	80 80       	ld	r8, Z
    3d36:	91 80       	ldd	r9, Z+1	; 0x01
    3d38:	26 ff       	sbrs	r18, 6
    3d3a:	03 c0       	rjmp	.+6      	; 0x3d42 <vfprintf+0x140>
    3d3c:	6e 2d       	mov	r22, r14
    3d3e:	70 e0       	ldi	r23, 0x00	; 0
    3d40:	02 c0       	rjmp	.+4      	; 0x3d46 <vfprintf+0x144>
    3d42:	6f ef       	ldi	r22, 0xFF	; 255
    3d44:	7f ef       	ldi	r23, 0xFF	; 255
    3d46:	c4 01       	movw	r24, r8
    3d48:	2c 87       	std	Y+12, r18	; 0x0c
    3d4a:	0e 94 23 20 	call	0x4046	; 0x4046 <strnlen>
    3d4e:	5c 01       	movw	r10, r24
    3d50:	83 01       	movw	r16, r6
    3d52:	2c 85       	ldd	r18, Y+12	; 0x0c
    3d54:	2f 77       	andi	r18, 0x7F	; 127
    3d56:	17 c0       	rjmp	.+46     	; 0x3d86 <vfprintf+0x184>
    3d58:	52 e0       	ldi	r21, 0x02	; 2
    3d5a:	65 2e       	mov	r6, r21
    3d5c:	71 2c       	mov	r7, r1
    3d5e:	60 0e       	add	r6, r16
    3d60:	71 1e       	adc	r7, r17
    3d62:	f8 01       	movw	r30, r16
    3d64:	80 80       	ld	r8, Z
    3d66:	91 80       	ldd	r9, Z+1	; 0x01
    3d68:	26 ff       	sbrs	r18, 6
    3d6a:	03 c0       	rjmp	.+6      	; 0x3d72 <vfprintf+0x170>
    3d6c:	6e 2d       	mov	r22, r14
    3d6e:	70 e0       	ldi	r23, 0x00	; 0
    3d70:	02 c0       	rjmp	.+4      	; 0x3d76 <vfprintf+0x174>
    3d72:	6f ef       	ldi	r22, 0xFF	; 255
    3d74:	7f ef       	ldi	r23, 0xFF	; 255
    3d76:	c4 01       	movw	r24, r8
    3d78:	2c 87       	std	Y+12, r18	; 0x0c
    3d7a:	0e 94 18 20 	call	0x4030	; 0x4030 <strnlen_P>
    3d7e:	5c 01       	movw	r10, r24
    3d80:	2c 85       	ldd	r18, Y+12	; 0x0c
    3d82:	20 68       	ori	r18, 0x80	; 128
    3d84:	83 01       	movw	r16, r6
    3d86:	23 fd       	sbrc	r18, 3
    3d88:	20 c0       	rjmp	.+64     	; 0x3dca <vfprintf+0x1c8>
    3d8a:	08 c0       	rjmp	.+16     	; 0x3d9c <vfprintf+0x19a>
    3d8c:	80 e2       	ldi	r24, 0x20	; 32
    3d8e:	90 e0       	ldi	r25, 0x00	; 0
    3d90:	b6 01       	movw	r22, r12
    3d92:	2c 87       	std	Y+12, r18	; 0x0c
    3d94:	0e 94 3e 20 	call	0x407c	; 0x407c <fputc>
    3d98:	fa 94       	dec	r15
    3d9a:	2c 85       	ldd	r18, Y+12	; 0x0c
    3d9c:	8f 2d       	mov	r24, r15
    3d9e:	90 e0       	ldi	r25, 0x00	; 0
    3da0:	a8 16       	cp	r10, r24
    3da2:	b9 06       	cpc	r11, r25
    3da4:	98 f3       	brcs	.-26     	; 0x3d8c <vfprintf+0x18a>
    3da6:	11 c0       	rjmp	.+34     	; 0x3dca <vfprintf+0x1c8>
    3da8:	f4 01       	movw	r30, r8
    3daa:	27 fd       	sbrc	r18, 7
    3dac:	85 91       	lpm	r24, Z+
    3dae:	27 ff       	sbrs	r18, 7
    3db0:	81 91       	ld	r24, Z+
    3db2:	4f 01       	movw	r8, r30
    3db4:	90 e0       	ldi	r25, 0x00	; 0
    3db6:	b6 01       	movw	r22, r12
    3db8:	2c 87       	std	Y+12, r18	; 0x0c
    3dba:	0e 94 3e 20 	call	0x407c	; 0x407c <fputc>
    3dbe:	2c 85       	ldd	r18, Y+12	; 0x0c
    3dc0:	f1 10       	cpse	r15, r1
    3dc2:	fa 94       	dec	r15
    3dc4:	08 94       	sec
    3dc6:	a1 08       	sbc	r10, r1
    3dc8:	b1 08       	sbc	r11, r1
    3dca:	a1 14       	cp	r10, r1
    3dcc:	b1 04       	cpc	r11, r1
    3dce:	61 f7       	brne	.-40     	; 0x3da8 <vfprintf+0x1a6>
    3dd0:	f1 c0       	rjmp	.+482    	; 0x3fb4 <vfprintf+0x3b2>
    3dd2:	84 36       	cpi	r24, 0x64	; 100
    3dd4:	11 f0       	breq	.+4      	; 0x3dda <vfprintf+0x1d8>
    3dd6:	89 36       	cpi	r24, 0x69	; 105
    3dd8:	49 f5       	brne	.+82     	; 0x3e2c <vfprintf+0x22a>
    3dda:	27 ff       	sbrs	r18, 7
    3ddc:	08 c0       	rjmp	.+16     	; 0x3dee <vfprintf+0x1ec>
    3dde:	f8 01       	movw	r30, r16
    3de0:	60 81       	ld	r22, Z
    3de2:	71 81       	ldd	r23, Z+1	; 0x01
    3de4:	82 81       	ldd	r24, Z+2	; 0x02
    3de6:	93 81       	ldd	r25, Z+3	; 0x03
    3de8:	0c 5f       	subi	r16, 0xFC	; 252
    3dea:	1f 4f       	sbci	r17, 0xFF	; 255
    3dec:	09 c0       	rjmp	.+18     	; 0x3e00 <vfprintf+0x1fe>
    3dee:	f8 01       	movw	r30, r16
    3df0:	60 81       	ld	r22, Z
    3df2:	71 81       	ldd	r23, Z+1	; 0x01
    3df4:	88 27       	eor	r24, r24
    3df6:	77 fd       	sbrc	r23, 7
    3df8:	80 95       	com	r24
    3dfa:	98 2f       	mov	r25, r24
    3dfc:	0e 5f       	subi	r16, 0xFE	; 254
    3dfe:	1f 4f       	sbci	r17, 0xFF	; 255
    3e00:	4f e6       	ldi	r20, 0x6F	; 111
    3e02:	b4 2e       	mov	r11, r20
    3e04:	b2 22       	and	r11, r18
    3e06:	97 ff       	sbrs	r25, 7
    3e08:	09 c0       	rjmp	.+18     	; 0x3e1c <vfprintf+0x21a>
    3e0a:	90 95       	com	r25
    3e0c:	80 95       	com	r24
    3e0e:	70 95       	com	r23
    3e10:	61 95       	neg	r22
    3e12:	7f 4f       	sbci	r23, 0xFF	; 255
    3e14:	8f 4f       	sbci	r24, 0xFF	; 255
    3e16:	9f 4f       	sbci	r25, 0xFF	; 255
    3e18:	f0 e8       	ldi	r31, 0x80	; 128
    3e1a:	bf 2a       	or	r11, r31
    3e1c:	a2 01       	movw	r20, r4
    3e1e:	2a e0       	ldi	r18, 0x0A	; 10
    3e20:	30 e0       	ldi	r19, 0x00	; 0
    3e22:	0e 94 6a 20 	call	0x40d4	; 0x40d4 <__ultoa_invert>
    3e26:	78 2e       	mov	r7, r24
    3e28:	74 18       	sub	r7, r4
    3e2a:	45 c0       	rjmp	.+138    	; 0x3eb6 <vfprintf+0x2b4>
    3e2c:	85 37       	cpi	r24, 0x75	; 117
    3e2e:	31 f4       	brne	.+12     	; 0x3e3c <vfprintf+0x23a>
    3e30:	3f ee       	ldi	r19, 0xEF	; 239
    3e32:	b3 2e       	mov	r11, r19
    3e34:	b2 22       	and	r11, r18
    3e36:	2a e0       	ldi	r18, 0x0A	; 10
    3e38:	30 e0       	ldi	r19, 0x00	; 0
    3e3a:	25 c0       	rjmp	.+74     	; 0x3e86 <vfprintf+0x284>
    3e3c:	99 ef       	ldi	r25, 0xF9	; 249
    3e3e:	b9 2e       	mov	r11, r25
    3e40:	b2 22       	and	r11, r18
    3e42:	8f 36       	cpi	r24, 0x6F	; 111
    3e44:	c1 f0       	breq	.+48     	; 0x3e76 <vfprintf+0x274>
    3e46:	80 37       	cpi	r24, 0x70	; 112
    3e48:	20 f4       	brcc	.+8      	; 0x3e52 <vfprintf+0x250>
    3e4a:	88 35       	cpi	r24, 0x58	; 88
    3e4c:	09 f0       	breq	.+2      	; 0x3e50 <vfprintf+0x24e>
    3e4e:	b5 c0       	rjmp	.+362    	; 0x3fba <vfprintf+0x3b8>
    3e50:	0d c0       	rjmp	.+26     	; 0x3e6c <vfprintf+0x26a>
    3e52:	80 37       	cpi	r24, 0x70	; 112
    3e54:	21 f0       	breq	.+8      	; 0x3e5e <vfprintf+0x25c>
    3e56:	88 37       	cpi	r24, 0x78	; 120
    3e58:	09 f0       	breq	.+2      	; 0x3e5c <vfprintf+0x25a>
    3e5a:	af c0       	rjmp	.+350    	; 0x3fba <vfprintf+0x3b8>
    3e5c:	02 c0       	rjmp	.+4      	; 0x3e62 <vfprintf+0x260>
    3e5e:	20 e1       	ldi	r18, 0x10	; 16
    3e60:	b2 2a       	or	r11, r18
    3e62:	b4 fe       	sbrs	r11, 4
    3e64:	0b c0       	rjmp	.+22     	; 0x3e7c <vfprintf+0x27a>
    3e66:	84 e0       	ldi	r24, 0x04	; 4
    3e68:	b8 2a       	or	r11, r24
    3e6a:	08 c0       	rjmp	.+16     	; 0x3e7c <vfprintf+0x27a>
    3e6c:	b4 fe       	sbrs	r11, 4
    3e6e:	09 c0       	rjmp	.+18     	; 0x3e82 <vfprintf+0x280>
    3e70:	e6 e0       	ldi	r30, 0x06	; 6
    3e72:	be 2a       	or	r11, r30
    3e74:	06 c0       	rjmp	.+12     	; 0x3e82 <vfprintf+0x280>
    3e76:	28 e0       	ldi	r18, 0x08	; 8
    3e78:	30 e0       	ldi	r19, 0x00	; 0
    3e7a:	05 c0       	rjmp	.+10     	; 0x3e86 <vfprintf+0x284>
    3e7c:	20 e1       	ldi	r18, 0x10	; 16
    3e7e:	30 e0       	ldi	r19, 0x00	; 0
    3e80:	02 c0       	rjmp	.+4      	; 0x3e86 <vfprintf+0x284>
    3e82:	20 e1       	ldi	r18, 0x10	; 16
    3e84:	32 e0       	ldi	r19, 0x02	; 2
    3e86:	b7 fe       	sbrs	r11, 7
    3e88:	08 c0       	rjmp	.+16     	; 0x3e9a <vfprintf+0x298>
    3e8a:	f8 01       	movw	r30, r16
    3e8c:	60 81       	ld	r22, Z
    3e8e:	71 81       	ldd	r23, Z+1	; 0x01
    3e90:	82 81       	ldd	r24, Z+2	; 0x02
    3e92:	93 81       	ldd	r25, Z+3	; 0x03
    3e94:	0c 5f       	subi	r16, 0xFC	; 252
    3e96:	1f 4f       	sbci	r17, 0xFF	; 255
    3e98:	07 c0       	rjmp	.+14     	; 0x3ea8 <vfprintf+0x2a6>
    3e9a:	f8 01       	movw	r30, r16
    3e9c:	60 81       	ld	r22, Z
    3e9e:	71 81       	ldd	r23, Z+1	; 0x01
    3ea0:	80 e0       	ldi	r24, 0x00	; 0
    3ea2:	90 e0       	ldi	r25, 0x00	; 0
    3ea4:	0e 5f       	subi	r16, 0xFE	; 254
    3ea6:	1f 4f       	sbci	r17, 0xFF	; 255
    3ea8:	a2 01       	movw	r20, r4
    3eaa:	0e 94 6a 20 	call	0x40d4	; 0x40d4 <__ultoa_invert>
    3eae:	78 2e       	mov	r7, r24
    3eb0:	74 18       	sub	r7, r4
    3eb2:	ff e7       	ldi	r31, 0x7F	; 127
    3eb4:	bf 22       	and	r11, r31
    3eb6:	b6 fe       	sbrs	r11, 6
    3eb8:	0b c0       	rjmp	.+22     	; 0x3ed0 <vfprintf+0x2ce>
    3eba:	2e ef       	ldi	r18, 0xFE	; 254
    3ebc:	b2 22       	and	r11, r18
    3ebe:	7e 14       	cp	r7, r14
    3ec0:	38 f4       	brcc	.+14     	; 0x3ed0 <vfprintf+0x2ce>
    3ec2:	b4 fe       	sbrs	r11, 4
    3ec4:	07 c0       	rjmp	.+14     	; 0x3ed4 <vfprintf+0x2d2>
    3ec6:	b2 fc       	sbrc	r11, 2
    3ec8:	05 c0       	rjmp	.+10     	; 0x3ed4 <vfprintf+0x2d2>
    3eca:	8f ee       	ldi	r24, 0xEF	; 239
    3ecc:	b8 22       	and	r11, r24
    3ece:	02 c0       	rjmp	.+4      	; 0x3ed4 <vfprintf+0x2d2>
    3ed0:	a7 2c       	mov	r10, r7
    3ed2:	01 c0       	rjmp	.+2      	; 0x3ed6 <vfprintf+0x2d4>
    3ed4:	ae 2c       	mov	r10, r14
    3ed6:	8b 2d       	mov	r24, r11
    3ed8:	90 e0       	ldi	r25, 0x00	; 0
    3eda:	b4 fe       	sbrs	r11, 4
    3edc:	0d c0       	rjmp	.+26     	; 0x3ef8 <vfprintf+0x2f6>
    3ede:	fe 01       	movw	r30, r28
    3ee0:	e7 0d       	add	r30, r7
    3ee2:	f1 1d       	adc	r31, r1
    3ee4:	20 81       	ld	r18, Z
    3ee6:	20 33       	cpi	r18, 0x30	; 48
    3ee8:	19 f4       	brne	.+6      	; 0x3ef0 <vfprintf+0x2ee>
    3eea:	e9 ee       	ldi	r30, 0xE9	; 233
    3eec:	be 22       	and	r11, r30
    3eee:	09 c0       	rjmp	.+18     	; 0x3f02 <vfprintf+0x300>
    3ef0:	a3 94       	inc	r10
    3ef2:	b2 fe       	sbrs	r11, 2
    3ef4:	06 c0       	rjmp	.+12     	; 0x3f02 <vfprintf+0x300>
    3ef6:	04 c0       	rjmp	.+8      	; 0x3f00 <vfprintf+0x2fe>
    3ef8:	86 78       	andi	r24, 0x86	; 134
    3efa:	90 70       	andi	r25, 0x00	; 0
    3efc:	00 97       	sbiw	r24, 0x00	; 0
    3efe:	09 f0       	breq	.+2      	; 0x3f02 <vfprintf+0x300>
    3f00:	a3 94       	inc	r10
    3f02:	8b 2c       	mov	r8, r11
    3f04:	99 24       	eor	r9, r9
    3f06:	b3 fc       	sbrc	r11, 3
    3f08:	14 c0       	rjmp	.+40     	; 0x3f32 <vfprintf+0x330>
    3f0a:	b0 fe       	sbrs	r11, 0
    3f0c:	0f c0       	rjmp	.+30     	; 0x3f2c <vfprintf+0x32a>
    3f0e:	af 14       	cp	r10, r15
    3f10:	28 f4       	brcc	.+10     	; 0x3f1c <vfprintf+0x31a>
    3f12:	e7 2c       	mov	r14, r7
    3f14:	ef 0c       	add	r14, r15
    3f16:	ea 18       	sub	r14, r10
    3f18:	af 2c       	mov	r10, r15
    3f1a:	08 c0       	rjmp	.+16     	; 0x3f2c <vfprintf+0x32a>
    3f1c:	e7 2c       	mov	r14, r7
    3f1e:	06 c0       	rjmp	.+12     	; 0x3f2c <vfprintf+0x32a>
    3f20:	80 e2       	ldi	r24, 0x20	; 32
    3f22:	90 e0       	ldi	r25, 0x00	; 0
    3f24:	b6 01       	movw	r22, r12
    3f26:	0e 94 3e 20 	call	0x407c	; 0x407c <fputc>
    3f2a:	a3 94       	inc	r10
    3f2c:	af 14       	cp	r10, r15
    3f2e:	c0 f3       	brcs	.-16     	; 0x3f20 <vfprintf+0x31e>
    3f30:	04 c0       	rjmp	.+8      	; 0x3f3a <vfprintf+0x338>
    3f32:	af 14       	cp	r10, r15
    3f34:	10 f4       	brcc	.+4      	; 0x3f3a <vfprintf+0x338>
    3f36:	fa 18       	sub	r15, r10
    3f38:	01 c0       	rjmp	.+2      	; 0x3f3c <vfprintf+0x33a>
    3f3a:	ff 24       	eor	r15, r15
    3f3c:	84 fe       	sbrs	r8, 4
    3f3e:	0f c0       	rjmp	.+30     	; 0x3f5e <vfprintf+0x35c>
    3f40:	80 e3       	ldi	r24, 0x30	; 48
    3f42:	90 e0       	ldi	r25, 0x00	; 0
    3f44:	b6 01       	movw	r22, r12
    3f46:	0e 94 3e 20 	call	0x407c	; 0x407c <fputc>
    3f4a:	82 fe       	sbrs	r8, 2
    3f4c:	1f c0       	rjmp	.+62     	; 0x3f8c <vfprintf+0x38a>
    3f4e:	81 fe       	sbrs	r8, 1
    3f50:	03 c0       	rjmp	.+6      	; 0x3f58 <vfprintf+0x356>
    3f52:	88 e5       	ldi	r24, 0x58	; 88
    3f54:	90 e0       	ldi	r25, 0x00	; 0
    3f56:	10 c0       	rjmp	.+32     	; 0x3f78 <vfprintf+0x376>
    3f58:	88 e7       	ldi	r24, 0x78	; 120
    3f5a:	90 e0       	ldi	r25, 0x00	; 0
    3f5c:	0d c0       	rjmp	.+26     	; 0x3f78 <vfprintf+0x376>
    3f5e:	c4 01       	movw	r24, r8
    3f60:	86 78       	andi	r24, 0x86	; 134
    3f62:	90 70       	andi	r25, 0x00	; 0
    3f64:	00 97       	sbiw	r24, 0x00	; 0
    3f66:	91 f0       	breq	.+36     	; 0x3f8c <vfprintf+0x38a>
    3f68:	81 fc       	sbrc	r8, 1
    3f6a:	02 c0       	rjmp	.+4      	; 0x3f70 <vfprintf+0x36e>
    3f6c:	80 e2       	ldi	r24, 0x20	; 32
    3f6e:	01 c0       	rjmp	.+2      	; 0x3f72 <vfprintf+0x370>
    3f70:	8b e2       	ldi	r24, 0x2B	; 43
    3f72:	b7 fc       	sbrc	r11, 7
    3f74:	8d e2       	ldi	r24, 0x2D	; 45
    3f76:	90 e0       	ldi	r25, 0x00	; 0
    3f78:	b6 01       	movw	r22, r12
    3f7a:	0e 94 3e 20 	call	0x407c	; 0x407c <fputc>
    3f7e:	06 c0       	rjmp	.+12     	; 0x3f8c <vfprintf+0x38a>
    3f80:	80 e3       	ldi	r24, 0x30	; 48
    3f82:	90 e0       	ldi	r25, 0x00	; 0
    3f84:	b6 01       	movw	r22, r12
    3f86:	0e 94 3e 20 	call	0x407c	; 0x407c <fputc>
    3f8a:	ea 94       	dec	r14
    3f8c:	7e 14       	cp	r7, r14
    3f8e:	c0 f3       	brcs	.-16     	; 0x3f80 <vfprintf+0x37e>
    3f90:	7a 94       	dec	r7
    3f92:	f2 01       	movw	r30, r4
    3f94:	e7 0d       	add	r30, r7
    3f96:	f1 1d       	adc	r31, r1
    3f98:	80 81       	ld	r24, Z
    3f9a:	90 e0       	ldi	r25, 0x00	; 0
    3f9c:	b6 01       	movw	r22, r12
    3f9e:	0e 94 3e 20 	call	0x407c	; 0x407c <fputc>
    3fa2:	77 20       	and	r7, r7
    3fa4:	a9 f7       	brne	.-22     	; 0x3f90 <vfprintf+0x38e>
    3fa6:	06 c0       	rjmp	.+12     	; 0x3fb4 <vfprintf+0x3b2>
    3fa8:	80 e2       	ldi	r24, 0x20	; 32
    3faa:	90 e0       	ldi	r25, 0x00	; 0
    3fac:	b6 01       	movw	r22, r12
    3fae:	0e 94 3e 20 	call	0x407c	; 0x407c <fputc>
    3fb2:	fa 94       	dec	r15
    3fb4:	ff 20       	and	r15, r15
    3fb6:	c1 f7       	brne	.-16     	; 0x3fa8 <vfprintf+0x3a6>
    3fb8:	37 ce       	rjmp	.-914    	; 0x3c28 <vfprintf+0x26>
    3fba:	f6 01       	movw	r30, r12
    3fbc:	26 81       	ldd	r18, Z+6	; 0x06
    3fbe:	37 81       	ldd	r19, Z+7	; 0x07
    3fc0:	02 c0       	rjmp	.+4      	; 0x3fc6 <vfprintf+0x3c4>
    3fc2:	2f ef       	ldi	r18, 0xFF	; 255
    3fc4:	3f ef       	ldi	r19, 0xFF	; 255
    3fc6:	c9 01       	movw	r24, r18
    3fc8:	2c 96       	adiw	r28, 0x0c	; 12
    3fca:	e2 e1       	ldi	r30, 0x12	; 18
    3fcc:	0c 94 e4 20 	jmp	0x41c8	; 0x41c8 <__epilogue_restores__>

00003fd0 <__eerd_block_m644p>:
    3fd0:	dc 01       	movw	r26, r24
    3fd2:	cb 01       	movw	r24, r22

00003fd4 <__eerd_blraw_m644p>:
    3fd4:	fc 01       	movw	r30, r24
    3fd6:	f9 99       	sbic	0x1f, 1	; 31
    3fd8:	fe cf       	rjmp	.-4      	; 0x3fd6 <__eerd_blraw_m644p+0x2>
    3fda:	06 c0       	rjmp	.+12     	; 0x3fe8 <__eerd_blraw_m644p+0x14>
    3fdc:	f2 bd       	out	0x22, r31	; 34
    3fde:	e1 bd       	out	0x21, r30	; 33
    3fe0:	f8 9a       	sbi	0x1f, 0	; 31
    3fe2:	31 96       	adiw	r30, 0x01	; 1
    3fe4:	00 b4       	in	r0, 0x20	; 32
    3fe6:	0d 92       	st	X+, r0
    3fe8:	41 50       	subi	r20, 0x01	; 1
    3fea:	50 40       	sbci	r21, 0x00	; 0
    3fec:	b8 f7       	brcc	.-18     	; 0x3fdc <__eerd_blraw_m644p+0x8>
    3fee:	08 95       	ret

00003ff0 <__eerd_byte_m644p>:
    3ff0:	f9 99       	sbic	0x1f, 1	; 31
    3ff2:	fe cf       	rjmp	.-4      	; 0x3ff0 <__eerd_byte_m644p>
    3ff4:	92 bd       	out	0x22, r25	; 34
    3ff6:	81 bd       	out	0x21, r24	; 33
    3ff8:	f8 9a       	sbi	0x1f, 0	; 31
    3ffa:	99 27       	eor	r25, r25
    3ffc:	80 b5       	in	r24, 0x20	; 32
    3ffe:	08 95       	ret

00004000 <__eewr_block_m644p>:
    4000:	dc 01       	movw	r26, r24
    4002:	cb 01       	movw	r24, r22
    4004:	03 c0       	rjmp	.+6      	; 0x400c <__eewr_block_m644p+0xc>
    4006:	2d 91       	ld	r18, X+
    4008:	0e 94 0b 20 	call	0x4016	; 0x4016 <__eewr_r18_m644p>
    400c:	41 50       	subi	r20, 0x01	; 1
    400e:	50 40       	sbci	r21, 0x00	; 0
    4010:	d0 f7       	brcc	.-12     	; 0x4006 <__eewr_block_m644p+0x6>
    4012:	08 95       	ret

00004014 <__eewr_byte_m644p>:
    4014:	26 2f       	mov	r18, r22

00004016 <__eewr_r18_m644p>:
    4016:	f9 99       	sbic	0x1f, 1	; 31
    4018:	fe cf       	rjmp	.-4      	; 0x4016 <__eewr_r18_m644p>
    401a:	1f ba       	out	0x1f, r1	; 31
    401c:	92 bd       	out	0x22, r25	; 34
    401e:	81 bd       	out	0x21, r24	; 33
    4020:	20 bd       	out	0x20, r18	; 32
    4022:	0f b6       	in	r0, 0x3f	; 63
    4024:	f8 94       	cli
    4026:	fa 9a       	sbi	0x1f, 2	; 31
    4028:	f9 9a       	sbi	0x1f, 1	; 31
    402a:	0f be       	out	0x3f, r0	; 63
    402c:	01 96       	adiw	r24, 0x01	; 1
    402e:	08 95       	ret

00004030 <strnlen_P>:
    4030:	fc 01       	movw	r30, r24
    4032:	05 90       	lpm	r0, Z+
    4034:	61 50       	subi	r22, 0x01	; 1
    4036:	70 40       	sbci	r23, 0x00	; 0
    4038:	01 10       	cpse	r0, r1
    403a:	d8 f7       	brcc	.-10     	; 0x4032 <strnlen_P+0x2>
    403c:	80 95       	com	r24
    403e:	90 95       	com	r25
    4040:	8e 0f       	add	r24, r30
    4042:	9f 1f       	adc	r25, r31
    4044:	08 95       	ret

00004046 <strnlen>:
    4046:	fc 01       	movw	r30, r24
    4048:	61 50       	subi	r22, 0x01	; 1
    404a:	70 40       	sbci	r23, 0x00	; 0
    404c:	01 90       	ld	r0, Z+
    404e:	01 10       	cpse	r0, r1
    4050:	d8 f7       	brcc	.-10     	; 0x4048 <strnlen+0x2>
    4052:	80 95       	com	r24
    4054:	90 95       	com	r25
    4056:	8e 0f       	add	r24, r30
    4058:	9f 1f       	adc	r25, r31
    405a:	08 95       	ret

0000405c <strrev>:
    405c:	dc 01       	movw	r26, r24
    405e:	fc 01       	movw	r30, r24
    4060:	67 2f       	mov	r22, r23
    4062:	71 91       	ld	r23, Z+
    4064:	77 23       	and	r23, r23
    4066:	e1 f7       	brne	.-8      	; 0x4060 <strrev+0x4>
    4068:	32 97       	sbiw	r30, 0x02	; 2
    406a:	04 c0       	rjmp	.+8      	; 0x4074 <strrev+0x18>
    406c:	7c 91       	ld	r23, X
    406e:	6d 93       	st	X+, r22
    4070:	70 83       	st	Z, r23
    4072:	62 91       	ld	r22, -Z
    4074:	ae 17       	cp	r26, r30
    4076:	bf 07       	cpc	r27, r31
    4078:	c8 f3       	brcs	.-14     	; 0x406c <strrev+0x10>
    407a:	08 95       	ret

0000407c <fputc>:
    407c:	0f 93       	push	r16
    407e:	1f 93       	push	r17
    4080:	cf 93       	push	r28
    4082:	df 93       	push	r29
    4084:	8c 01       	movw	r16, r24
    4086:	eb 01       	movw	r28, r22
    4088:	8b 81       	ldd	r24, Y+3	; 0x03
    408a:	81 ff       	sbrs	r24, 1
    408c:	1b c0       	rjmp	.+54     	; 0x40c4 <fputc+0x48>
    408e:	82 ff       	sbrs	r24, 2
    4090:	0d c0       	rjmp	.+26     	; 0x40ac <fputc+0x30>
    4092:	2e 81       	ldd	r18, Y+6	; 0x06
    4094:	3f 81       	ldd	r19, Y+7	; 0x07
    4096:	8c 81       	ldd	r24, Y+4	; 0x04
    4098:	9d 81       	ldd	r25, Y+5	; 0x05
    409a:	28 17       	cp	r18, r24
    409c:	39 07       	cpc	r19, r25
    409e:	64 f4       	brge	.+24     	; 0x40b8 <fputc+0x3c>
    40a0:	e8 81       	ld	r30, Y
    40a2:	f9 81       	ldd	r31, Y+1	; 0x01
    40a4:	01 93       	st	Z+, r16
    40a6:	f9 83       	std	Y+1, r31	; 0x01
    40a8:	e8 83       	st	Y, r30
    40aa:	06 c0       	rjmp	.+12     	; 0x40b8 <fputc+0x3c>
    40ac:	e8 85       	ldd	r30, Y+8	; 0x08
    40ae:	f9 85       	ldd	r31, Y+9	; 0x09
    40b0:	80 2f       	mov	r24, r16
    40b2:	09 95       	icall
    40b4:	00 97       	sbiw	r24, 0x00	; 0
    40b6:	31 f4       	brne	.+12     	; 0x40c4 <fputc+0x48>
    40b8:	8e 81       	ldd	r24, Y+6	; 0x06
    40ba:	9f 81       	ldd	r25, Y+7	; 0x07
    40bc:	01 96       	adiw	r24, 0x01	; 1
    40be:	9f 83       	std	Y+7, r25	; 0x07
    40c0:	8e 83       	std	Y+6, r24	; 0x06
    40c2:	02 c0       	rjmp	.+4      	; 0x40c8 <fputc+0x4c>
    40c4:	0f ef       	ldi	r16, 0xFF	; 255
    40c6:	1f ef       	ldi	r17, 0xFF	; 255
    40c8:	c8 01       	movw	r24, r16
    40ca:	df 91       	pop	r29
    40cc:	cf 91       	pop	r28
    40ce:	1f 91       	pop	r17
    40d0:	0f 91       	pop	r16
    40d2:	08 95       	ret

000040d4 <__ultoa_invert>:
    40d4:	fa 01       	movw	r30, r20
    40d6:	aa 27       	eor	r26, r26
    40d8:	28 30       	cpi	r18, 0x08	; 8
    40da:	51 f1       	breq	.+84     	; 0x4130 <__ultoa_invert+0x5c>
    40dc:	20 31       	cpi	r18, 0x10	; 16
    40de:	81 f1       	breq	.+96     	; 0x4140 <__ultoa_invert+0x6c>
    40e0:	e8 94       	clt
    40e2:	6f 93       	push	r22
    40e4:	6e 7f       	andi	r22, 0xFE	; 254
    40e6:	6e 5f       	subi	r22, 0xFE	; 254
    40e8:	7f 4f       	sbci	r23, 0xFF	; 255
    40ea:	8f 4f       	sbci	r24, 0xFF	; 255
    40ec:	9f 4f       	sbci	r25, 0xFF	; 255
    40ee:	af 4f       	sbci	r26, 0xFF	; 255
    40f0:	b1 e0       	ldi	r27, 0x01	; 1
    40f2:	3e d0       	rcall	.+124    	; 0x4170 <__ultoa_invert+0x9c>
    40f4:	b4 e0       	ldi	r27, 0x04	; 4
    40f6:	3c d0       	rcall	.+120    	; 0x4170 <__ultoa_invert+0x9c>
    40f8:	67 0f       	add	r22, r23
    40fa:	78 1f       	adc	r23, r24
    40fc:	89 1f       	adc	r24, r25
    40fe:	9a 1f       	adc	r25, r26
    4100:	a1 1d       	adc	r26, r1
    4102:	68 0f       	add	r22, r24
    4104:	79 1f       	adc	r23, r25
    4106:	8a 1f       	adc	r24, r26
    4108:	91 1d       	adc	r25, r1
    410a:	a1 1d       	adc	r26, r1
    410c:	6a 0f       	add	r22, r26
    410e:	71 1d       	adc	r23, r1
    4110:	81 1d       	adc	r24, r1
    4112:	91 1d       	adc	r25, r1
    4114:	a1 1d       	adc	r26, r1
    4116:	20 d0       	rcall	.+64     	; 0x4158 <__ultoa_invert+0x84>
    4118:	09 f4       	brne	.+2      	; 0x411c <__ultoa_invert+0x48>
    411a:	68 94       	set
    411c:	3f 91       	pop	r19
    411e:	2a e0       	ldi	r18, 0x0A	; 10
    4120:	26 9f       	mul	r18, r22
    4122:	11 24       	eor	r1, r1
    4124:	30 19       	sub	r19, r0
    4126:	30 5d       	subi	r19, 0xD0	; 208
    4128:	31 93       	st	Z+, r19
    412a:	de f6       	brtc	.-74     	; 0x40e2 <__ultoa_invert+0xe>
    412c:	cf 01       	movw	r24, r30
    412e:	08 95       	ret
    4130:	46 2f       	mov	r20, r22
    4132:	47 70       	andi	r20, 0x07	; 7
    4134:	40 5d       	subi	r20, 0xD0	; 208
    4136:	41 93       	st	Z+, r20
    4138:	b3 e0       	ldi	r27, 0x03	; 3
    413a:	0f d0       	rcall	.+30     	; 0x415a <__ultoa_invert+0x86>
    413c:	c9 f7       	brne	.-14     	; 0x4130 <__ultoa_invert+0x5c>
    413e:	f6 cf       	rjmp	.-20     	; 0x412c <__ultoa_invert+0x58>
    4140:	46 2f       	mov	r20, r22
    4142:	4f 70       	andi	r20, 0x0F	; 15
    4144:	40 5d       	subi	r20, 0xD0	; 208
    4146:	4a 33       	cpi	r20, 0x3A	; 58
    4148:	18 f0       	brcs	.+6      	; 0x4150 <__ultoa_invert+0x7c>
    414a:	49 5d       	subi	r20, 0xD9	; 217
    414c:	31 fd       	sbrc	r19, 1
    414e:	40 52       	subi	r20, 0x20	; 32
    4150:	41 93       	st	Z+, r20
    4152:	02 d0       	rcall	.+4      	; 0x4158 <__ultoa_invert+0x84>
    4154:	a9 f7       	brne	.-22     	; 0x4140 <__ultoa_invert+0x6c>
    4156:	ea cf       	rjmp	.-44     	; 0x412c <__ultoa_invert+0x58>
    4158:	b4 e0       	ldi	r27, 0x04	; 4
    415a:	a6 95       	lsr	r26
    415c:	97 95       	ror	r25
    415e:	87 95       	ror	r24
    4160:	77 95       	ror	r23
    4162:	67 95       	ror	r22
    4164:	ba 95       	dec	r27
    4166:	c9 f7       	brne	.-14     	; 0x415a <__ultoa_invert+0x86>
    4168:	00 97       	sbiw	r24, 0x00	; 0
    416a:	61 05       	cpc	r22, r1
    416c:	71 05       	cpc	r23, r1
    416e:	08 95       	ret
    4170:	9b 01       	movw	r18, r22
    4172:	ac 01       	movw	r20, r24
    4174:	0a 2e       	mov	r0, r26
    4176:	06 94       	lsr	r0
    4178:	57 95       	ror	r21
    417a:	47 95       	ror	r20
    417c:	37 95       	ror	r19
    417e:	27 95       	ror	r18
    4180:	ba 95       	dec	r27
    4182:	c9 f7       	brne	.-14     	; 0x4176 <__ultoa_invert+0xa2>
    4184:	62 0f       	add	r22, r18
    4186:	73 1f       	adc	r23, r19
    4188:	84 1f       	adc	r24, r20
    418a:	95 1f       	adc	r25, r21
    418c:	a0 1d       	adc	r26, r0
    418e:	08 95       	ret

00004190 <__prologue_saves__>:
    4190:	2f 92       	push	r2
    4192:	3f 92       	push	r3
    4194:	4f 92       	push	r4
    4196:	5f 92       	push	r5
    4198:	6f 92       	push	r6
    419a:	7f 92       	push	r7
    419c:	8f 92       	push	r8
    419e:	9f 92       	push	r9
    41a0:	af 92       	push	r10
    41a2:	bf 92       	push	r11
    41a4:	cf 92       	push	r12
    41a6:	df 92       	push	r13
    41a8:	ef 92       	push	r14
    41aa:	ff 92       	push	r15
    41ac:	0f 93       	push	r16
    41ae:	1f 93       	push	r17
    41b0:	cf 93       	push	r28
    41b2:	df 93       	push	r29
    41b4:	cd b7       	in	r28, 0x3d	; 61
    41b6:	de b7       	in	r29, 0x3e	; 62
    41b8:	ca 1b       	sub	r28, r26
    41ba:	db 0b       	sbc	r29, r27
    41bc:	0f b6       	in	r0, 0x3f	; 63
    41be:	f8 94       	cli
    41c0:	de bf       	out	0x3e, r29	; 62
    41c2:	0f be       	out	0x3f, r0	; 63
    41c4:	cd bf       	out	0x3d, r28	; 61
    41c6:	09 94       	ijmp

000041c8 <__epilogue_restores__>:
    41c8:	2a 88       	ldd	r2, Y+18	; 0x12
    41ca:	39 88       	ldd	r3, Y+17	; 0x11
    41cc:	48 88       	ldd	r4, Y+16	; 0x10
    41ce:	5f 84       	ldd	r5, Y+15	; 0x0f
    41d0:	6e 84       	ldd	r6, Y+14	; 0x0e
    41d2:	7d 84       	ldd	r7, Y+13	; 0x0d
    41d4:	8c 84       	ldd	r8, Y+12	; 0x0c
    41d6:	9b 84       	ldd	r9, Y+11	; 0x0b
    41d8:	aa 84       	ldd	r10, Y+10	; 0x0a
    41da:	b9 84       	ldd	r11, Y+9	; 0x09
    41dc:	c8 84       	ldd	r12, Y+8	; 0x08
    41de:	df 80       	ldd	r13, Y+7	; 0x07
    41e0:	ee 80       	ldd	r14, Y+6	; 0x06
    41e2:	fd 80       	ldd	r15, Y+5	; 0x05
    41e4:	0c 81       	ldd	r16, Y+4	; 0x04
    41e6:	1b 81       	ldd	r17, Y+3	; 0x03
    41e8:	aa 81       	ldd	r26, Y+2	; 0x02
    41ea:	b9 81       	ldd	r27, Y+1	; 0x01
    41ec:	ce 0f       	add	r28, r30
    41ee:	d1 1d       	adc	r29, r1
    41f0:	0f b6       	in	r0, 0x3f	; 63
    41f2:	f8 94       	cli
    41f4:	de bf       	out	0x3e, r29	; 62
    41f6:	0f be       	out	0x3f, r0	; 63
    41f8:	cd bf       	out	0x3d, r28	; 61
    41fa:	ed 01       	movw	r28, r26
    41fc:	08 95       	ret

000041fe <_exit>:
    41fe:	f8 94       	cli

00004200 <__stop_program>:
    4200:	ff cf       	rjmp	.-2      	; 0x4200 <__stop_program>
